Component: ARM Compiler 5.06 update 5 (build 528) Tool: armlink [4d35e2]

==============================================================================

Section Cross References

    led.o(.text) refers to led.o(.constdata) for led_mask
    blinky.o(.text) refers to led.o(.text) for LED_On
    blinky.o(.text) refers to rt_cmsis.o(i.osSignalSet) for osSignalSet
    blinky.o(.text) refers to rt_cmsis.o(i.osDelay) for osDelay
    blinky.o(.text) refers to rt_cmsis.o(i.osSignalWait) for osSignalWait
    blinky.o(.text) refers to rgb.o(.text) for rgb_write_color
    blinky.o(.text) refers to llsdiv.o(.text) for __aeabi_ldivmod
    blinky.o(.text) refers to dflt_clz.o(x$fpl$dflt) for __aeabi_i2d
    blinky.o(.text) refers to dmul.o(x$fpl$dmul) for __aeabi_dmul
    blinky.o(.text) refers to daddsub_clz.o(x$fpl$dadd) for __aeabi_dadd
    blinky.o(.text) refers to pow.o(i.__hardfp_pow) for __hardfp_pow
    blinky.o(.text) refers to daddsub_clz.o(x$fpl$dsub) for __aeabi_dsub
    blinky.o(.text) refers to blinky.o(.data) for tid_clock
    blinky.o(.text) refers to ddiv.o(x$fpl$ddiv) for __aeabi_ddiv
    blinky.o(.text) refers to dfix.o(x$fpl$dfix) for __aeabi_d2iz
    blinky.o(.text) refers to context.o(i.GrContextInit) for GrContextInit
    blinky.o(.text) refers to string.o(i.GrContextFontSet) for GrContextFontSet
    blinky.o(.text) refers to temp.o(.text) for temp_read
    blinky.o(.text) refers to opt.o(.text) for opt_read
    blinky.o(.text) refers to rectangle.o(i.GrRectFill) for GrRectFill
    blinky.o(.text) refers to string.o(i.GrFontBaselineGet) for GrFontBaselineGet
    blinky.o(.text) refers to string.o(i.GrStringWidthGet) for GrStringWidthGet
    blinky.o(.text) refers to string.o(i.GrStringDraw) for GrStringDraw
    blinky.o(.text) refers to rt_cmsis.o(i.osKernelInitialize) for osKernelInitialize
    blinky.o(.text) refers to cfaf128x128x16.o(.text) for cfaf128x128x16Init
    blinky.o(.text) refers to servo.o(.text) for servo_init
    blinky.o(.text) refers to rt_cmsis.o(i.osThreadCreate) for osThreadCreate
    blinky.o(.text) refers to rt_cmsis.o(i.osKernelStart) for osKernelStart
    blinky.o(.text) refers to cfaf128x128x16.o(.constdata) for g_sCfaf128x128x16
    blinky.o(.text) refers to fontfixed6x8.o(.constdata) for g_sFontFixed6x8
    blinky.o(.text) refers to blinky.o(.constdata) for os_thread_def_phaseA
    blinky.o(.constdata) refers to blinky.o(.text) for phaseA
    blinky.o(.data) refers to blinky.o(.conststring) for .conststring
    cfaf128x128x16.o(.text) refers to cfaf128x128x16.o(.data) for _orientation
    cfaf128x128x16.o(.text) refers to sysctl.o(i.SysCtlClockFreqSet) for SysCtlClockFreqSet
    cfaf128x128x16.o(.constdata) refers to cfaf128x128x16.o(.text) for cfaf128x128x16PixelDraw
    servo.o(.text) refers to sysctl.o(i.SysCtlClockFreqSet) for SysCtlClockFreqSet
    servo.o(.text) refers to sysctl.o(i.SysCtlPeripheralEnable) for SysCtlPeripheralEnable
    servo.o(.text) refers to sysctl.o(i.SysCtlPeripheralReady) for SysCtlPeripheralReady
    servo.o(.text) refers to gpio.o(i.GPIOPinConfigure) for GPIOPinConfigure
    servo.o(.text) refers to gpio.o(i.GPIOPinTypeTimer) for GPIOPinTypeTimer
    servo.o(.text) refers to timer.o(i.TimerClockSourceSet) for TimerClockSourceSet
    servo.o(.text) refers to timer.o(i.TimerConfigure) for TimerConfigure
    servo.o(.text) refers to timer.o(i.TimerControlLevel) for TimerControlLevel
    servo.o(.text) refers to timer.o(i.TimerUpdateMode) for TimerUpdateMode
    servo.o(.text) refers to timer.o(i.TimerPrescaleSet) for TimerPrescaleSet
    servo.o(.text) refers to timer.o(i.TimerLoadSet) for TimerLoadSet
    servo.o(.text) refers to timer.o(i.TimerMatchSet) for TimerMatchSet
    servo.o(.text) refers to timer.o(i.TimerEnable) for TimerEnable
    servo.o(.text) refers to servo.o(.data) for g_ui32SysClock
    rgb.o(.text) refers to pwm.o(i.PWMOutputState) for PWMOutputState
    rgb.o(.text) refers to pwm.o(i.PWMGenPeriodGet) for PWMGenPeriodGet
    rgb.o(.text) refers to pwm.o(i.PWMPulseWidthSet) for PWMPulseWidthSet
    rgb.o(.text) refers to sysctl.o(i.SysCtlClockFreqSet) for SysCtlClockFreqSet
    rgb.o(.text) refers to sysctl.o(i.SysCtlPeripheralEnable) for SysCtlPeripheralEnable
    rgb.o(.text) refers to sysctl.o(i.SysCtlPeripheralReady) for SysCtlPeripheralReady
    rgb.o(.text) refers to pwm.o(i.PWMGenDisable) for PWMGenDisable
    rgb.o(.text) refers to gpio.o(i.GPIOPinTypePWM) for GPIOPinTypePWM
    rgb.o(.text) refers to pwm.o(i.PWMClockSet) for PWMClockSet
    rgb.o(.text) refers to gpio.o(i.GPIOPinConfigure) for GPIOPinConfigure
    rgb.o(.text) refers to pwm.o(i.PWMGenConfigure) for PWMGenConfigure
    rgb.o(.text) refers to pwm.o(i.PWMGenPeriodSet) for PWMGenPeriodSet
    rgb.o(.text) refers to pwm.o(i.PWMGenEnable) for PWMGenEnable
    rgb.o(.text) refers to rgb.o(.data) for enabled
    temp.o(.text) refers to i2c.o(i.I2CMasterSlaveAddrSet) for I2CMasterSlaveAddrSet
    temp.o(.text) refers to i2c.o(i.I2CMasterDataPut) for I2CMasterDataPut
    temp.o(.text) refers to i2c.o(i.I2CMasterBusBusy) for I2CMasterBusBusy
    temp.o(.text) refers to sysctl.o(.emb_text) for SysCtlDelay
    temp.o(.text) refers to i2c.o(i.I2CMasterControl) for I2CMasterControl
    temp.o(.text) refers to i2c.o(i.I2CMasterBusy) for I2CMasterBusy
    temp.o(.text) refers to i2c.o(i.I2CMasterErr) for I2CMasterErr
    temp.o(.text) refers to i2c.o(i.I2CMasterDataGet) for I2CMasterDataGet
    temp.o(.text) refers to i2c.o(i.I2CMasterBurstLengthSet) for I2CMasterBurstLengthSet
    temp.o(.text) refers to temp.o(.data) for g_sentFlag
    temp.o(.text) refers to i2c.o(i.I2CMasterIntClearEx) for I2CMasterIntClearEx
    temp.o(.text) refers to i2c.o(i.I2CMasterIntClear) for I2CMasterIntClear
    temp.o(.text) refers to sysctl.o(i.SysCtlClockFreqSet) for SysCtlClockFreqSet
    temp.o(.text) refers to sysctl.o(i.SysCtlPeripheralEnable) for SysCtlPeripheralEnable
    temp.o(.text) refers to sysctl.o(i.SysCtlPeripheralReset) for SysCtlPeripheralReset
    temp.o(.text) refers to sysctl.o(i.SysCtlPeripheralReady) for SysCtlPeripheralReady
    temp.o(.text) refers to gpio.o(i.GPIOPinTypeGPIOInput) for GPIOPinTypeGPIOInput
    temp.o(.text) refers to gpio.o(i.GPIOPinConfigure) for GPIOPinConfigure
    temp.o(.text) refers to gpio.o(i.GPIOPinTypeI2CSCL) for GPIOPinTypeI2CSCL
    temp.o(.text) refers to gpio.o(i.GPIOPinTypeI2C) for GPIOPinTypeI2C
    temp.o(.text) refers to i2c.o(i.I2CMasterTimeoutSet) for I2CMasterTimeoutSet
    temp.o(.text) refers to i2c.o(i.I2CMasterGlitchFilterConfigSet) for I2CMasterGlitchFilterConfigSet
    temp.o(.text) refers to i2c.o(i.I2CMasterInitExpClk) for I2CMasterInitExpClk
    temp.o(.text) refers to i2c.o(i.I2CMasterIntEnableEx) for I2CMasterIntEnableEx
    temp.o(.text) refers to i2c.o(i.I2CIntRegister) for I2CIntRegister
    temp.o(.text) refers to interrupt.o(i.IntEnable) for IntEnable
    temp.o(.text) refers to i2c.o(i.I2CMasterEnable) for I2CMasterEnable
    opt.o(.text) refers to i2c.o(i.I2CMasterSlaveAddrSet) for I2CMasterSlaveAddrSet
    opt.o(.text) refers to i2c.o(i.I2CMasterDataPut) for I2CMasterDataPut
    opt.o(.text) refers to i2c.o(i.I2CMasterBusBusy) for I2CMasterBusBusy
    opt.o(.text) refers to sysctl.o(.emb_text) for SysCtlDelay
    opt.o(.text) refers to i2c.o(i.I2CMasterControl) for I2CMasterControl
    opt.o(.text) refers to i2c.o(i.I2CMasterBusy) for I2CMasterBusy
    opt.o(.text) refers to i2c.o(i.I2CMasterErr) for I2CMasterErr
    opt.o(.text) refers to i2c.o(i.I2CMasterDataGet) for I2CMasterDataGet
    opt.o(.text) refers to i2c.o(i.I2CMasterBurstLengthSet) for I2CMasterBurstLengthSet
    opt.o(.text) refers to opt.o(.data) for g_sentFlag
    opt.o(.text) refers to i2c.o(i.I2CMasterIntClearEx) for I2CMasterIntClearEx
    opt.o(.text) refers to i2c.o(i.I2CMasterIntClear) for I2CMasterIntClear
    opt.o(.text) refers to sysctl.o(i.SysCtlClockFreqSet) for SysCtlClockFreqSet
    opt.o(.text) refers to sysctl.o(i.SysCtlPeripheralEnable) for SysCtlPeripheralEnable
    opt.o(.text) refers to sysctl.o(i.SysCtlPeripheralReset) for SysCtlPeripheralReset
    opt.o(.text) refers to sysctl.o(i.SysCtlPeripheralReady) for SysCtlPeripheralReady
    opt.o(.text) refers to gpio.o(i.GPIOPinTypeGPIOInput) for GPIOPinTypeGPIOInput
    opt.o(.text) refers to gpio.o(i.GPIOPinConfigure) for GPIOPinConfigure
    opt.o(.text) refers to gpio.o(i.GPIOPinTypeI2CSCL) for GPIOPinTypeI2CSCL
    opt.o(.text) refers to gpio.o(i.GPIOPinTypeI2C) for GPIOPinTypeI2C
    opt.o(.text) refers to i2c.o(i.I2CMasterTimeoutSet) for I2CMasterTimeoutSet
    opt.o(.text) refers to i2c.o(i.I2CMasterGlitchFilterConfigSet) for I2CMasterGlitchFilterConfigSet
    opt.o(.text) refers to i2c.o(i.I2CMasterInitExpClk) for I2CMasterInitExpClk
    opt.o(.text) refers to i2c.o(i.I2CMasterIntEnableEx) for I2CMasterIntEnableEx
    opt.o(.text) refers to i2c.o(i.I2CIntRegister) for I2CIntRegister
    opt.o(.text) refers to interrupt.o(i.IntEnable) for IntEnable
    opt.o(.text) refers to i2c.o(i.I2CMasterEnable) for I2CMasterEnable
    rtx_conf_cm.o(.emb_text) refers to rt_cmsis.o(i.osKernelInitialize) for osKernelInitialize
    rtx_conf_cm.o(.emb_text) refers to rt_cmsis.o(i.osThreadCreate) for osThreadCreate
    rtx_conf_cm.o(.emb_text) refers to rt_cmsis.o(i.osKernelStart) for osKernelStart
    rtx_conf_cm.o(.emb_text) refers to exit.o(.text) for exit
    rtx_conf_cm.o(.emb_text) refers to rtx_conf_cm.o(.constdata) for os_thread_def_main
    rtx_conf_cm.o(.text) refers to rt_task.o(i.rt_tsk_self) for rt_tsk_self
    rtx_conf_cm.o(.text) refers to rt_mutex.o(i.rt_mut_init) for rt_mut_init
    rtx_conf_cm.o(.text) refers to rt_cmsis.o(.data) for os_running
    rtx_conf_cm.o(.text) refers to rtx_conf_cm.o(.bss) for .bss
    rtx_conf_cm.o(.text) refers to libspace.o(.bss) for __libspace_start
    rtx_conf_cm.o(.text) refers to rtx_conf_cm.o(.data) for .data
    rtx_conf_cm.o(.text) refers to rt_mutex.o(i.rt_mut_wait) for rt_mut_wait
    rtx_conf_cm.o(.text) refers to rt_mutex.o(i.rt_mut_release) for rt_mut_release
    rtx_conf_cm.o(.constdata) refers to rt_cmsis.o(i.osTimerThread) for osTimerThread
    rtx_conf_cm.o(.constdata) refers to rtx_conf_cm.o(.bss) for os_messageQ_q_osTimerMessageQ
    rtx_conf_cm.o(.constdata) refers to blinky.o(.text) for main
    retarget_io.o(.text) refers to strcmpv7m.o(.text) for strcmp
    retarget_io.o(.text) refers to retarget_io.o(.data) for ITM_RxBuffer
    startup_tm4c129.o(STACK) refers (Special) to heapauxi.o(.text) for __use_two_region_memory
    startup_tm4c129.o(HEAP) refers (Special) to heapauxi.o(.text) for __use_two_region_memory
    startup_tm4c129.o(RESET) refers (Special) to heapauxi.o(.text) for __use_two_region_memory
    startup_tm4c129.o(RESET) refers to startup_tm4c129.o(STACK) for __initial_sp
    startup_tm4c129.o(RESET) refers to startup_tm4c129.o(.text) for Reset_Handler
    startup_tm4c129.o(RESET) refers to hal_cm4.o(.emb_text) for SVC_Handler
    startup_tm4c129.o(.text) refers (Special) to heapauxi.o(.text) for __use_two_region_memory
    startup_tm4c129.o(.text) refers to system_tm4c129.o(.text) for SystemInit
    startup_tm4c129.o(.text) refers to __main.o(!!!main) for __main
    startup_tm4c129.o(.text) refers to startup_tm4c129.o(HEAP) for Heap_Mem
    startup_tm4c129.o(.text) refers to startup_tm4c129.o(STACK) for Stack_Mem
    system_tm4c129.o(.text) refers to system_tm4c129.o(.data) for SystemCoreClock
    gpio.o(i.GPIOIntRegister) refers to gpio.o(i._GPIOIntNumberGet) for _GPIOIntNumberGet
    gpio.o(i.GPIOIntRegister) refers to interrupt.o(i.IntRegister) for IntRegister
    gpio.o(i.GPIOIntRegister) refers to interrupt.o(i.IntEnable) for IntEnable
    gpio.o(i.GPIOIntRegisterPin) refers to gpio.o(i._GPIOIntNumberGet) for _GPIOIntNumberGet
    gpio.o(i.GPIOIntRegisterPin) refers to interrupt.o(i.IntRegister) for IntRegister
    gpio.o(i.GPIOIntRegisterPin) refers to interrupt.o(i.IntEnable) for IntEnable
    gpio.o(i.GPIOIntUnregister) refers to gpio.o(i._GPIOIntNumberGet) for _GPIOIntNumberGet
    gpio.o(i.GPIOIntUnregister) refers to interrupt.o(i.IntDisable) for IntDisable
    gpio.o(i.GPIOIntUnregister) refers to interrupt.o(i.IntUnregister) for IntUnregister
    gpio.o(i.GPIOIntUnregisterPin) refers to gpio.o(i._GPIOIntNumberGet) for _GPIOIntNumberGet
    gpio.o(i.GPIOIntUnregisterPin) refers to interrupt.o(i.IntDisable) for IntDisable
    gpio.o(i.GPIOIntUnregisterPin) refers to interrupt.o(i.IntUnregister) for IntUnregister
    gpio.o(i.GPIOPinConfigure) refers to gpio.o(.constdata) for .constdata
    gpio.o(i.GPIOPinTypeADC) refers to gpio.o(i.GPIODirModeSet) for GPIODirModeSet
    gpio.o(i.GPIOPinTypeADC) refers to gpio.o(i.GPIOPadConfigSet) for GPIOPadConfigSet
    gpio.o(i.GPIOPinTypeCAN) refers to gpio.o(i.GPIODirModeSet) for GPIODirModeSet
    gpio.o(i.GPIOPinTypeCAN) refers to gpio.o(i.GPIOPadConfigSet) for GPIOPadConfigSet
    gpio.o(i.GPIOPinTypeComparator) refers to gpio.o(i.GPIODirModeSet) for GPIODirModeSet
    gpio.o(i.GPIOPinTypeComparator) refers to gpio.o(i.GPIOPadConfigSet) for GPIOPadConfigSet
    gpio.o(i.GPIOPinTypeComparatorOutput) refers to gpio.o(i.GPIODirModeSet) for GPIODirModeSet
    gpio.o(i.GPIOPinTypeComparatorOutput) refers to gpio.o(i.GPIOPadConfigSet) for GPIOPadConfigSet
    gpio.o(i.GPIOPinTypeDIVSCLK) refers to gpio.o(i.GPIODirModeSet) for GPIODirModeSet
    gpio.o(i.GPIOPinTypeDIVSCLK) refers to gpio.o(i.GPIOPadConfigSet) for GPIOPadConfigSet
    gpio.o(i.GPIOPinTypeEPI) refers to gpio.o(i.GPIODirModeSet) for GPIODirModeSet
    gpio.o(i.GPIOPinTypeEPI) refers to gpio.o(i.GPIOPadConfigSet) for GPIOPadConfigSet
    gpio.o(i.GPIOPinTypeEthernetLED) refers to gpio.o(i.GPIODirModeSet) for GPIODirModeSet
    gpio.o(i.GPIOPinTypeEthernetLED) refers to gpio.o(i.GPIOPadConfigSet) for GPIOPadConfigSet
    gpio.o(i.GPIOPinTypeEthernetMII) refers to gpio.o(i.GPIODirModeSet) for GPIODirModeSet
    gpio.o(i.GPIOPinTypeEthernetMII) refers to gpio.o(i.GPIOPadConfigSet) for GPIOPadConfigSet
    gpio.o(i.GPIOPinTypeGPIOInput) refers to gpio.o(i.GPIODirModeSet) for GPIODirModeSet
    gpio.o(i.GPIOPinTypeGPIOInput) refers to gpio.o(i.GPIOPadConfigSet) for GPIOPadConfigSet
    gpio.o(i.GPIOPinTypeGPIOOutput) refers to gpio.o(i.GPIOPadConfigSet) for GPIOPadConfigSet
    gpio.o(i.GPIOPinTypeGPIOOutput) refers to gpio.o(i.GPIODirModeSet) for GPIODirModeSet
    gpio.o(i.GPIOPinTypeGPIOOutputOD) refers to gpio.o(i.GPIOPadConfigSet) for GPIOPadConfigSet
    gpio.o(i.GPIOPinTypeGPIOOutputOD) refers to gpio.o(i.GPIODirModeSet) for GPIODirModeSet
    gpio.o(i.GPIOPinTypeHibernateRTCCLK) refers to gpio.o(i.GPIODirModeSet) for GPIODirModeSet
    gpio.o(i.GPIOPinTypeHibernateRTCCLK) refers to gpio.o(i.GPIOPadConfigSet) for GPIOPadConfigSet
    gpio.o(i.GPIOPinTypeI2C) refers to gpio.o(i.GPIODirModeSet) for GPIODirModeSet
    gpio.o(i.GPIOPinTypeI2C) refers to gpio.o(i.GPIOPadConfigSet) for GPIOPadConfigSet
    gpio.o(i.GPIOPinTypeI2CSCL) refers to gpio.o(i.GPIODirModeSet) for GPIODirModeSet
    gpio.o(i.GPIOPinTypeI2CSCL) refers to gpio.o(i.GPIOPadConfigSet) for GPIOPadConfigSet
    gpio.o(i.GPIOPinTypeLCD) refers to gpio.o(i.GPIODirModeSet) for GPIODirModeSet
    gpio.o(i.GPIOPinTypeLCD) refers to gpio.o(i.GPIOPadConfigSet) for GPIOPadConfigSet
    gpio.o(i.GPIOPinTypeOneWire) refers to gpio.o(i.GPIODirModeSet) for GPIODirModeSet
    gpio.o(i.GPIOPinTypeOneWire) refers to gpio.o(i.GPIOPadConfigSet) for GPIOPadConfigSet
    gpio.o(i.GPIOPinTypePWM) refers to gpio.o(i.GPIODirModeSet) for GPIODirModeSet
    gpio.o(i.GPIOPinTypePWM) refers to gpio.o(i.GPIOPadConfigSet) for GPIOPadConfigSet
    gpio.o(i.GPIOPinTypeQEI) refers to gpio.o(i.GPIODirModeSet) for GPIODirModeSet
    gpio.o(i.GPIOPinTypeQEI) refers to gpio.o(i.GPIOPadConfigSet) for GPIOPadConfigSet
    gpio.o(i.GPIOPinTypeSSI) refers to gpio.o(i.GPIODirModeSet) for GPIODirModeSet
    gpio.o(i.GPIOPinTypeSSI) refers to gpio.o(i.GPIOPadConfigSet) for GPIOPadConfigSet
    gpio.o(i.GPIOPinTypeTimer) refers to gpio.o(i.GPIODirModeSet) for GPIODirModeSet
    gpio.o(i.GPIOPinTypeTimer) refers to gpio.o(i.GPIOPadConfigSet) for GPIOPadConfigSet
    gpio.o(i.GPIOPinTypeTrace) refers to gpio.o(i.GPIODirModeSet) for GPIODirModeSet
    gpio.o(i.GPIOPinTypeTrace) refers to gpio.o(i.GPIOPadConfigSet) for GPIOPadConfigSet
    gpio.o(i.GPIOPinTypeUART) refers to gpio.o(i.GPIODirModeSet) for GPIODirModeSet
    gpio.o(i.GPIOPinTypeUART) refers to gpio.o(i.GPIOPadConfigSet) for GPIOPadConfigSet
    gpio.o(i.GPIOPinTypeUSBAnalog) refers to gpio.o(i.GPIODirModeSet) for GPIODirModeSet
    gpio.o(i.GPIOPinTypeUSBAnalog) refers to gpio.o(i.GPIOPadConfigSet) for GPIOPadConfigSet
    gpio.o(i.GPIOPinTypeUSBDigital) refers to gpio.o(i.GPIODirModeSet) for GPIODirModeSet
    gpio.o(i.GPIOPinTypeUSBDigital) refers to gpio.o(i.GPIOPadConfigSet) for GPIOPadConfigSet
    gpio.o(i.GPIOPinTypeWakeHigh) refers to gpio.o(i.GPIODirModeSet) for GPIODirModeSet
    gpio.o(i.GPIOPinTypeWakeHigh) refers to gpio.o(i.GPIOPadConfigSet) for GPIOPadConfigSet
    gpio.o(i.GPIOPinTypeWakeLow) refers to gpio.o(i.GPIODirModeSet) for GPIODirModeSet
    gpio.o(i.GPIOPinTypeWakeLow) refers to gpio.o(i.GPIOPadConfigSet) for GPIOPadConfigSet
    gpio.o(i._GPIOIntNumberGet) refers to gpio.o(.constdata) for .constdata
    i2c.o(i.I2CIntRegister) refers to interrupt.o(i.IntRegister) for IntRegister
    i2c.o(i.I2CIntRegister) refers to interrupt.o(i.IntEnable) for IntEnable
    i2c.o(i.I2CIntRegister) refers to i2c.o(.constdata) for .constdata
    i2c.o(i.I2CIntUnregister) refers to interrupt.o(i.IntDisable) for IntDisable
    i2c.o(i.I2CIntUnregister) refers to interrupt.o(i.IntUnregister) for IntUnregister
    i2c.o(i.I2CIntUnregister) refers to i2c.o(.constdata) for .constdata
    interrupt.o(i.IntDisable) refers to interrupt.o(.constdata) for .constdata
    interrupt.o(i.IntEnable) refers to interrupt.o(.constdata) for .constdata
    interrupt.o(i.IntIsEnabled) refers to interrupt.o(.constdata) for .constdata
    interrupt.o(i.IntMasterDisable) refers to cpu.o(.emb_text) for CPUcpsid
    interrupt.o(i.IntMasterEnable) refers to cpu.o(.emb_text) for CPUcpsie
    interrupt.o(i.IntPendClear) refers to interrupt.o(.constdata) for .constdata
    interrupt.o(i.IntPendSet) refers to interrupt.o(.constdata) for .constdata
    interrupt.o(i.IntPriorityGet) refers to interrupt.o(.constdata) for .constdata
    interrupt.o(i.IntPriorityGroupingGet) refers to interrupt.o(.constdata) for .constdata
    interrupt.o(i.IntPriorityGroupingSet) refers to interrupt.o(.constdata) for .constdata
    interrupt.o(i.IntPriorityMaskGet) refers to cpu.o(.emb_text) for CPUbasepriGet
    interrupt.o(i.IntPriorityMaskSet) refers to cpu.o(.emb_text) for CPUbasepriSet
    interrupt.o(i.IntPrioritySet) refers to interrupt.o(.constdata) for .constdata
    interrupt.o(i.IntRegister) refers to interrupt.o(vtable) for vtable
    interrupt.o(i.IntUnregister) refers to interrupt.o(i._IntDefaultHandler) for _IntDefaultHandler
    interrupt.o(i.IntUnregister) refers to interrupt.o(vtable) for vtable
    pwm.o(i.PWMFaultIntRegister) refers to interrupt.o(i.IntRegister) for IntRegister
    pwm.o(i.PWMFaultIntRegister) refers to interrupt.o(i.IntEnable) for IntEnable
    pwm.o(i.PWMFaultIntUnregister) refers to interrupt.o(i.IntDisable) for IntDisable
    pwm.o(i.PWMFaultIntUnregister) refers to interrupt.o(i.IntUnregister) for IntUnregister
    pwm.o(i.PWMGenIntRegister) refers to pwm.o(i._PWMGenIntNumberGet) for _PWMGenIntNumberGet
    pwm.o(i.PWMGenIntRegister) refers to interrupt.o(i.IntRegister) for IntRegister
    pwm.o(i.PWMGenIntRegister) refers to interrupt.o(i.IntEnable) for IntEnable
    pwm.o(i.PWMGenIntUnregister) refers to pwm.o(i._PWMGenIntNumberGet) for _PWMGenIntNumberGet
    pwm.o(i.PWMGenIntUnregister) refers to interrupt.o(i.IntDisable) for IntDisable
    pwm.o(i.PWMGenIntUnregister) refers to interrupt.o(i.IntUnregister) for IntUnregister
    sysctl.o(i.SysCtlClockFreqSet) refers to sysctl.o(.constdata) for .constdata
    sysctl.o(i.SysCtlClockGet) refers to sysctl.o(.constdata) for .constdata
    sysctl.o(i.SysCtlClockSet) refers to sysctl.o(.emb_text) for SysCtlDelay
    sysctl.o(i.SysCtlDeepSleep) refers to cpu.o(.emb_text) for CPUwfi
    sysctl.o(i.SysCtlIntRegister) refers to interrupt.o(i.IntRegister) for IntRegister
    sysctl.o(i.SysCtlIntRegister) refers to interrupt.o(i.IntEnable) for IntEnable
    sysctl.o(i.SysCtlIntUnregister) refers to interrupt.o(i.IntDisable) for IntDisable
    sysctl.o(i.SysCtlIntUnregister) refers to interrupt.o(i.IntUnregister) for IntUnregister
    sysctl.o(i.SysCtlSleep) refers to cpu.o(.emb_text) for CPUwfi
    sysctl.o(i.SysCtlVCOGet) refers to sysctl.o(.constdata) for .constdata
    timer.o(i.TimerIntRegister) refers to interrupt.o(i.IntRegister) for IntRegister
    timer.o(i.TimerIntRegister) refers to interrupt.o(i.IntEnable) for IntEnable
    timer.o(i.TimerIntRegister) refers to timer.o(.constdata) for .constdata
    timer.o(i.TimerIntUnregister) refers to interrupt.o(i.IntDisable) for IntDisable
    timer.o(i.TimerIntUnregister) refers to interrupt.o(i.IntUnregister) for IntUnregister
    timer.o(i.TimerIntUnregister) refers to timer.o(.constdata) for .constdata
    context.o(i.GrContextInit) refers to context.o(.data) for .data
    context.o(i.GrContextInit) refers to string.o(i.GrDefaultStringRenderer) for GrDefaultStringRenderer
    context.o(i.GrContextInit) refers to context.o(.constdata) for .constdata
    context.o(i.GrLibInit) refers to context.o(.data) for .data
    context.o(.constdata) refers to charmap.o(i.GrMapISO8859_1_Unicode) for GrMapISO8859_1_Unicode
    fontfixed6x8.o(.constdata) refers to fontfixed6x8.o(.constdata) for g_pui8FontFixed6x8Data
    rectangle.o(i.GrRectDraw) refers to line.o(i.GrLineDrawH) for GrLineDrawH
    rectangle.o(i.GrRectDraw) refers to line.o(i.GrLineDrawV) for GrLineDrawV
    string.o(i.GrCodepageMapTableSet) refers to string.o(i.UpdateContextCharMapping) for UpdateContextCharMapping
    string.o(i.GrContextFontSet) refers to string.o(i.UpdateContextCharMapping) for UpdateContextCharMapping
    string.o(i.GrDefaultStringRenderer) refers to string.o(i.GrFontGlyphDataGet) for GrFontGlyphDataGet
    string.o(i.GrDefaultStringRenderer) refers to string.o(i.GrFontGlyphRender) for GrFontGlyphRender
    string.o(i.GrStringCodepageSet) refers to string.o(i.UpdateContextCharMapping) for UpdateContextCharMapping
    string.o(i.GrStringGet) refers to string.o(.data) for .data
    string.o(i.GrStringLanguageSet) refers to string.o(.data) for .data
    string.o(i.GrStringTableSet) refers to string.o(.data) for .data
    string.o(i.GrStringWidthGet) refers to string.o(i.GrFontGlyphDataGet) for GrFontGlyphDataGet
    rt_cmsis.o(i.isrMessageGet) refers to rt_mailbox.o(i.isr_mbx_receive) for isr_mbx_receive
    rt_cmsis.o(i.isrMessagePut) refers to rt_mailbox.o(i.rt_mbx_check) for rt_mbx_check
    rt_cmsis.o(i.isrMessagePut) refers to rt_mailbox.o(i.isr_mbx_send) for isr_mbx_send
    rt_cmsis.o(i.isrSemaphoreRelease) refers to rt_cmsis.o(i.rt_id2obj) for rt_id2obj
    rt_cmsis.o(i.isrSemaphoreRelease) refers to rt_semaphore.o(i.isr_sem_send) for isr_sem_send
    rt_cmsis.o(i.isrSignalSet) refers to rt_cmsis.o(i.rt_tid2ptcb) for rt_tid2ptcb
    rt_cmsis.o(i.isrSignalSet) refers to rt_event.o(i.isr_evt_set) for isr_evt_set
    rt_cmsis.o(i.osDelay) refers to rt_cmsis.o(i.svcDelay) for svcDelay
    rt_cmsis.o(i.osKernelInitialize) refers to rt_cmsis.o(i.svcKernelInitialize) for svcKernelInitialize
    rt_cmsis.o(i.osKernelRunning) refers to rt_cmsis.o(i.svcKernelRunning) for svcKernelRunning
    rt_cmsis.o(i.osKernelRunning) refers to rt_cmsis.o(.data) for .data
    rt_cmsis.o(i.osKernelStart) refers to rtx_conf_cm.o(.constdata) for os_flags
    rt_cmsis.o(i.osKernelStart) refers to rt_cmsis.o(i.svcKernelStart) for svcKernelStart
    rt_cmsis.o(i.osKernelSysTick) refers to rt_cmsis.o(i.svcKernelSysTick) for svcKernelSysTick
    rt_cmsis.o(i.osMailAlloc) refers to rt_cmsis.o(i.sysMailAlloc) for sysMailAlloc
    rt_cmsis.o(i.osMailCAlloc) refers to rt_cmsis.o(i.sysMailAlloc) for sysMailAlloc
    rt_cmsis.o(i.osMailCAlloc) refers to rt_cmsis.o(i.rt_clr_box) for rt_clr_box
    rt_cmsis.o(i.osMailCreate) refers to rt_cmsis.o(i.svcMailCreate) for svcMailCreate
    rt_cmsis.o(i.osMailCreate) refers to rt_cmsis.o(.data) for .data
    rt_cmsis.o(i.osMailFree) refers to rt_cmsis.o(i.sysMailFree) for sysMailFree
    rt_cmsis.o(i.osMailGet) refers to rt_cmsis.o(i.osMessageGet) for osMessageGet
    rt_cmsis.o(i.osMailPut) refers to rt_cmsis.o(i.osMessagePut) for osMessagePut
    rt_cmsis.o(i.osMessageCreate) refers to rt_cmsis.o(i.svcMessageCreate) for svcMessageCreate
    rt_cmsis.o(i.osMessageCreate) refers to rt_cmsis.o(.data) for .data
    rt_cmsis.o(i.osMessageGet) refers to rt_cmsis.o(i.isrMessageGet) for isrMessageGet
    rt_cmsis.o(i.osMessageGet) refers to rt_cmsis.o(i.svcMessageGet) for svcMessageGet
    rt_cmsis.o(i.osMessagePut) refers to rt_cmsis.o(i.isrMessagePut) for isrMessagePut
    rt_cmsis.o(i.osMessagePut) refers to rt_cmsis.o(i.svcMessagePut) for svcMessagePut
    rt_cmsis.o(i.osMutexCreate) refers to rt_cmsis.o(i.svcMutexCreate) for svcMutexCreate
    rt_cmsis.o(i.osMutexCreate) refers to rt_cmsis.o(.data) for .data
    rt_cmsis.o(i.osMutexDelete) refers to rt_cmsis.o(i.svcMutexDelete) for svcMutexDelete
    rt_cmsis.o(i.osMutexRelease) refers to rt_cmsis.o(i.svcMutexRelease) for svcMutexRelease
    rt_cmsis.o(i.osMutexWait) refers to rt_cmsis.o(i.svcMutexWait) for svcMutexWait
    rt_cmsis.o(i.osPoolAlloc) refers to rt_cmsis.o(i.sysPoolAlloc) for sysPoolAlloc
    rt_cmsis.o(i.osPoolCAlloc) refers to rt_cmsis.o(i.rt_clr_box) for rt_clr_box
    rt_cmsis.o(i.osPoolCAlloc) refers to rt_cmsis.o(i.sysPoolAlloc) for sysPoolAlloc
    rt_cmsis.o(i.osPoolCreate) refers to rt_cmsis.o(i.svcPoolCreate) for svcPoolCreate
    rt_cmsis.o(i.osPoolCreate) refers to rt_cmsis.o(.data) for .data
    rt_cmsis.o(i.osPoolFree) refers to rt_cmsis.o(i.sysPoolFree) for sysPoolFree
    rt_cmsis.o(i.osSemaphoreCreate) refers to rt_cmsis.o(i.svcSemaphoreCreate) for svcSemaphoreCreate
    rt_cmsis.o(i.osSemaphoreCreate) refers to rt_cmsis.o(.data) for .data
    rt_cmsis.o(i.osSemaphoreDelete) refers to rt_cmsis.o(i.svcSemaphoreDelete) for svcSemaphoreDelete
    rt_cmsis.o(i.osSemaphoreRelease) refers to rt_cmsis.o(i.isrSemaphoreRelease) for isrSemaphoreRelease
    rt_cmsis.o(i.osSemaphoreRelease) refers to rt_cmsis.o(i.svcSemaphoreRelease) for svcSemaphoreRelease
    rt_cmsis.o(i.osSemaphoreWait) refers to rt_cmsis.o(i.svcSemaphoreWait) for svcSemaphoreWait
    rt_cmsis.o(i.osSignalClear) refers to rt_cmsis.o(i.svcSignalClear) for svcSignalClear
    rt_cmsis.o(i.osSignalSet) refers to rt_cmsis.o(i.isrSignalSet) for isrSignalSet
    rt_cmsis.o(i.osSignalSet) refers to rt_cmsis.o(i.svcSignalSet) for svcSignalSet
    rt_cmsis.o(i.osSignalWait) refers to rt_cmsis.o(i.svcSignalWait) for svcSignalWait
    rt_cmsis.o(i.osThreadCreate) refers to rt_cmsis.o(i.svcThreadCreate) for svcThreadCreate
    rt_cmsis.o(i.osThreadCreate) refers to rt_cmsis.o(.data) for .data
    rt_cmsis.o(i.osThreadExit) refers to rt_cmsis.o(i.svcThreadGetId) for svcThreadGetId
    rt_cmsis.o(i.osThreadExit) refers to rt_cmsis.o(i.svcThreadTerminate) for svcThreadTerminate
    rt_cmsis.o(i.osThreadGetId) refers to rt_cmsis.o(i.svcThreadGetId) for svcThreadGetId
    rt_cmsis.o(i.osThreadGetPriority) refers to rt_cmsis.o(i.svcThreadGetPriority) for svcThreadGetPriority
    rt_cmsis.o(i.osThreadSetPriority) refers to rt_cmsis.o(i.svcThreadSetPriority) for svcThreadSetPriority
    rt_cmsis.o(i.osThreadTerminate) refers to rt_cmsis.o(i.svcThreadTerminate) for svcThreadTerminate
    rt_cmsis.o(i.osThreadYield) refers to rt_cmsis.o(i.svcThreadYield) for svcThreadYield
    rt_cmsis.o(i.osTimerCall) refers to rt_cmsis.o(i.svcTimerCall) for svcTimerCall
    rt_cmsis.o(i.osTimerCreate) refers to rt_cmsis.o(i.svcTimerCreate) for svcTimerCreate
    rt_cmsis.o(i.osTimerCreate) refers to rt_cmsis.o(.data) for .data
    rt_cmsis.o(i.osTimerDelete) refers to rt_cmsis.o(i.svcTimerDelete) for svcTimerDelete
    rt_cmsis.o(i.osTimerStart) refers to rt_cmsis.o(i.svcTimerStart) for svcTimerStart
    rt_cmsis.o(i.osTimerStop) refers to rt_cmsis.o(i.svcTimerStop) for svcTimerStop
    rt_cmsis.o(i.osTimerThread) refers to rt_cmsis.o(i.osMessageGet) for osMessageGet
    rt_cmsis.o(i.osTimerThread) refers to rt_cmsis.o(i.osTimerCall) for osTimerCall
    rt_cmsis.o(i.osTimerThread) refers to rtx_conf_cm.o(.data) for osMessageQId_osTimerMessageQ
    rt_cmsis.o(i.os_resume) refers to rt_system.o(i.rt_resume) for rt_resume
    rt_cmsis.o(i.os_suspend) refers to rt_system.o(i.rt_suspend) for rt_suspend
    rt_cmsis.o(i.rt_ms2tick) refers to rtx_conf_cm.o(.constdata) for os_clockrate
    rt_cmsis.o(i.rt_timer_insert) refers to rt_cmsis.o(.data) for .data
    rt_cmsis.o(i.rt_timer_remove) refers to rt_cmsis.o(.data) for .data
    rt_cmsis.o(i.svcDelay) refers to rt_cmsis.o(i.rt_ms2tick) for rt_ms2tick
    rt_cmsis.o(i.svcDelay) refers to rt_time.o(i.rt_dly_wait) for rt_dly_wait
    rt_cmsis.o(i.svcKernelInitialize) refers to rt_memory.o(i.rt_init_mem) for rt_init_mem
    rt_cmsis.o(i.svcKernelInitialize) refers to rt_task.o(i.rt_sys_init) for rt_sys_init
    rt_cmsis.o(i.svcKernelInitialize) refers to rt_cmsis.o(i.svcMessageCreate) for svcMessageCreate
    rt_cmsis.o(i.svcKernelInitialize) refers to rt_cmsis.o(i.svcThreadCreate) for svcThreadCreate
    rt_cmsis.o(i.svcKernelInitialize) refers to rt_cmsis.o(.data) for .data
    rt_cmsis.o(i.svcKernelInitialize) refers to rtx_conf_cm.o(.bss) for os_stack_mem
    rt_cmsis.o(i.svcKernelInitialize) refers to rtx_conf_cm.o(.constdata) for os_stack_sz
    rt_cmsis.o(i.svcKernelInitialize) refers to rt_task.o(.data) for os_tsk
    rt_cmsis.o(i.svcKernelInitialize) refers to rtx_conf_cm.o(.data) for osMessageQId_osTimerMessageQ
    rt_cmsis.o(i.svcKernelRunning) refers to rt_cmsis.o(.data) for .data
    rt_cmsis.o(i.svcKernelStart) refers to rt_task.o(i.rt_tsk_prio) for rt_tsk_prio
    rt_cmsis.o(i.svcKernelStart) refers to rt_task.o(i.rt_sys_start) for rt_sys_start
    rt_cmsis.o(i.svcKernelStart) refers to rt_cmsis.o(.data) for .data
    rt_cmsis.o(i.svcKernelStart) refers to rt_task.o(.data) for os_tsk
    rt_cmsis.o(i.svcKernelSysTick) refers to rt_system.o(i.os_tick_val) for os_tick_val
    rt_cmsis.o(i.svcKernelSysTick) refers to rt_system.o(i.os_tick_ovf) for os_tick_ovf
    rt_cmsis.o(i.svcKernelSysTick) refers to rtx_conf_cm.o(.constdata) for os_trv
    rt_cmsis.o(i.svcKernelSysTick) refers to rt_time.o(.data) for os_time
    rt_cmsis.o(i.svcMailCreate) refers to rt_membox.o(i._init_box) for _init_box
    rt_cmsis.o(i.svcMailCreate) refers to rt_mailbox.o(i.rt_mbx_init) for rt_mbx_init
    rt_cmsis.o(i.svcMessageCreate) refers to rt_mailbox.o(i.rt_mbx_init) for rt_mbx_init
    rt_cmsis.o(i.svcMessageGet) refers to rt_cmsis.o(i.rt_ms2tick) for rt_ms2tick
    rt_cmsis.o(i.svcMessageGet) refers to rt_mailbox.o(i.rt_mbx_wait) for rt_mbx_wait
    rt_cmsis.o(i.svcMessagePut) refers to rt_cmsis.o(i.rt_ms2tick) for rt_ms2tick
    rt_cmsis.o(i.svcMessagePut) refers to rt_mailbox.o(i.rt_mbx_send) for rt_mbx_send
    rt_cmsis.o(i.svcMutexCreate) refers to rt_mutex.o(i.rt_mut_init) for rt_mut_init
    rt_cmsis.o(i.svcMutexDelete) refers to rt_cmsis.o(i.rt_id2obj) for rt_id2obj
    rt_cmsis.o(i.svcMutexDelete) refers to rt_mutex.o(i.rt_mut_delete) for rt_mut_delete
    rt_cmsis.o(i.svcMutexRelease) refers to rt_cmsis.o(i.rt_id2obj) for rt_id2obj
    rt_cmsis.o(i.svcMutexRelease) refers to rt_mutex.o(i.rt_mut_release) for rt_mut_release
    rt_cmsis.o(i.svcMutexWait) refers to rt_cmsis.o(i.rt_id2obj) for rt_id2obj
    rt_cmsis.o(i.svcMutexWait) refers to rt_cmsis.o(i.rt_ms2tick) for rt_ms2tick
    rt_cmsis.o(i.svcMutexWait) refers to rt_mutex.o(i.rt_mut_wait) for rt_mut_wait
    rt_cmsis.o(i.svcPoolCreate) refers to rt_membox.o(i._init_box) for _init_box
    rt_cmsis.o(i.svcSemaphoreCreate) refers to rt_semaphore.o(i.rt_sem_init) for rt_sem_init
    rt_cmsis.o(i.svcSemaphoreDelete) refers to rt_cmsis.o(i.rt_id2obj) for rt_id2obj
    rt_cmsis.o(i.svcSemaphoreDelete) refers to rt_semaphore.o(i.rt_sem_delete) for rt_sem_delete
    rt_cmsis.o(i.svcSemaphoreRelease) refers to rt_cmsis.o(i.rt_id2obj) for rt_id2obj
    rt_cmsis.o(i.svcSemaphoreRelease) refers to rt_semaphore.o(i.rt_sem_send) for rt_sem_send
    rt_cmsis.o(i.svcSemaphoreWait) refers to rt_cmsis.o(i.rt_id2obj) for rt_id2obj
    rt_cmsis.o(i.svcSemaphoreWait) refers to rt_cmsis.o(i.rt_ms2tick) for rt_ms2tick
    rt_cmsis.o(i.svcSemaphoreWait) refers to rt_semaphore.o(i.rt_sem_wait) for rt_sem_wait
    rt_cmsis.o(i.svcSignalClear) refers to rt_cmsis.o(i.rt_tid2ptcb) for rt_tid2ptcb
    rt_cmsis.o(i.svcSignalClear) refers to rt_event.o(i.rt_evt_clr) for rt_evt_clr
    rt_cmsis.o(i.svcSignalSet) refers to rt_cmsis.o(i.rt_tid2ptcb) for rt_tid2ptcb
    rt_cmsis.o(i.svcSignalSet) refers to rt_event.o(i.rt_evt_set) for rt_evt_set
    rt_cmsis.o(i.svcSignalWait) refers to rt_cmsis.o(i.rt_ms2tick) for rt_ms2tick
    rt_cmsis.o(i.svcSignalWait) refers to rt_event.o(i.rt_evt_wait) for rt_evt_wait
    rt_cmsis.o(i.svcSignalWait) refers to rt_task.o(.data) for os_tsk
    rt_cmsis.o(i.svcThreadCreate) refers to rt_memory.o(i.rt_alloc_mem) for rt_alloc_mem
    rt_cmsis.o(i.svcThreadCreate) refers to rt_task.o(i.rt_tsk_create) for rt_tsk_create
    rt_cmsis.o(i.svcThreadCreate) refers to rt_memory.o(i.rt_free_mem) for rt_free_mem
    rt_cmsis.o(i.svcThreadCreate) refers to rtx_conf_cm.o(.bss) for os_stack_mem
    rt_cmsis.o(i.svcThreadCreate) refers to rt_cmsis.o(i.osThreadExit) for osThreadExit
    rt_cmsis.o(i.svcThreadGetId) refers to rt_task.o(i.rt_tsk_self) for rt_tsk_self
    rt_cmsis.o(i.svcThreadGetId) refers to rtx_conf_cm.o(.bss) for os_active_TCB
    rt_cmsis.o(i.svcThreadGetPriority) refers to rt_cmsis.o(i.rt_tid2ptcb) for rt_tid2ptcb
    rt_cmsis.o(i.svcThreadSetPriority) refers to rt_cmsis.o(i.rt_tid2ptcb) for rt_tid2ptcb
    rt_cmsis.o(i.svcThreadSetPriority) refers to rt_task.o(i.rt_tsk_prio) for rt_tsk_prio
    rt_cmsis.o(i.svcThreadTerminate) refers to rt_cmsis.o(i.rt_tid2ptcb) for rt_tid2ptcb
    rt_cmsis.o(i.svcThreadTerminate) refers to rt_task.o(i.rt_tsk_delete) for rt_tsk_delete
    rt_cmsis.o(i.svcThreadTerminate) refers to rt_memory.o(i.rt_free_mem) for rt_free_mem
    rt_cmsis.o(i.svcThreadTerminate) refers to rtx_conf_cm.o(.bss) for os_stack_mem
    rt_cmsis.o(i.svcThreadYield) refers to rt_task.o(i.rt_tsk_pass) for rt_tsk_pass
    rt_cmsis.o(i.svcTimerCall) refers to rt_cmsis.o(i.rt_id2obj) for rt_id2obj
    rt_cmsis.o(i.svcTimerCreate) refers to rtx_conf_cm.o(.data) for osThreadId_osTimerThread
    rt_cmsis.o(i.svcTimerDelete) refers to rt_cmsis.o(i.rt_id2obj) for rt_id2obj
    rt_cmsis.o(i.svcTimerDelete) refers to rt_cmsis.o(i.rt_timer_remove) for rt_timer_remove
    rt_cmsis.o(i.svcTimerStart) refers to rt_cmsis.o(i.rt_id2obj) for rt_id2obj
    rt_cmsis.o(i.svcTimerStart) refers to lludivv7m.o(.text) for __aeabi_uldivmod
    rt_cmsis.o(i.svcTimerStart) refers to rt_cmsis.o(i.rt_timer_remove) for rt_timer_remove
    rt_cmsis.o(i.svcTimerStart) refers to rt_cmsis.o(i.rt_timer_insert) for rt_timer_insert
    rt_cmsis.o(i.svcTimerStart) refers to rtx_conf_cm.o(.constdata) for os_clockrate
    rt_cmsis.o(i.svcTimerStop) refers to rt_cmsis.o(i.rt_id2obj) for rt_id2obj
    rt_cmsis.o(i.svcTimerStop) refers to rt_cmsis.o(i.rt_timer_remove) for rt_timer_remove
    rt_cmsis.o(i.sysMailAlloc) refers to rt_membox.o(i.rt_alloc_box) for rt_alloc_box
    rt_cmsis.o(i.sysMailAlloc) refers to rt_list.o(i.rt_put_prio) for rt_put_prio
    rt_cmsis.o(i.sysMailAlloc) refers to rt_cmsis.o(i.rt_ms2tick) for rt_ms2tick
    rt_cmsis.o(i.sysMailAlloc) refers to rt_task.o(i.rt_block) for rt_block
    rt_cmsis.o(i.sysMailAlloc) refers to rt_task.o(.data) for os_tsk
    rt_cmsis.o(i.sysMailFree) refers to rt_membox.o(i.rt_free_box) for rt_free_box
    rt_cmsis.o(i.sysMailFree) refers to rt_list.o(i.rt_psq_enq) for rt_psq_enq
    rt_cmsis.o(i.sysMailFree) refers to rt_system.o(i.rt_psh_req) for rt_psh_req
    rt_cmsis.o(i.sysMailFree) refers to rt_membox.o(i.rt_alloc_box) for rt_alloc_box
    rt_cmsis.o(i.sysMailFree) refers to rt_list.o(i.rt_get_first) for rt_get_first
    rt_cmsis.o(i.sysMailFree) refers to hal_cm.o(i.rt_ret_val) for rt_ret_val
    rt_cmsis.o(i.sysMailFree) refers to rt_list.o(i.rt_rmv_dly) for rt_rmv_dly
    rt_cmsis.o(i.sysMailFree) refers to rt_task.o(i.rt_dispatch) for rt_dispatch
    rt_cmsis.o(i.sysPoolAlloc) refers to rt_membox.o(i.rt_alloc_box) for rt_alloc_box
    rt_cmsis.o(i.sysPoolFree) refers to rt_membox.o(i.rt_free_box) for rt_free_box
    rt_cmsis.o(i.sysTimerTick) refers to rt_cmsis.o(i.isrMessagePut) for isrMessagePut
    rt_cmsis.o(i.sysTimerTick) refers to rtx_conf_cm.o(.text) for os_error
    rt_cmsis.o(i.sysTimerTick) refers to rt_cmsis.o(i.rt_timer_insert) for rt_timer_insert
    rt_cmsis.o(i.sysTimerTick) refers to rt_cmsis.o(.data) for .data
    rt_cmsis.o(i.sysTimerTick) refers to rtx_conf_cm.o(.data) for osMessageQId_osTimerMessageQ
    rt_cmsis.o(i.sysUserTimerUpdate) refers to rt_cmsis.o(i.sysTimerTick) for sysTimerTick
    rt_cmsis.o(i.sysUserTimerUpdate) refers to rt_cmsis.o(.data) for .data
    rt_cmsis.o(i.sysUserTimerWakeupTime) refers to rt_cmsis.o(.data) for .data
    rt_task.o(i.rt_block) refers to rt_list.o(i.rt_put_dly) for rt_put_dly
    rt_task.o(i.rt_block) refers to rt_list.o(i.rt_get_first) for rt_get_first
    rt_task.o(i.rt_block) refers to rt_task.o(i.rt_switch_req) for rt_switch_req
    rt_task.o(i.rt_block) refers to rt_task.o(.data) for .data
    rt_task.o(i.rt_block) refers to rt_list.o(.bss) for os_rdy
    rt_task.o(i.rt_dispatch) refers to rt_list.o(i.rt_put_rdy_first) for rt_put_rdy_first
    rt_task.o(i.rt_dispatch) refers to rt_task.o(i.rt_switch_req) for rt_switch_req
    rt_task.o(i.rt_dispatch) refers to rt_list.o(i.rt_get_first) for rt_get_first
    rt_task.o(i.rt_dispatch) refers to rt_list.o(i.rt_put_prio) for rt_put_prio
    rt_task.o(i.rt_dispatch) refers to rt_task.o(.data) for .data
    rt_task.o(i.rt_dispatch) refers to rt_list.o(.bss) for os_rdy
    rt_task.o(i.rt_init_context) refers to rt_membox.o(i.rt_alloc_box) for rt_alloc_box
    rt_task.o(i.rt_init_context) refers to hal_cm.o(i.rt_init_stack) for rt_init_stack
    rt_task.o(i.rt_init_context) refers to rtx_conf_cm.o(.bss) for mp_stk
    rt_task.o(i.rt_switch_req) refers to hal_cm.o(i.dbg_task_switch) for dbg_task_switch
    rt_task.o(i.rt_switch_req) refers to rt_task.o(.data) for .data
    rt_task.o(i.rt_switch_req) refers to hal_cm.o(.data) for dbg_msg
    rt_task.o(i.rt_sys_init) refers to hal_cm.o(i.dbg_init) for dbg_init
    rt_task.o(i.rt_sys_init) refers to rt_membox.o(i._init_box) for _init_box
    rt_task.o(i.rt_sys_init) refers to rt_task.o(i.rt_init_context) for rt_init_context
    rt_task.o(i.rt_sys_init) refers to rtx_conf_cm.o(.text) for rt_init_robin
    rt_task.o(i.rt_sys_init) refers to rtx_conf_cm.o(.bss) for os_active_TCB
    rt_task.o(i.rt_sys_init) refers to rtx_conf_cm.o(.constdata) for os_maxtaskrun
    rt_task.o(i.rt_sys_init) refers to rtx_conf_cm.o(.data) for m_tmr
    rt_task.o(i.rt_sys_init) refers to rt_task.o(.bss) for .bss
    rt_task.o(i.rt_sys_init) refers to rt_list.o(.bss) for os_rdy
    rt_task.o(i.rt_sys_init) refers to rt_task.o(.data) for .data
    rt_task.o(i.rt_sys_start) refers to rt_system.o(i.os_tick_init) for os_tick_init
    rt_task.o(i.rt_sys_start) refers to rt_system.o(.data) for os_tick_irqn
    rt_task.o(i.rt_tsk_create) refers to rt_membox.o(i.rt_alloc_box) for rt_alloc_box
    rt_task.o(i.rt_tsk_create) refers to rt_task.o(i.rt_init_context) for rt_init_context
    rt_task.o(i.rt_tsk_create) refers to hal_cm.o(i.dbg_task_notify) for dbg_task_notify
    rt_task.o(i.rt_tsk_create) refers to rt_task.o(i.rt_dispatch) for rt_dispatch
    rt_task.o(i.rt_tsk_create) refers to rtx_conf_cm.o(.bss) for mp_tcb
    rt_task.o(i.rt_tsk_create) refers to rtx_conf_cm.o(.constdata) for os_maxtaskrun
    rt_task.o(i.rt_tsk_create) refers to hal_cm.o(.data) for dbg_msg
    rt_task.o(i.rt_tsk_delete) refers to hal_cm4.o(.emb_text) for rt_get_PSP
    rt_task.o(i.rt_tsk_delete) refers to rt_system.o(i.rt_stk_check) for rt_stk_check
    rt_task.o(i.rt_tsk_delete) refers to rt_list.o(i.rt_get_first) for rt_get_first
    rt_task.o(i.rt_tsk_delete) refers to hal_cm.o(i.rt_ret_val) for rt_ret_val
    rt_task.o(i.rt_tsk_delete) refers to rt_list.o(i.rt_rmv_dly) for rt_rmv_dly
    rt_task.o(i.rt_tsk_delete) refers to rt_list.o(i.rt_put_prio) for rt_put_prio
    rt_task.o(i.rt_tsk_delete) refers to rt_membox.o(i.rt_free_box) for rt_free_box
    rt_task.o(i.rt_tsk_delete) refers to hal_cm.o(i.dbg_task_notify) for dbg_task_notify
    rt_task.o(i.rt_tsk_delete) refers to rt_list.o(i.rt_rmv_list) for rt_rmv_list
    rt_task.o(i.rt_tsk_delete) refers to rt_task.o(i.rt_dispatch) for rt_dispatch
    rt_task.o(i.rt_tsk_delete) refers to hal_cm.o(.data) for dbg_msg
    rt_task.o(i.rt_tsk_delete) refers to rtx_conf_cm.o(.bss) for os_active_TCB
    rt_task.o(i.rt_tsk_delete) refers to rt_task.o(.data) for .data
    rt_task.o(i.rt_tsk_delete) refers to rt_list.o(.bss) for os_rdy
    rt_task.o(i.rt_tsk_delete) refers to rtx_conf_cm.o(.constdata) for os_maxtaskrun
    rt_task.o(i.rt_tsk_pass) refers to rt_list.o(i.rt_get_same_rdy_prio) for rt_get_same_rdy_prio
    rt_task.o(i.rt_tsk_pass) refers to rt_list.o(i.rt_put_prio) for rt_put_prio
    rt_task.o(i.rt_tsk_pass) refers to rt_task.o(i.rt_switch_req) for rt_switch_req
    rt_task.o(i.rt_tsk_pass) refers to rt_task.o(.data) for .data
    rt_task.o(i.rt_tsk_pass) refers to rt_list.o(.bss) for os_rdy
    rt_task.o(i.rt_tsk_prio) refers to rt_list.o(i.rt_put_prio) for rt_put_prio
    rt_task.o(i.rt_tsk_prio) refers to rt_list.o(i.rt_resort_prio) for rt_resort_prio
    rt_task.o(i.rt_tsk_prio) refers to rt_list.o(i.rt_get_first) for rt_get_first
    rt_task.o(i.rt_tsk_prio) refers to rt_task.o(i.rt_dispatch) for rt_dispatch
    rt_task.o(i.rt_tsk_prio) refers to rt_task.o(.data) for .data
    rt_task.o(i.rt_tsk_prio) refers to rtx_conf_cm.o(.constdata) for os_maxtaskrun
    rt_task.o(i.rt_tsk_prio) refers to rtx_conf_cm.o(.bss) for os_active_TCB
    rt_task.o(i.rt_tsk_prio) refers to rt_list.o(.bss) for os_rdy
    rt_task.o(i.rt_tsk_self) refers to rt_task.o(.data) for .data
    rt_mutex.o(i.rt_mut_delete) refers to rt_list.o(i.rt_resort_prio) for rt_resort_prio
    rt_mutex.o(i.rt_mut_delete) refers to rt_list.o(i.rt_get_first) for rt_get_first
    rt_mutex.o(i.rt_mut_delete) refers to hal_cm.o(i.rt_ret_val) for rt_ret_val
    rt_mutex.o(i.rt_mut_delete) refers to rt_list.o(i.rt_rmv_dly) for rt_rmv_dly
    rt_mutex.o(i.rt_mut_delete) refers to rt_list.o(i.rt_put_prio) for rt_put_prio
    rt_mutex.o(i.rt_mut_delete) refers to rt_task.o(i.rt_dispatch) for rt_dispatch
    rt_mutex.o(i.rt_mut_delete) refers to rt_task.o(.data) for os_tsk
    rt_mutex.o(i.rt_mut_delete) refers to rt_list.o(.bss) for os_rdy
    rt_mutex.o(i.rt_mut_release) refers to rt_list.o(i.rt_get_first) for rt_get_first
    rt_mutex.o(i.rt_mut_release) refers to hal_cm.o(i.rt_ret_val) for rt_ret_val
    rt_mutex.o(i.rt_mut_release) refers to rt_list.o(i.rt_rmv_dly) for rt_rmv_dly
    rt_mutex.o(i.rt_mut_release) refers to rt_list.o(i.rt_put_prio) for rt_put_prio
    rt_mutex.o(i.rt_mut_release) refers to rt_task.o(i.rt_dispatch) for rt_dispatch
    rt_mutex.o(i.rt_mut_release) refers to rt_task.o(.data) for os_tsk
    rt_mutex.o(i.rt_mut_release) refers to rt_list.o(.bss) for os_rdy
    rt_mutex.o(i.rt_mut_wait) refers to rt_list.o(i.rt_resort_prio) for rt_resort_prio
    rt_mutex.o(i.rt_mut_wait) refers to rt_list.o(i.rt_put_prio) for rt_put_prio
    rt_mutex.o(i.rt_mut_wait) refers to rt_task.o(i.rt_block) for rt_block
    rt_mutex.o(i.rt_mut_wait) refers to rt_task.o(.data) for os_tsk
    charmap.o(i.GrMapISO8859_10_Unicode) refers to charmap.o(.constdata) for .constdata
    charmap.o(i.GrMapISO8859_13_Unicode) refers to charmap.o(.constdata) for .constdata
    charmap.o(i.GrMapISO8859_14_Unicode) refers to charmap.o(.constdata) for .constdata
    charmap.o(i.GrMapISO8859_16_Unicode) refers to charmap.o(.constdata) for .constdata
    charmap.o(i.GrMapISO8859_2_Unicode) refers to charmap.o(.constdata) for .constdata
    charmap.o(i.GrMapISO8859_3_Unicode) refers to charmap.o(.constdata) for .constdata
    charmap.o(i.GrMapISO8859_4_Unicode) refers to charmap.o(.constdata) for .constdata
    charmap.o(i.GrMapISO8859_7_Unicode) refers to charmap.o(.constdata) for .constdata
    charmap.o(i.GrMapUTF16BE_Unicode) refers to charmap.o(i.GrMapUTF16_Unicode) for GrMapUTF16_Unicode
    charmap.o(i.GrMapUTF16LE_Unicode) refers to charmap.o(i.GrMapUTF16_Unicode) for GrMapUTF16_Unicode
    charmap.o(i.GrMapWIN1250_Unicode) refers to charmap.o(.constdata) for .constdata
    charmap.o(i.GrMapWIN1251_Unicode) refers to charmap.o(.constdata) for .constdata
    charmap.o(i.GrMapWIN1252_Unicode) refers to charmap.o(.constdata) for .constdata
    charmap.o(i.GrMapWIN1253_Unicode) refers to charmap.o(.constdata) for .constdata
    charmap.o(i.GrMapWIN1254_Unicode) refers to charmap.o(.constdata) for .constdata
    rt_system.o(i.os_tick_init) refers to rtx_conf_cm.o(.constdata) for os_trv
    rt_system.o(i.os_tick_val) refers to rtx_conf_cm.o(.constdata) for os_trv
    rt_system.o(i.rt_pop_req) refers to rt_list.o(i.rt_put_rdy_first) for rt_put_rdy_first
    rt_system.o(i.rt_pop_req) refers to rt_semaphore.o(i.rt_sem_psh) for rt_sem_psh
    rt_system.o(i.rt_pop_req) refers to rt_list.o(i.rt_get_first) for rt_get_first
    rt_system.o(i.rt_pop_req) refers to rt_task.o(i.rt_switch_req) for rt_switch_req
    rt_system.o(i.rt_pop_req) refers to rt_event.o(i.rt_evt_psh) for rt_evt_psh
    rt_system.o(i.rt_pop_req) refers to rt_mailbox.o(i.rt_mbx_psh) for rt_mbx_psh
    rt_system.o(i.rt_pop_req) refers to rt_task.o(.data) for os_tsk
    rt_system.o(i.rt_pop_req) refers to rtx_conf_cm.o(.bss) for os_fifo
    rt_system.o(i.rt_pop_req) refers to rt_list.o(.bss) for os_rdy
    rt_system.o(i.rt_psh_req) refers to rt_system.o(.data) for .data
    rt_system.o(i.rt_resume) refers to rt_list.o(i.rt_put_rdy_first) for rt_put_rdy_first
    rt_system.o(i.rt_resume) refers to rt_list.o(i.rt_dec_dly) for rt_dec_dly
    rt_system.o(i.rt_resume) refers to rt_cmsis.o(i.sysUserTimerUpdate) for sysUserTimerUpdate
    rt_system.o(i.rt_resume) refers to rt_list.o(i.rt_get_first) for rt_get_first
    rt_system.o(i.rt_resume) refers to rt_task.o(i.rt_switch_req) for rt_switch_req
    rt_system.o(i.rt_resume) refers to rt_system.o(i.rt_tsk_unlock) for rt_tsk_unlock
    rt_system.o(i.rt_resume) refers to rt_task.o(.data) for os_tsk
    rt_system.o(i.rt_resume) refers to rt_robin.o(.data) for os_robin
    rt_system.o(i.rt_resume) refers to rt_list.o(.bss) for os_dly
    rt_system.o(i.rt_resume) refers to rt_time.o(.data) for os_time
    rt_system.o(i.rt_stk_check) refers to rtx_conf_cm.o(.text) for os_error
    rt_system.o(i.rt_stk_check) refers to rt_task.o(.data) for os_tsk
    rt_system.o(i.rt_suspend) refers to rt_system.o(i.rt_tsk_lock) for rt_tsk_lock
    rt_system.o(i.rt_suspend) refers to rt_cmsis.o(i.sysUserTimerWakeupTime) for sysUserTimerWakeupTime
    rt_system.o(i.rt_suspend) refers to rt_list.o(.bss) for os_dly
    rt_system.o(i.rt_systick) refers to rt_list.o(i.rt_put_rdy_first) for rt_put_rdy_first
    rt_system.o(i.rt_systick) refers to rtx_conf_cm.o(.text) for rt_chk_robin
    rt_system.o(i.rt_systick) refers to rt_list.o(i.rt_dec_dly) for rt_dec_dly
    rt_system.o(i.rt_systick) refers to rt_cmsis.o(i.sysTimerTick) for sysTimerTick
    rt_system.o(i.rt_systick) refers to rt_list.o(i.rt_get_first) for rt_get_first
    rt_system.o(i.rt_systick) refers to rt_task.o(i.rt_switch_req) for rt_switch_req
    rt_system.o(i.rt_systick) refers to rt_task.o(.data) for os_tsk
    rt_system.o(i.rt_systick) refers to rt_time.o(.data) for os_time
    rt_system.o(i.rt_systick) refers to rt_list.o(.bss) for os_rdy
    rt_system.o(i.rt_tsk_lock) refers to rt_system.o(.data) for .data
    rt_system.o(i.rt_tsk_unlock) refers to rt_system.o(.data) for .data
    rt_event.o(i.isr_evt_set) refers to rt_list.o(i.rt_psq_enq) for rt_psq_enq
    rt_event.o(i.isr_evt_set) refers to rt_system.o(i.rt_psh_req) for rt_psh_req
    rt_event.o(i.isr_evt_set) refers to rtx_conf_cm.o(.bss) for os_active_TCB
    rt_event.o(i.rt_evt_clr) refers to rtx_conf_cm.o(.bss) for os_active_TCB
    rt_event.o(i.rt_evt_get) refers to rt_task.o(.data) for os_tsk
    rt_event.o(i.rt_evt_psh) refers to rt_list.o(i.rt_rmv_dly) for rt_rmv_dly
    rt_event.o(i.rt_evt_psh) refers to hal_cm.o(i.rt_ret_val2) for rt_ret_val2
    rt_event.o(i.rt_evt_psh) refers to rt_list.o(i.rt_put_prio) for rt_put_prio
    rt_event.o(i.rt_evt_psh) refers to rt_list.o(.bss) for os_rdy
    rt_event.o(i.rt_evt_set) refers to rt_list.o(i.rt_rmv_dly) for rt_rmv_dly
    rt_event.o(i.rt_evt_set) refers to hal_cm.o(i.rt_ret_val2) for rt_ret_val2
    rt_event.o(i.rt_evt_set) refers to rt_task.o(i.rt_dispatch) for rt_dispatch
    rt_event.o(i.rt_evt_set) refers to rtx_conf_cm.o(.bss) for os_active_TCB
    rt_event.o(i.rt_evt_wait) refers to rt_task.o(i.rt_block) for rt_block
    rt_event.o(i.rt_evt_wait) refers to rt_task.o(.data) for os_tsk
    rt_list.o(i.rt_dec_dly) refers to rt_list.o(i.rt_put_prio) for rt_put_prio
    rt_list.o(i.rt_dec_dly) refers to rt_list.o(.bss) for .bss
    rt_list.o(i.rt_dec_dly) refers to rt_time.o(.data) for os_time
    rt_list.o(i.rt_get_same_rdy_prio) refers to rt_list.o(.bss) for .bss
    rt_list.o(i.rt_get_same_rdy_prio) refers to rt_task.o(.data) for os_tsk
    rt_list.o(i.rt_psq_enq) refers to rtx_conf_cm.o(.text) for os_error
    rt_list.o(i.rt_psq_enq) refers to rtx_conf_cm.o(.bss) for os_fifo
    rt_list.o(i.rt_put_dly) refers to rt_list.o(.bss) for .bss
    rt_list.o(i.rt_put_rdy_first) refers to rt_list.o(.bss) for .bss
    rt_list.o(i.rt_resort_prio) refers to rt_list.o(i.rt_rmv_list) for rt_rmv_list
    rt_list.o(i.rt_resort_prio) refers to rt_list.o(i.rt_put_prio) for rt_put_prio
    rt_list.o(i.rt_resort_prio) refers to rt_list.o(.bss) for .bss
    rt_list.o(i.rt_rmv_list) refers to rt_list.o(.bss) for .bss
    rt_mailbox.o(i.isr_mbx_receive) refers to rt_list.o(i.rt_psq_enq) for rt_psq_enq
    rt_mailbox.o(i.isr_mbx_receive) refers to rt_system.o(i.rt_psh_req) for rt_psh_req
    rt_mailbox.o(i.isr_mbx_send) refers to rt_list.o(i.rt_psq_enq) for rt_psq_enq
    rt_mailbox.o(i.isr_mbx_send) refers to rt_system.o(i.rt_psh_req) for rt_psh_req
    rt_mailbox.o(i.rt_mbx_psh) refers to rt_membox.o(i.rt_alloc_box) for rt_alloc_box
    rt_mailbox.o(i.rt_mbx_psh) refers to rt_list.o(i.rt_get_first) for rt_get_first
    rt_mailbox.o(i.rt_mbx_psh) refers to hal_cm.o(i.rt_ret_val) for rt_ret_val
    rt_mailbox.o(i.rt_mbx_psh) refers to rt_list.o(i.rt_rmv_dly) for rt_rmv_dly
    rt_mailbox.o(i.rt_mbx_psh) refers to rt_list.o(i.rt_put_prio) for rt_put_prio
    rt_mailbox.o(i.rt_mbx_psh) refers to hal_cm.o(i.rt_ret_val2) for rt_ret_val2
    rt_mailbox.o(i.rt_mbx_psh) refers to rtx_conf_cm.o(.text) for os_error
    rt_mailbox.o(i.rt_mbx_psh) refers to rt_list.o(.bss) for os_rdy
    rt_mailbox.o(i.rt_mbx_send) refers to rt_list.o(i.rt_put_prio) for rt_put_prio
    rt_mailbox.o(i.rt_mbx_send) refers to rt_list.o(i.rt_get_first) for rt_get_first
    rt_mailbox.o(i.rt_mbx_send) refers to hal_cm.o(i.rt_ret_val2) for rt_ret_val2
    rt_mailbox.o(i.rt_mbx_send) refers to rt_list.o(i.rt_rmv_dly) for rt_rmv_dly
    rt_mailbox.o(i.rt_mbx_send) refers to rt_task.o(i.rt_dispatch) for rt_dispatch
    rt_mailbox.o(i.rt_mbx_send) refers to rt_task.o(i.rt_block) for rt_block
    rt_mailbox.o(i.rt_mbx_send) refers to rt_task.o(.data) for os_tsk
    rt_mailbox.o(i.rt_mbx_wait) refers to rt_list.o(i.rt_get_first) for rt_get_first
    rt_mailbox.o(i.rt_mbx_wait) refers to hal_cm.o(i.rt_ret_val) for rt_ret_val
    rt_mailbox.o(i.rt_mbx_wait) refers to rt_list.o(i.rt_rmv_dly) for rt_rmv_dly
    rt_mailbox.o(i.rt_mbx_wait) refers to rt_task.o(i.rt_dispatch) for rt_dispatch
    rt_mailbox.o(i.rt_mbx_wait) refers to rt_list.o(i.rt_put_prio) for rt_put_prio
    rt_mailbox.o(i.rt_mbx_wait) refers to rt_task.o(i.rt_block) for rt_block
    rt_mailbox.o(i.rt_mbx_wait) refers to rt_task.o(.data) for os_tsk
    rt_semaphore.o(i.isr_sem_send) refers to rt_list.o(i.rt_psq_enq) for rt_psq_enq
    rt_semaphore.o(i.isr_sem_send) refers to rt_system.o(i.rt_psh_req) for rt_psh_req
    rt_semaphore.o(i.rt_sem_delete) refers to rt_list.o(i.rt_get_first) for rt_get_first
    rt_semaphore.o(i.rt_sem_delete) refers to hal_cm.o(i.rt_ret_val) for rt_ret_val
    rt_semaphore.o(i.rt_sem_delete) refers to rt_list.o(i.rt_rmv_dly) for rt_rmv_dly
    rt_semaphore.o(i.rt_sem_delete) refers to rt_list.o(i.rt_put_prio) for rt_put_prio
    rt_semaphore.o(i.rt_sem_delete) refers to rt_task.o(i.rt_dispatch) for rt_dispatch
    rt_semaphore.o(i.rt_sem_delete) refers to rt_list.o(.bss) for os_rdy
    rt_semaphore.o(i.rt_sem_delete) refers to rt_task.o(.data) for os_tsk
    rt_semaphore.o(i.rt_sem_psh) refers to rt_list.o(i.rt_get_first) for rt_get_first
    rt_semaphore.o(i.rt_sem_psh) refers to rt_list.o(i.rt_rmv_dly) for rt_rmv_dly
    rt_semaphore.o(i.rt_sem_psh) refers to hal_cm.o(i.rt_ret_val) for rt_ret_val
    rt_semaphore.o(i.rt_sem_psh) refers to rt_list.o(i.rt_put_prio) for rt_put_prio
    rt_semaphore.o(i.rt_sem_psh) refers to rt_list.o(.bss) for os_rdy
    rt_semaphore.o(i.rt_sem_send) refers to rt_list.o(i.rt_get_first) for rt_get_first
    rt_semaphore.o(i.rt_sem_send) refers to hal_cm.o(i.rt_ret_val) for rt_ret_val
    rt_semaphore.o(i.rt_sem_send) refers to rt_list.o(i.rt_rmv_dly) for rt_rmv_dly
    rt_semaphore.o(i.rt_sem_send) refers to rt_task.o(i.rt_dispatch) for rt_dispatch
    rt_semaphore.o(i.rt_sem_wait) refers to rt_list.o(i.rt_put_prio) for rt_put_prio
    rt_semaphore.o(i.rt_sem_wait) refers to rt_task.o(i.rt_block) for rt_block
    rt_semaphore.o(i.rt_sem_wait) refers to rt_task.o(.data) for os_tsk
    rt_time.o(i.rt_dly_wait) refers to rt_task.o(i.rt_block) for rt_block
    rt_time.o(i.rt_itv_set) refers to rt_task.o(.data) for os_tsk
    rt_time.o(i.rt_itv_set) refers to rt_time.o(.data) for .data
    rt_time.o(i.rt_itv_wait) refers to rt_task.o(i.rt_block) for rt_block
    rt_time.o(i.rt_itv_wait) refers to rt_task.o(.data) for os_tsk
    rt_time.o(i.rt_itv_wait) refers to rt_time.o(.data) for .data
    rt_time.o(i.rt_time_get) refers to rt_time.o(.data) for .data
    rt_membox.o(i._calloc_box) refers to hal_cm4.o(.emb_text) for _alloc_box
    hal_cm.o(i.dbg_init) refers to hal_cm.o(.data) for .data
    hal_cm.o(i.rt_init_stack) refers to rtx_conf_cm.o(.constdata) for os_stackinfo
    hal_cm.o(i.rt_ret_val) refers to hal_cm.o(i.rt_ret_regs) for rt_ret_regs
    hal_cm.o(i.rt_ret_val2) refers to hal_cm.o(i.rt_ret_regs) for rt_ret_regs
    hal_cm4.o(.emb_text) refers to rtx_conf_cm.o(.constdata) for os_flags
    hal_cm4.o(.emb_text) refers to rt_membox.o(i.rt_alloc_box) for rt_alloc_box
    hal_cm4.o(.emb_text) refers to rt_membox.o(i.rt_free_box) for rt_free_box
    hal_cm4.o(.emb_text) refers to rt_system.o(i.rt_stk_check) for rt_stk_check
    hal_cm4.o(.emb_text) refers to rt_task.o(.data) for os_tsk
    hal_cm4.o(.emb_text) refers to svc_table.o(SVC_TABLE) for SVC_Count
    hal_cm4.o(.emb_text) refers to rt_system.o(i.rt_pop_req) for rt_pop_req
    hal_cm4.o(.emb_text) refers to rt_system.o(i.rt_systick) for rt_systick
    hal_cm4.o(.emb_text) refers to rt_system.o(i.os_tick_irqack) for os_tick_irqack
    rt_robin.o(i.rt_chk_robin) refers to rt_list.o(i.rt_get_first) for rt_get_first
    rt_robin.o(i.rt_chk_robin) refers to rt_list.o(i.rt_put_prio) for rt_put_prio
    rt_robin.o(i.rt_chk_robin) refers to rt_robin.o(.data) for .data
    rt_robin.o(i.rt_chk_robin) refers to rt_list.o(.bss) for os_rdy
    rt_robin.o(i.rt_chk_robin) refers to rt_time.o(.data) for os_time
    rt_robin.o(i.rt_init_robin) refers to rt_robin.o(.data) for .data
    rt_robin.o(i.rt_init_robin) refers to rtx_conf_cm.o(.constdata) for os_rrobin
    libspace.o(.text) refers to libspace.o(.bss) for __libspace_start
    llsdiv.o(.text) refers to lludivv7m.o(.text) for __aeabi_uldivmod
    exit.o(.text) refers to rtexit.o(.ARM.Collect$$rtexit$$00000000) for __rt_exit
    __main.o(!!!main) refers to __rtentry.o(.ARM.Collect$$rtentry$$00000000) for __rt_entry
    daddsub_clz.o(x$fpl$dadd) refers (Special) to usenofp.o(x$fpl$usenofp) for __I$use$fp
    daddsub_clz.o(x$fpl$dadd) refers to daddsub_clz.o(x$fpl$dsub) for _dsub1
    daddsub_clz.o(x$fpl$dadd) refers to dretinf.o(x$fpl$dretinf) for __fpl_dretinf
    daddsub_clz.o(x$fpl$dadd) refers to dnaninf.o(x$fpl$dnaninf) for __fpl_dnaninf
    daddsub_clz.o(x$fpl$drsb) refers (Special) to usenofp.o(x$fpl$usenofp) for __I$use$fp
    daddsub_clz.o(x$fpl$drsb) refers to daddsub_clz.o(x$fpl$dadd) for _dadd1
    daddsub_clz.o(x$fpl$drsb) refers to daddsub_clz.o(x$fpl$dsub) for _dsub1
    daddsub_clz.o(x$fpl$dsub) refers (Special) to usenofp.o(x$fpl$usenofp) for __I$use$fp
    daddsub_clz.o(x$fpl$dsub) refers to daddsub_clz.o(x$fpl$dadd) for _dadd1
    daddsub_clz.o(x$fpl$dsub) refers to dnaninf.o(x$fpl$dnaninf) for __fpl_dnaninf
    ddiv.o(x$fpl$drdiv) refers (Special) to usenofp.o(x$fpl$usenofp) for __I$use$fp
    ddiv.o(x$fpl$drdiv) refers to ddiv.o(x$fpl$ddiv) for ddiv_entry
    ddiv.o(x$fpl$ddiv) refers (Special) to usenofp.o(x$fpl$usenofp) for __I$use$fp
    ddiv.o(x$fpl$ddiv) refers to dretinf.o(x$fpl$dretinf) for __fpl_dretinf
    ddiv.o(x$fpl$ddiv) refers to dnaninf.o(x$fpl$dnaninf) for __fpl_dnaninf
    dfix.o(x$fpl$dfix) refers (Special) to usenofp.o(x$fpl$usenofp) for __I$use$fp
    dfix.o(x$fpl$dfix) refers to dnaninf.o(x$fpl$dnaninf) for __fpl_dnaninf
    dfix.o(x$fpl$dfixr) refers (Special) to usenofp.o(x$fpl$usenofp) for __I$use$fp
    dfix.o(x$fpl$dfixr) refers to dnaninf.o(x$fpl$dnaninf) for __fpl_dnaninf
    dflt_clz.o(x$fpl$dfltu) refers (Special) to usenofp.o(x$fpl$usenofp) for __I$use$fp
    dflt_clz.o(x$fpl$dflt) refers (Special) to usenofp.o(x$fpl$usenofp) for __I$use$fp
    dflt_clz.o(x$fpl$dfltn) refers (Special) to usenofp.o(x$fpl$usenofp) for __I$use$fp
    dmul.o(x$fpl$dmul) refers (Special) to usenofp.o(x$fpl$usenofp) for __I$use$fp
    dmul.o(x$fpl$dmul) refers to dretinf.o(x$fpl$dretinf) for __fpl_dretinf
    dmul.o(x$fpl$dmul) refers to dnaninf.o(x$fpl$dnaninf) for __fpl_dnaninf
    pow.o(i.__hardfp_pow) refers (Special) to usenofp.o(x$fpl$usenofp) for __I$use$fp
    pow.o(i.__hardfp_pow) refers to dunder.o(i.__mathlib_dbl_infnan2) for __mathlib_dbl_infnan2
    pow.o(i.__hardfp_pow) refers to _rserrno.o(.text) for __set_errno
    pow.o(i.__hardfp_pow) refers to dunder.o(i.__mathlib_dbl_divzero) for __mathlib_dbl_divzero
    pow.o(i.__hardfp_pow) refers to basic.o(x$fpl$basic) for __aeabi_dneg
    pow.o(i.__hardfp_pow) refers to dunder.o(i.__mathlib_dbl_overflow) for __mathlib_dbl_overflow
    pow.o(i.__hardfp_pow) refers to ddiv.o(x$fpl$ddiv) for __aeabi_ddiv
    pow.o(i.__hardfp_pow) refers to sqrt.o(i.sqrt) for sqrt
    pow.o(i.__hardfp_pow) refers to fabs.o(i.fabs) for fabs
    pow.o(i.__hardfp_pow) refers to dflt_clz.o(x$fpl$dflt) for __aeabi_i2d
    pow.o(i.__hardfp_pow) refers to dunder.o(i.__mathlib_dbl_invalid) for __mathlib_dbl_invalid
    pow.o(i.__hardfp_pow) refers to dmul.o(x$fpl$dmul) for __aeabi_dmul
    pow.o(i.__hardfp_pow) refers to dunder.o(i.__mathlib_dbl_underflow) for __mathlib_dbl_underflow
    pow.o(i.__hardfp_pow) refers to daddsub_clz.o(x$fpl$dsub) for __aeabi_dsub
    pow.o(i.__hardfp_pow) refers to daddsub_clz.o(x$fpl$drsb) for __aeabi_drsub
    pow.o(i.__hardfp_pow) refers to qnan.o(.constdata) for __mathlib_zero
    pow.o(i.__hardfp_pow) refers to daddsub_clz.o(x$fpl$dadd) for __aeabi_dadd
    pow.o(i.__hardfp_pow) refers to poly.o(i.__kernel_poly) for __kernel_poly
    pow.o(i.__hardfp_pow) refers to pow.o(.constdata) for .constdata
    pow.o(i.__hardfp_pow) refers to drleqf.o(x$fpl$drleqf) for __aeabi_cdrcmple
    pow.o(i.__hardfp_pow) refers to scalbn.o(x$fpl$scalbn) for __ARM_scalbn
    pow.o(i.__hardfp_pow) refers to fpclassify.o(i.__ARM_fpclassify) for __ARM_fpclassify
    pow.o(i.__softfp_pow) refers (Special) to usenofp.o(x$fpl$usenofp) for __I$use$fp
    pow.o(i.__softfp_pow) refers to pow.o(i.__hardfp_pow) for __hardfp_pow
    pow.o(i.pow) refers (Special) to usenofp.o(x$fpl$usenofp) for __I$use$fp
    pow.o(i.pow) refers to pow.o(i.__hardfp_pow) for __hardfp_pow
    pow.o(.constdata) refers (Special) to usenofp.o(x$fpl$usenofp) for __I$use$fp
    pow_x.o(i.____hardfp_pow$lsc) refers (Special) to usenofp.o(x$fpl$usenofp) for __I$use$fp
    pow_x.o(i.____hardfp_pow$lsc) refers to dunder.o(i.__mathlib_dbl_infnan2) for __mathlib_dbl_infnan2
    pow_x.o(i.____hardfp_pow$lsc) refers to _rserrno.o(.text) for __set_errno
    pow_x.o(i.____hardfp_pow$lsc) refers to basic.o(x$fpl$basic) for __aeabi_dneg
    pow_x.o(i.____hardfp_pow$lsc) refers to ddiv.o(x$fpl$ddiv) for __aeabi_ddiv
    pow_x.o(i.____hardfp_pow$lsc) refers to sqrt.o(i.sqrt) for sqrt
    pow_x.o(i.____hardfp_pow$lsc) refers to fabs.o(i.fabs) for fabs
    pow_x.o(i.____hardfp_pow$lsc) refers to dflt_clz.o(x$fpl$dflt) for __aeabi_i2d
    pow_x.o(i.____hardfp_pow$lsc) refers to dmul.o(x$fpl$dmul) for __aeabi_dmul
    pow_x.o(i.____hardfp_pow$lsc) refers to daddsub_clz.o(x$fpl$dsub) for __aeabi_dsub
    pow_x.o(i.____hardfp_pow$lsc) refers to daddsub_clz.o(x$fpl$drsb) for __aeabi_drsub
    pow_x.o(i.____hardfp_pow$lsc) refers to qnan.o(.constdata) for __mathlib_zero
    pow_x.o(i.____hardfp_pow$lsc) refers to daddsub_clz.o(x$fpl$dadd) for __aeabi_dadd
    pow_x.o(i.____hardfp_pow$lsc) refers to poly.o(i.__kernel_poly) for __kernel_poly
    pow_x.o(i.____hardfp_pow$lsc) refers to pow_x.o(.constdata) for .constdata
    pow_x.o(i.____hardfp_pow$lsc) refers to drleqf.o(x$fpl$drleqf) for __aeabi_cdrcmple
    pow_x.o(i.____hardfp_pow$lsc) refers to scalbn.o(x$fpl$scalbn) for __ARM_scalbn
    pow_x.o(i.____softfp_pow$lsc) refers (Special) to usenofp.o(x$fpl$usenofp) for __I$use$fp
    pow_x.o(i.____softfp_pow$lsc) refers to pow_x.o(i.____hardfp_pow$lsc) for ____hardfp_pow$lsc
    pow_x.o(i.__pow$lsc) refers (Special) to usenofp.o(x$fpl$usenofp) for __I$use$fp
    pow_x.o(i.__pow$lsc) refers to pow_x.o(i.____hardfp_pow$lsc) for ____hardfp_pow$lsc
    pow_x.o(.constdata) refers (Special) to usenofp.o(x$fpl$usenofp) for __I$use$fp
    __rtentry.o(.ARM.Collect$$rtentry$$00000000) refers (Special) to __rtentry2.o(.ARM.Collect$$rtentry$$0000000A) for __rt_entry_li
    __rtentry.o(.ARM.Collect$$rtentry$$00000000) refers (Special) to __rtentry2.o(.ARM.Collect$$rtentry$$0000000D) for __rt_entry_main
    __rtentry.o(.ARM.Collect$$rtentry$$00000000) refers (Special) to __rtentry2.o(.ARM.Collect$$rtentry$$0000000B) for __rt_entry_postli_1
    __rtentry.o(.ARM.Collect$$rtentry$$00000000) refers (Special) to __rtentry2.o(.ARM.Collect$$rtentry$$00000009) for __rt_entry_postsh_1
    __rtentry.o(.ARM.Collect$$rtentry$$00000000) refers (Special) to __rtentry2.o(.ARM.Collect$$rtentry$$00000002) for __rt_entry_presh_1
    __rtentry.o(.ARM.Collect$$rtentry$$00000000) refers (Special) to __rtentry4.o(.ARM.Collect$$rtentry$$00000004) for __rt_entry_sh
    rtexit.o(.ARM.Collect$$rtexit$$00000000) refers (Special) to rtexit2.o(.ARM.Collect$$rtexit$$00000004) for __rt_exit_exit
    rtexit.o(.ARM.Collect$$rtexit$$00000000) refers (Special) to rtexit2.o(.ARM.Collect$$rtexit$$00000003) for __rt_exit_ls
    rtexit.o(.ARM.Collect$$rtexit$$00000000) refers (Special) to rtexit2.o(.ARM.Collect$$rtexit$$00000002) for __rt_exit_prels_1
    rtexit.o(.ARM.exidx) refers (Special) to rtexit2.o(.ARM.Collect$$rtexit$$00000004) for __rt_exit_exit
    rtexit.o(.ARM.exidx) refers (Special) to rtexit2.o(.ARM.Collect$$rtexit$$00000003) for __rt_exit_ls
    rtexit.o(.ARM.exidx) refers (Special) to rtexit2.o(.ARM.Collect$$rtexit$$00000002) for __rt_exit_prels_1
    rtexit.o(.ARM.exidx) refers to rtexit.o(.ARM.Collect$$rtexit$$00000000) for .ARM.Collect$$rtexit$$00000000
    aeabi_ldiv0_sigfpe.o(.text) refers to rt_div0.o(.text) for __rt_div0
    _rserrno.o(.text) refers to rt_errno_addr_twolibspace.o(.text) for __aeabi_errno_addr
    basic.o(x$fpl$basic) refers (Special) to usenofp.o(x$fpl$usenofp) for __I$use$fp
    dnaninf.o(x$fpl$dnaninf) refers (Special) to usenofp.o(x$fpl$usenofp) for __I$use$fp
    dretinf.o(x$fpl$dretinf) refers (Special) to usenofp.o(x$fpl$usenofp) for __I$use$fp
    drleqf.o(x$fpl$drleqf) refers (Special) to usenofp.o(x$fpl$usenofp) for __I$use$fp
    drleqf.o(x$fpl$drleqf) refers to dleqf.o(x$fpl$dleqf) for __fpl_dcmple_InfNaN
    scalbn.o(x$fpl$scalbn) refers (Special) to usenofp.o(x$fpl$usenofp) for __I$use$fp
    scalbn.o(x$fpl$scalbn) refers to dcheck1.o(x$fpl$dcheck1) for __fpl_dcheck_NaN1
    dunder.o(i.__mathlib_dbl_divzero) refers to ddiv.o(x$fpl$ddiv) for __aeabi_ddiv
    dunder.o(i.__mathlib_dbl_infnan) refers to daddsub_clz.o(x$fpl$dadd) for __aeabi_dadd
    dunder.o(i.__mathlib_dbl_infnan2) refers to daddsub_clz.o(x$fpl$dadd) for __aeabi_dadd
    dunder.o(i.__mathlib_dbl_invalid) refers to ddiv.o(x$fpl$ddiv) for __aeabi_ddiv
    dunder.o(i.__mathlib_dbl_overflow) refers to dmul.o(x$fpl$dmul) for __aeabi_dmul
    dunder.o(i.__mathlib_dbl_posinfnan) refers to dmul.o(x$fpl$dmul) for __aeabi_dmul
    dunder.o(i.__mathlib_dbl_underflow) refers to dmul.o(x$fpl$dmul) for __aeabi_dmul
    fabs.o(i.__hardfp_fabs) refers (Special) to usenofp.o(x$fpl$usenofp) for __I$use$fp
    fabs.o(i.__softfp_fabs) refers (Special) to usenofp.o(x$fpl$usenofp) for __I$use$fp
    fabs.o(i.fabs) refers (Special) to usenofp.o(x$fpl$usenofp) for __I$use$fp
    fpclassify.o(i.__ARM_fpclassify) refers (Special) to usenofp.o(x$fpl$usenofp) for __I$use$fp
    poly.o(i.__kernel_poly) refers (Special) to usenofp.o(x$fpl$usenofp) for __I$use$fp
    poly.o(i.__kernel_poly) refers to dmul.o(x$fpl$dmul) for __aeabi_dmul
    poly.o(i.__kernel_poly) refers to daddsub_clz.o(x$fpl$dadd) for __aeabi_dadd
    qnan.o(.constdata) refers (Special) to usenofp.o(x$fpl$usenofp) for __I$use$fp
    sqrt.o(i.__hardfp_sqrt) refers (Special) to usenofp.o(x$fpl$usenofp) for __I$use$fp
    sqrt.o(i.__hardfp_sqrt) refers to dsqrt_umaal.o(x$fpl$dsqrt) for _dsqrt
    sqrt.o(i.__hardfp_sqrt) refers to _rserrno.o(.text) for __set_errno
    sqrt.o(i.__softfp_sqrt) refers (Special) to usenofp.o(x$fpl$usenofp) for __I$use$fp
    sqrt.o(i.__softfp_sqrt) refers to dsqrt_umaal.o(x$fpl$dsqrt) for _dsqrt
    sqrt.o(i.__softfp_sqrt) refers to _rserrno.o(.text) for __set_errno
    sqrt.o(i.sqrt) refers (Special) to usenofp.o(x$fpl$usenofp) for __I$use$fp
    sqrt.o(i.sqrt) refers to dsqrt_umaal.o(x$fpl$dsqrt) for _dsqrt
    sqrt.o(i.sqrt) refers to _rserrno.o(.text) for __set_errno
    sqrt_x.o(i.____hardfp_sqrt$lsc) refers (Special) to usenofp.o(x$fpl$usenofp) for __I$use$fp
    sqrt_x.o(i.____hardfp_sqrt$lsc) refers to dleqf.o(x$fpl$dleqf) for __aeabi_cdcmple
    sqrt_x.o(i.____hardfp_sqrt$lsc) refers to _rserrno.o(.text) for __set_errno
    sqrt_x.o(i.____hardfp_sqrt$lsc) refers to dsqrt_umaal.o(x$fpl$dsqrt) for _dsqrt
    sqrt_x.o(i.____softfp_sqrt$lsc) refers (Special) to usenofp.o(x$fpl$usenofp) for __I$use$fp
    sqrt_x.o(i.____softfp_sqrt$lsc) refers to dleqf.o(x$fpl$dleqf) for __aeabi_cdcmple
    sqrt_x.o(i.____softfp_sqrt$lsc) refers to _rserrno.o(.text) for __set_errno
    sqrt_x.o(i.____softfp_sqrt$lsc) refers to dsqrt_umaal.o(x$fpl$dsqrt) for _dsqrt
    sqrt_x.o(i.__sqrt$lsc) refers (Special) to usenofp.o(x$fpl$usenofp) for __I$use$fp
    sqrt_x.o(i.__sqrt$lsc) refers to dleqf.o(x$fpl$dleqf) for __aeabi_cdcmple
    sqrt_x.o(i.__sqrt$lsc) refers to _rserrno.o(.text) for __set_errno
    sqrt_x.o(i.__sqrt$lsc) refers to dsqrt_umaal.o(x$fpl$dsqrt) for _dsqrt
    __rtentry2.o(.ARM.Collect$$rtentry$$00000008) refers to boardinit2.o(.text) for _platform_post_stackheap_init
    __rtentry2.o(.ARM.Collect$$rtentry$$0000000A) refers to libinit.o(.ARM.Collect$$libinit$$00000000) for __rt_lib_init
    __rtentry2.o(.ARM.Collect$$rtentry$$0000000B) refers to rtx_conf_cm.o(.emb_text) for _platform_post_lib_init
    __rtentry2.o(.ARM.Collect$$rtentry$$0000000D) refers to blinky.o(.text) for main
    __rtentry2.o(.ARM.Collect$$rtentry$$0000000D) refers to exit.o(.text) for exit
    __rtentry2.o(.ARM.exidx) refers to __rtentry2.o(.ARM.Collect$$rtentry$$00000001) for .ARM.Collect$$rtentry$$00000001
    __rtentry2.o(.ARM.exidx) refers to __rtentry2.o(.ARM.Collect$$rtentry$$00000008) for .ARM.Collect$$rtentry$$00000008
    __rtentry2.o(.ARM.exidx) refers to __rtentry2.o(.ARM.Collect$$rtentry$$0000000A) for .ARM.Collect$$rtentry$$0000000A
    __rtentry2.o(.ARM.exidx) refers to __rtentry2.o(.ARM.Collect$$rtentry$$0000000B) for .ARM.Collect$$rtentry$$0000000B
    __rtentry2.o(.ARM.exidx) refers to __rtentry2.o(.ARM.Collect$$rtentry$$0000000D) for .ARM.Collect$$rtentry$$0000000D
    __rtentry4.o(.ARM.Collect$$rtentry$$00000004) refers to sys_stackheap_outer.o(.text) for __user_setup_stackheap
    __rtentry4.o(.ARM.exidx) refers to __rtentry4.o(.ARM.Collect$$rtentry$$00000004) for .ARM.Collect$$rtentry$$00000004
    rtexit2.o(.ARM.Collect$$rtexit$$00000003) refers to libshutdown.o(.ARM.Collect$$libshutdown$$00000000) for __rt_lib_shutdown
    rtexit2.o(.ARM.Collect$$rtexit$$00000004) refers to sys_exit.o(.text) for _sys_exit
    rtexit2.o(.ARM.exidx) refers to rtexit2.o(.ARM.Collect$$rtexit$$00000001) for .ARM.Collect$$rtexit$$00000001
    rtexit2.o(.ARM.exidx) refers to rtexit2.o(.ARM.Collect$$rtexit$$00000003) for .ARM.Collect$$rtexit$$00000003
    rtexit2.o(.ARM.exidx) refers to rtexit2.o(.ARM.Collect$$rtexit$$00000004) for .ARM.Collect$$rtexit$$00000004
    rt_div0.o(.text) refers to defsig_fpe_outer.o(.text) for __rt_SIGFPE
    rt_errno_addr.o(.text) refers to rt_errno_addr.o(.bss) for __aeabi_errno_addr_data
    rt_errno_addr_intlibspace.o(.text) refers to libspace.o(.bss) for __libspace_start
    rt_errno_addr_twolibspace.o(.text) refers to rtx_conf_cm.o(.text) for __user_perthread_libspace
    dcheck1.o(x$fpl$dcheck1) refers (Special) to usenofp.o(x$fpl$usenofp) for __I$use$fp
    dcheck1.o(x$fpl$dcheck1) refers to retnan.o(x$fpl$retnan) for __fpl_return_NaN
    dleqf.o(x$fpl$dleqf) refers (Special) to usenofp.o(x$fpl$usenofp) for __I$use$fp
    dleqf.o(x$fpl$dleqf) refers to dnaninf.o(x$fpl$dnaninf) for __fpl_dnaninf
    dleqf.o(x$fpl$dleqf) refers to dcmpi.o(x$fpl$dcmpinf) for __fpl_dcmp_Inf
    dsqrt_umaal.o(x$fpl$dsqrt) refers (Special) to usenofp.o(x$fpl$usenofp) for __I$use$fp
    dsqrt_umaal.o(x$fpl$dsqrt) refers to dnaninf.o(x$fpl$dnaninf) for __fpl_dnaninf
    sys_exit.o(.text) refers (Special) to use_no_semi.o(.text) for __I$use$semihosting
    sys_exit.o(.text) refers (Special) to indicate_semi.o(.text) for __semihosting_library_function
    sys_stackheap_outer.o(.text) refers to libspace.o(.text) for __user_perproc_libspace
    sys_stackheap_outer.o(.text) refers to startup_tm4c129.o(.text) for __user_initial_stackheap
    defsig_fpe_outer.o(.text) refers to defsig_fpe_inner.o(.text) for __rt_SIGFPE_inner
    defsig_fpe_outer.o(.text) refers to defsig_exit.o(.text) for __sig_exit
    defsig_fpe_formal.o(.text) refers to rt_raise.o(.text) for __rt_raise
    libinit.o(.ARM.Collect$$libinit$$00000000) refers (Special) to libinit2.o(.ARM.Collect$$libinit$$0000002E) for __rt_lib_init_alloca_1
    libinit.o(.ARM.Collect$$libinit$$00000000) refers (Special) to libinit2.o(.ARM.Collect$$libinit$$0000002C) for __rt_lib_init_argv_1
    libinit.o(.ARM.Collect$$libinit$$00000000) refers (Special) to libinit2.o(.ARM.Collect$$libinit$$0000001B) for __rt_lib_init_atexit_1
    libinit.o(.ARM.Collect$$libinit$$00000000) refers (Special) to libinit2.o(.ARM.Collect$$libinit$$00000021) for __rt_lib_init_clock_1
    libinit.o(.ARM.Collect$$libinit$$00000000) refers (Special) to libinit2.o(.ARM.Collect$$libinit$$00000032) for __rt_lib_init_cpp_1
    libinit.o(.ARM.Collect$$libinit$$00000000) refers (Special) to libinit2.o(.ARM.Collect$$libinit$$00000030) for __rt_lib_init_exceptions_1
    libinit.o(.ARM.Collect$$libinit$$00000000) refers (Special) to libinit2.o(.ARM.Collect$$libinit$$00000001) for __rt_lib_init_fp_1
    libinit.o(.ARM.Collect$$libinit$$00000000) refers (Special) to libinit2.o(.ARM.Collect$$libinit$$0000001F) for __rt_lib_init_fp_trap_1
    libinit.o(.ARM.Collect$$libinit$$00000000) refers (Special) to libinit2.o(.ARM.Collect$$libinit$$00000023) for __rt_lib_init_getenv_1
    libinit.o(.ARM.Collect$$libinit$$00000000) refers (Special) to libinit2.o(.ARM.Collect$$libinit$$0000000A) for __rt_lib_init_heap_1
    libinit.o(.ARM.Collect$$libinit$$00000000) refers (Special) to libinit2.o(.ARM.Collect$$libinit$$00000011) for __rt_lib_init_lc_collate_1
    libinit.o(.ARM.Collect$$libinit$$00000000) refers (Special) to libinit2.o(.ARM.Collect$$libinit$$00000013) for __rt_lib_init_lc_ctype_1
    libinit.o(.ARM.Collect$$libinit$$00000000) refers (Special) to libinit2.o(.ARM.Collect$$libinit$$00000015) for __rt_lib_init_lc_monetary_1
    libinit.o(.ARM.Collect$$libinit$$00000000) refers (Special) to libinit2.o(.ARM.Collect$$libinit$$00000017) for __rt_lib_init_lc_numeric_1
    libinit.o(.ARM.Collect$$libinit$$00000000) refers (Special) to libinit2.o(.ARM.Collect$$libinit$$00000019) for __rt_lib_init_lc_time_1
    libinit.o(.ARM.Collect$$libinit$$00000000) refers (Special) to libinit2.o(.ARM.Collect$$libinit$$00000004) for __rt_lib_init_preinit_1
    libinit.o(.ARM.Collect$$libinit$$00000000) refers (Special) to libinit2.o(.ARM.Collect$$libinit$$0000000E) for __rt_lib_init_rand_1
    libinit.o(.ARM.Collect$$libinit$$00000000) refers (Special) to libinit2.o(.ARM.Collect$$libinit$$00000033) for __rt_lib_init_return
    libinit.o(.ARM.Collect$$libinit$$00000000) refers (Special) to libinit2.o(.ARM.Collect$$libinit$$0000001D) for __rt_lib_init_signal_1
    libinit.o(.ARM.Collect$$libinit$$00000000) refers (Special) to libinit2.o(.ARM.Collect$$libinit$$00000025) for __rt_lib_init_stdio_1
    libinit.o(.ARM.Collect$$libinit$$00000000) refers (Special) to libinit2.o(.ARM.Collect$$libinit$$0000000C) for __rt_lib_init_user_alloc_1
    libshutdown.o(.ARM.Collect$$libshutdown$$00000000) refers (Special) to libshutdown2.o(.ARM.Collect$$libshutdown$$00000002) for __rt_lib_shutdown_cpp_1
    libshutdown.o(.ARM.Collect$$libshutdown$$00000000) refers (Special) to libshutdown2.o(.ARM.Collect$$libshutdown$$00000007) for __rt_lib_shutdown_fp_trap_1
    libshutdown.o(.ARM.Collect$$libshutdown$$00000000) refers (Special) to libshutdown2.o(.ARM.Collect$$libshutdown$$0000000F) for __rt_lib_shutdown_heap_1
    libshutdown.o(.ARM.Collect$$libshutdown$$00000000) refers (Special) to libshutdown2.o(.ARM.Collect$$libshutdown$$00000010) for __rt_lib_shutdown_return
    libshutdown.o(.ARM.Collect$$libshutdown$$00000000) refers (Special) to libshutdown2.o(.ARM.Collect$$libshutdown$$0000000A) for __rt_lib_shutdown_signal_1
    libshutdown.o(.ARM.Collect$$libshutdown$$00000000) refers (Special) to libshutdown2.o(.ARM.Collect$$libshutdown$$00000004) for __rt_lib_shutdown_stdio_1
    libshutdown.o(.ARM.Collect$$libshutdown$$00000000) refers (Special) to libshutdown2.o(.ARM.Collect$$libshutdown$$0000000C) for __rt_lib_shutdown_user_alloc_1
    dcmpi.o(x$fpl$dcmpinf) refers (Special) to usenofp.o(x$fpl$usenofp) for __I$use$fp
    retnan.o(x$fpl$retnan) refers (Special) to usenofp.o(x$fpl$usenofp) for __I$use$fp
    retnan.o(x$fpl$retnan) refers to trapv.o(x$fpl$trapveneer) for __fpl_cmpreturn
    rt_raise.o(.text) refers to __raise.o(.text) for __raise
    rt_raise.o(.text) refers to sys_exit.o(.text) for _sys_exit
    defsig_exit.o(.text) refers to sys_exit.o(.text) for _sys_exit
    defsig_fpe_inner.o(.text) refers to defsig_general.o(.text) for __default_signal_display
    libinit2.o(.ARM.Collect$$libinit$$00000001) refers to fpinit.o(x$fpl$fpinit) for _fp_init
    libinit2.o(.ARM.Collect$$libinit$$00000010) refers to libinit2.o(.ARM.Collect$$libinit$$0000000F) for .ARM.Collect$$libinit$$0000000F
    libinit2.o(.ARM.Collect$$libinit$$00000012) refers to libinit2.o(.ARM.Collect$$libinit$$0000000F) for .ARM.Collect$$libinit$$0000000F
    libinit2.o(.ARM.Collect$$libinit$$00000014) refers to libinit2.o(.ARM.Collect$$libinit$$0000000F) for .ARM.Collect$$libinit$$0000000F
    libinit2.o(.ARM.Collect$$libinit$$00000016) refers to libinit2.o(.ARM.Collect$$libinit$$0000000F) for .ARM.Collect$$libinit$$0000000F
    libinit2.o(.ARM.Collect$$libinit$$00000018) refers to libinit2.o(.ARM.Collect$$libinit$$0000000F) for .ARM.Collect$$libinit$$0000000F
    libinit2.o(.ARM.Collect$$libinit$$00000026) refers to argv_veneer.o(.emb_text) for __ARM_argv_veneer
    libinit2.o(.ARM.Collect$$libinit$$00000027) refers to argv_veneer.o(.emb_text) for __ARM_argv_veneer
    trapv.o(x$fpl$trapveneer) refers (Special) to usenofp.o(x$fpl$usenofp) for __I$use$fp
    __raise.o(.text) refers to defsig.o(CL$$defsig) for __default_signal_handler
    defsig_general.o(.text) refers to sys_wrch.o(.text) for _ttywrch
    argv_veneer.o(.emb_text) refers to no_argv.o(.text) for __ARM_get_argv
    sys_wrch.o(.text) refers (Special) to use_no_semi.o(.text) for __I$use$semihosting
    sys_wrch.o(.text) refers (Special) to indicate_semi.o(.text) for __semihosting_library_function
    defsig.o(CL$$defsig) refers to defsig_fpe_inner.o(.text) for __rt_SIGFPE_inner
    defsig.o(CL$$defsig) refers to defsig_rtmem_inner.o(.text) for __rt_SIGRTMEM_inner
    _get_argv_nomalloc.o(.text) refers (Special) to hrguard.o(.text) for __heap_region$guard
    _get_argv_nomalloc.o(.text) refers to defsig_rtmem_outer.o(.text) for __rt_SIGRTMEM
    _get_argv_nomalloc.o(.text) refers to sys_command.o(.text) for _sys_command_string
    sys_command.o(.text) refers (Special) to use_no_semi.o(.text) for __I$use$semihosting
    sys_command.o(.text) refers (Special) to indicate_semi.o(.text) for __semihosting_library_function
    defsig_abrt_inner.o(.text) refers to defsig_general.o(.text) for __default_signal_display
    defsig_rtred_inner.o(.text) refers to defsig_general.o(.text) for __default_signal_display
    defsig_rtmem_inner.o(.text) refers to defsig_general.o(.text) for __default_signal_display
    defsig_rtmem_outer.o(.text) refers to defsig_rtmem_inner.o(.text) for __rt_SIGRTMEM_inner
    defsig_rtmem_outer.o(.text) refers to defsig_exit.o(.text) for __sig_exit
    defsig_rtmem_formal.o(.text) refers to rt_raise.o(.text) for __rt_raise
    defsig_stak_inner.o(.text) refers to defsig_general.o(.text) for __default_signal_display
    defsig_pvfn_inner.o(.text) refers to defsig_general.o(.text) for __default_signal_display
    defsig_cppl_inner.o(.text) refers to defsig_general.o(.text) for __default_signal_display
    defsig_segv_inner.o(.text) refers to defsig_general.o(.text) for __default_signal_display
    defsig_other.o(.text) refers to defsig_general.o(.text) for __default_signal_display


==============================================================================

Removing Unused input sections from the image.

    Removing led.o(.rev16_text), (4 bytes).
    Removing led.o(.revsh_text), (4 bytes).
    Removing led.o(.rrx_text), (6 bytes).
    Removing blinky.o(.rev16_text), (4 bytes).
    Removing blinky.o(.revsh_text), (4 bytes).
    Removing blinky.o(.rrx_text), (6 bytes).
    Removing retarget_io.o(.text), (544 bytes).
    Removing retarget_io.o(.constdata), (23 bytes).
    Removing retarget_io.o(.data), (4 bytes).
    Removing system_tm4c129.o(.rev16_text), (4 bytes).
    Removing system_tm4c129.o(.revsh_text), (4 bytes).
    Removing system_tm4c129.o(.rrx_text), (6 bytes).
    Removing gpio.o(i.GPIOADCTriggerDisable), (14 bytes).
    Removing gpio.o(i.GPIOADCTriggerEnable), (12 bytes).
    Removing gpio.o(i.GPIODMATriggerDisable), (14 bytes).
    Removing gpio.o(i.GPIODMATriggerEnable), (12 bytes).
    Removing gpio.o(i.GPIODirModeGet), (34 bytes).
    Removing gpio.o(i.GPIOIntClear), (6 bytes).
    Removing gpio.o(i.GPIOIntDisable), (14 bytes).
    Removing gpio.o(i.GPIOIntEnable), (12 bytes).
    Removing gpio.o(i.GPIOIntRegister), (26 bytes).
    Removing gpio.o(i.GPIOIntRegisterPin), (30 bytes).
    Removing gpio.o(i.GPIOIntStatus), (14 bytes).
    Removing gpio.o(i.GPIOIntTypeGet), (68 bytes).
    Removing gpio.o(i.GPIOIntTypeSet), (80 bytes).
    Removing gpio.o(i.GPIOIntUnregister), (22 bytes).
    Removing gpio.o(i.GPIOIntUnregisterPin), (26 bytes).
    Removing gpio.o(i.GPIOPadConfigGet), (204 bytes).
    Removing gpio.o(i.GPIOPinRead), (6 bytes).
    Removing gpio.o(i.GPIOPinTypeADC), (28 bytes).
    Removing gpio.o(i.GPIOPinTypeCAN), (28 bytes).
    Removing gpio.o(i.GPIOPinTypeComparator), (28 bytes).
    Removing gpio.o(i.GPIOPinTypeComparatorOutput), (28 bytes).
    Removing gpio.o(i.GPIOPinTypeDIVSCLK), (28 bytes).
    Removing gpio.o(i.GPIOPinTypeEPI), (28 bytes).
    Removing gpio.o(i.GPIOPinTypeEthernetLED), (28 bytes).
    Removing gpio.o(i.GPIOPinTypeEthernetMII), (28 bytes).
    Removing gpio.o(i.GPIOPinTypeGPIOOutput), (28 bytes).
    Removing gpio.o(i.GPIOPinTypeGPIOOutputOD), (28 bytes).
    Removing gpio.o(i.GPIOPinTypeHibernateRTCCLK), (28 bytes).
    Removing gpio.o(i.GPIOPinTypeLCD), (28 bytes).
    Removing gpio.o(i.GPIOPinTypeOneWire), (28 bytes).
    Removing gpio.o(i.GPIOPinTypeQEI), (28 bytes).
    Removing gpio.o(i.GPIOPinTypeSSI), (28 bytes).
    Removing gpio.o(i.GPIOPinTypeTrace), (28 bytes).
    Removing gpio.o(i.GPIOPinTypeUART), (28 bytes).
    Removing gpio.o(i.GPIOPinTypeUSBAnalog), (28 bytes).
    Removing gpio.o(i.GPIOPinTypeUSBDigital), (28 bytes).
    Removing gpio.o(i.GPIOPinTypeWakeHigh), (30 bytes).
    Removing gpio.o(i.GPIOPinTypeWakeLow), (30 bytes).
    Removing gpio.o(i.GPIOPinWakeStatus), (6 bytes).
    Removing gpio.o(i.GPIOPinWrite), (6 bytes).
    Removing gpio.o(i._GPIOIntNumberGet), (80 bytes).
    Removing i2c.o(i.I2CFIFODataGet), (16 bytes).
    Removing i2c.o(i.I2CFIFODataGetNonBlocking), (24 bytes).
    Removing i2c.o(i.I2CFIFODataPut), (16 bytes).
    Removing i2c.o(i.I2CFIFODataPutNonBlocking), (20 bytes).
    Removing i2c.o(i.I2CFIFOStatus), (6 bytes).
    Removing i2c.o(i.I2CIntUnregister), (96 bytes).
    Removing i2c.o(i.I2CLoopbackEnable), (10 bytes).
    Removing i2c.o(i.I2CMasterBurstCountGet), (4 bytes).
    Removing i2c.o(i.I2CMasterDisable), (10 bytes).
    Removing i2c.o(i.I2CMasterIntDisable), (6 bytes).
    Removing i2c.o(i.I2CMasterIntDisableEx), (10 bytes).
    Removing i2c.o(i.I2CMasterIntEnable), (6 bytes).
    Removing i2c.o(i.I2CMasterIntStatus), (24 bytes).
    Removing i2c.o(i.I2CMasterIntStatusEx), (10 bytes).
    Removing i2c.o(i.I2CMasterLineStateGet), (4 bytes).
    Removing i2c.o(i.I2CRxFIFOConfigSet), (22 bytes).
    Removing i2c.o(i.I2CRxFIFOFlush), (14 bytes).
    Removing i2c.o(i.I2CSlaveACKOverride), (22 bytes).
    Removing i2c.o(i.I2CSlaveACKValueSet), (22 bytes).
    Removing i2c.o(i.I2CSlaveAddressSet), (24 bytes).
    Removing i2c.o(i.I2CSlaveDataGet), (6 bytes).
    Removing i2c.o(i.I2CSlaveDataPut), (6 bytes).
    Removing i2c.o(i.I2CSlaveDisable), (16 bytes).
    Removing i2c.o(i.I2CSlaveEnable), (16 bytes).
    Removing i2c.o(i.I2CSlaveFIFODisable), (8 bytes).
    Removing i2c.o(i.I2CSlaveFIFOEnable), (10 bytes).
    Removing i2c.o(i.I2CSlaveInit), (20 bytes).
    Removing i2c.o(i.I2CSlaveIntClear), (8 bytes).
    Removing i2c.o(i.I2CSlaveIntClearEx), (6 bytes).
    Removing i2c.o(i.I2CSlaveIntDisable), (14 bytes).
    Removing i2c.o(i.I2CSlaveIntDisableEx), (14 bytes).
    Removing i2c.o(i.I2CSlaveIntEnable), (14 bytes).
    Removing i2c.o(i.I2CSlaveIntEnableEx), (12 bytes).
    Removing i2c.o(i.I2CSlaveIntStatus), (28 bytes).
    Removing i2c.o(i.I2CSlaveIntStatusEx), (14 bytes).
    Removing i2c.o(i.I2CSlaveStatus), (6 bytes).
    Removing i2c.o(i.I2CTxFIFOConfigSet), (24 bytes).
    Removing i2c.o(i.I2CTxFIFOFlush), (14 bytes).
    Removing interrupt.o(i.IntDisable), (100 bytes).
    Removing interrupt.o(i.IntIsEnabled), (96 bytes).
    Removing interrupt.o(i.IntMasterDisable), (14 bytes).
    Removing interrupt.o(i.IntMasterEnable), (14 bytes).
    Removing interrupt.o(i.IntPendClear), (68 bytes).
    Removing interrupt.o(i.IntPendSet), (84 bytes).
    Removing interrupt.o(i.IntPriorityGet), (28 bytes).
    Removing interrupt.o(i.IntPriorityGroupingGet), (36 bytes).
    Removing interrupt.o(i.IntPriorityGroupingSet), (28 bytes).
    Removing interrupt.o(i.IntPriorityMaskGet), (4 bytes).
    Removing interrupt.o(i.IntPriorityMaskSet), (4 bytes).
    Removing interrupt.o(i.IntPrioritySet), (40 bytes).
    Removing interrupt.o(i.IntTrigger), (12 bytes).
    Removing interrupt.o(i.IntUnregister), (20 bytes).
    Removing interrupt.o(i._IntDefaultHandler), (2 bytes).
    Removing pwm.o(i.PWMClockGet), (26 bytes).
    Removing pwm.o(i.PWMDeadBandDisable), (12 bytes).
    Removing pwm.o(i.PWMDeadBandEnable), (16 bytes).
    Removing pwm.o(i.PWMFaultIntClear), (8 bytes).
    Removing pwm.o(i.PWMFaultIntClearExt), (4 bytes).
    Removing pwm.o(i.PWMFaultIntRegister), (96 bytes).
    Removing pwm.o(i.PWMFaultIntUnregister), (88 bytes).
    Removing pwm.o(i.PWMGenFaultClear), (18 bytes).
    Removing pwm.o(i.PWMGenFaultConfigure), (18 bytes).
    Removing pwm.o(i.PWMGenFaultStatus), (18 bytes).
    Removing pwm.o(i.PWMGenFaultTriggerGet), (12 bytes).
    Removing pwm.o(i.PWMGenFaultTriggerSet), (12 bytes).
    Removing pwm.o(i.PWMGenIntClear), (6 bytes).
    Removing pwm.o(i.PWMGenIntRegister), (26 bytes).
    Removing pwm.o(i.PWMGenIntStatus), (12 bytes).
    Removing pwm.o(i.PWMGenIntTrigDisable), (10 bytes).
    Removing pwm.o(i.PWMGenIntTrigEnable), (10 bytes).
    Removing pwm.o(i.PWMGenIntUnregister), (22 bytes).
    Removing pwm.o(i.PWMIntDisable), (10 bytes).
    Removing pwm.o(i.PWMIntEnable), (8 bytes).
    Removing pwm.o(i.PWMIntStatus), (10 bytes).
    Removing pwm.o(i.PWMOutputFault), (16 bytes).
    Removing pwm.o(i.PWMOutputFaultLevel), (16 bytes).
    Removing pwm.o(i.PWMOutputInvert), (16 bytes).
    Removing pwm.o(i.PWMOutputUpdateMode), (62 bytes).
    Removing pwm.o(i.PWMPulseWidthGet), (32 bytes).
    Removing pwm.o(i.PWMSyncTimeBase), (4 bytes).
    Removing pwm.o(i.PWMSyncUpdate), (4 bytes).
    Removing pwm.o(i._PWMGenIntNumberGet), (224 bytes).
    Removing sysctl.o(i.SysCtlAltClkConfig), (12 bytes).
    Removing sysctl.o(i.SysCtlClockGet), (340 bytes).
    Removing sysctl.o(i.SysCtlClockOutConfig), (20 bytes).
    Removing sysctl.o(i.SysCtlClockSet), (288 bytes).
    Removing sysctl.o(i.SysCtlDeepSleep), (32 bytes).
    Removing sysctl.o(i.SysCtlDeepSleepClockConfigSet), (112 bytes).
    Removing sysctl.o(i.SysCtlDeepSleepClockSet), (12 bytes).
    Removing sysctl.o(i.SysCtlDeepSleepPowerSet), (12 bytes).
    Removing sysctl.o(i.SysCtlFlashSectorSizeGet), (56 bytes).
    Removing sysctl.o(i.SysCtlFlashSizeGet), (56 bytes).
    Removing sysctl.o(i.SysCtlGPIOAHBDisable), (28 bytes).
    Removing sysctl.o(i.SysCtlGPIOAHBEnable), (24 bytes).
    Removing sysctl.o(i.SysCtlIntClear), (12 bytes).
    Removing sysctl.o(i.SysCtlIntDisable), (16 bytes).
    Removing sysctl.o(i.SysCtlIntEnable), (16 bytes).
    Removing sysctl.o(i.SysCtlIntRegister), (20 bytes).
    Removing sysctl.o(i.SysCtlIntStatus), (16 bytes).
    Removing sysctl.o(i.SysCtlIntUnregister), (18 bytes).
    Removing sysctl.o(i.SysCtlLDODeepSleepGet), (12 bytes).
    Removing sysctl.o(i.SysCtlLDODeepSleepSet), (12 bytes).
    Removing sysctl.o(i.SysCtlLDOSleepGet), (12 bytes).
    Removing sysctl.o(i.SysCtlLDOSleepSet), (12 bytes).
    Removing sysctl.o(i.SysCtlMOSCConfigSet), (12 bytes).
    Removing sysctl.o(i.SysCtlNMIClear), (16 bytes).
    Removing sysctl.o(i.SysCtlNMIStatus), (12 bytes).
    Removing sysctl.o(i.SysCtlPIOSCCalibrate), (76 bytes).
    Removing sysctl.o(i.SysCtlPWMClockGet), (24 bytes).
    Removing sysctl.o(i.SysCtlPWMClockSet), (20 bytes).
    Removing sysctl.o(i.SysCtlPeripheralClockGating), (68 bytes).
    Removing sysctl.o(i.SysCtlPeripheralDeepSleepDisable), (40 bytes).
    Removing sysctl.o(i.SysCtlPeripheralDeepSleepEnable), (40 bytes).
    Removing sysctl.o(i.SysCtlPeripheralDisable), (40 bytes).
    Removing sysctl.o(i.SysCtlPeripheralPowerOff), (40 bytes).
    Removing sysctl.o(i.SysCtlPeripheralPowerOn), (40 bytes).
    Removing sysctl.o(i.SysCtlPeripheralPresent), (44 bytes).
    Removing sysctl.o(i.SysCtlPeripheralSleepDisable), (40 bytes).
    Removing sysctl.o(i.SysCtlPeripheralSleepEnable), (40 bytes).
    Removing sysctl.o(i.SysCtlReset), (16 bytes).
    Removing sysctl.o(i.SysCtlResetBehaviorGet), (12 bytes).
    Removing sysctl.o(i.SysCtlResetBehaviorSet), (12 bytes).
    Removing sysctl.o(i.SysCtlResetCauseClear), (16 bytes).
    Removing sysctl.o(i.SysCtlResetCauseGet), (12 bytes).
    Removing sysctl.o(i.SysCtlSRAMSizeGet), (16 bytes).
    Removing sysctl.o(i.SysCtlSleep), (4 bytes).
    Removing sysctl.o(i.SysCtlSleepPowerSet), (12 bytes).
    Removing sysctl.o(i.SysCtlUSBPLLDisable), (16 bytes).
    Removing sysctl.o(i.SysCtlUSBPLLEnable), (16 bytes).
    Removing sysctl.o(i.SysCtlVCOGet), (120 bytes).
    Removing sysctl.o(i.SysCtlVoltageEventClear), (16 bytes).
    Removing sysctl.o(i.SysCtlVoltageEventConfig), (12 bytes).
    Removing sysctl.o(i.SysCtlVoltageEventStatus), (12 bytes).
    Removing timer.o(i.TimerADCEventGet), (4 bytes).
    Removing timer.o(i.TimerADCEventSet), (4 bytes).
    Removing timer.o(i.TimerClockSourceGet), (6 bytes).
    Removing timer.o(i.TimerControlEvent), (18 bytes).
    Removing timer.o(i.TimerControlStall), (22 bytes).
    Removing timer.o(i.TimerControlTrigger), (80 bytes).
    Removing timer.o(i.TimerControlWaitOnTrigger), (48 bytes).
    Removing timer.o(i.TimerDMAEventGet), (4 bytes).
    Removing timer.o(i.TimerDMAEventSet), (4 bytes).
    Removing timer.o(i.TimerDisable), (16 bytes).
    Removing timer.o(i.TimerIntClear), (4 bytes).
    Removing timer.o(i.TimerIntDisable), (10 bytes).
    Removing timer.o(i.TimerIntEnable), (8 bytes).
    Removing timer.o(i.TimerIntRegister), (104 bytes).
    Removing timer.o(i.TimerIntStatus), (10 bytes).
    Removing timer.o(i.TimerIntUnregister), (104 bytes).
    Removing timer.o(i.TimerLoadGet), (10 bytes).
    Removing timer.o(i.TimerLoadGet64), (14 bytes).
    Removing timer.o(i.TimerLoadSet64), (6 bytes).
    Removing timer.o(i.TimerMatchGet), (10 bytes).
    Removing timer.o(i.TimerMatchGet64), (14 bytes).
    Removing timer.o(i.TimerMatchSet64), (6 bytes).
    Removing timer.o(i.TimerPrescaleGet), (10 bytes).
    Removing timer.o(i.TimerPrescaleMatchGet), (10 bytes).
    Removing timer.o(i.TimerPrescaleMatchSet), (18 bytes).
    Removing timer.o(i.TimerRTCDisable), (10 bytes).
    Removing timer.o(i.TimerRTCEnable), (10 bytes).
    Removing timer.o(i.TimerSynchronize), (4 bytes).
    Removing timer.o(i.TimerValueGet), (10 bytes).
    Removing timer.o(i.TimerValueGet64), (14 bytes).
    Removing timer.o(.constdata), (160 bytes).
    Removing context.o(i.GrContextClipRegionSet), (112 bytes).
    Removing context.o(i.GrLibInit), (12 bytes).
    Removing rectangle.o(i.GrRectDraw), (108 bytes).
    Removing rectangle.o(i.GrRectIntersectGet), (140 bytes).
    Removing rectangle.o(i.GrRectOverlapCheck), (56 bytes).
    Removing string.o(i.GrCodepageMapTableSet), (10 bytes).
    Removing string.o(i.GrFontBlockCodepointsGet), (84 bytes).
    Removing string.o(i.GrFontCodepageGet), (32 bytes).
    Removing string.o(i.GrFontHeightGet), (44 bytes).
    Removing string.o(i.GrFontInfoGet), (48 bytes).
    Removing string.o(i.GrFontMaxWidthGet), (44 bytes).
    Removing string.o(i.GrFontNumBlocksGet), (32 bytes).
    Removing string.o(i.GrStringCodepageSet), (6 bytes).
    Removing string.o(i.GrStringGet), (596 bytes).
    Removing string.o(i.GrStringLanguageSet), (48 bytes).
    Removing string.o(i.GrStringNextCharGet), (52 bytes).
    Removing string.o(i.GrStringTableSet), (36 bytes).
    Removing string.o(.data), (20 bytes).
    Removing rt_cmsis.o(.rev16_text), (4 bytes).
    Removing rt_cmsis.o(.revsh_text), (4 bytes).
    Removing rt_cmsis.o(.rrx_text), (6 bytes).
    Removing rt_cmsis.o(i.isrSemaphoreRelease), (40 bytes).
    Removing rt_cmsis.o(i.osKernelRunning), (36 bytes).
    Removing rt_cmsis.o(i.osKernelSysTick), (24 bytes).
    Removing rt_cmsis.o(i.osMailAlloc), (28 bytes).
    Removing rt_cmsis.o(i.osMailCAlloc), (48 bytes).
    Removing rt_cmsis.o(i.osMailCreate), (44 bytes).
    Removing rt_cmsis.o(i.osMailFree), (28 bytes).
    Removing rt_cmsis.o(i.osMailGet), (22 bytes).
    Removing rt_cmsis.o(i.osMailPut), (20 bytes).
    Removing rt_cmsis.o(i.osMessageCreate), (44 bytes).
    Removing rt_cmsis.o(i.osMessagePut), (24 bytes).
    Removing rt_cmsis.o(i.osMutexCreate), (44 bytes).
    Removing rt_cmsis.o(i.osMutexDelete), (24 bytes).
    Removing rt_cmsis.o(i.osMutexRelease), (24 bytes).
    Removing rt_cmsis.o(i.osMutexWait), (24 bytes).
    Removing rt_cmsis.o(i.osPoolAlloc), (32 bytes).
    Removing rt_cmsis.o(i.osPoolCAlloc), (52 bytes).
    Removing rt_cmsis.o(i.osPoolCreate), (44 bytes).
    Removing rt_cmsis.o(i.osPoolFree), (32 bytes).
    Removing rt_cmsis.o(i.osSemaphoreCreate), (44 bytes).
    Removing rt_cmsis.o(i.osSemaphoreDelete), (24 bytes).
    Removing rt_cmsis.o(i.osSemaphoreRelease), (24 bytes).
    Removing rt_cmsis.o(i.osSemaphoreWait), (24 bytes).
    Removing rt_cmsis.o(i.osSignalClear), (24 bytes).
    Removing rt_cmsis.o(i.osThreadGetId), (24 bytes).
    Removing rt_cmsis.o(i.osThreadGetPriority), (24 bytes).
    Removing rt_cmsis.o(i.osThreadSetPriority), (24 bytes).
    Removing rt_cmsis.o(i.osThreadTerminate), (24 bytes).
    Removing rt_cmsis.o(i.osThreadYield), (24 bytes).
    Removing rt_cmsis.o(i.osTimerCreate), (44 bytes).
    Removing rt_cmsis.o(i.osTimerDelete), (24 bytes).
    Removing rt_cmsis.o(i.osTimerStart), (24 bytes).
    Removing rt_cmsis.o(i.osTimerStop), (24 bytes).
    Removing rt_cmsis.o(i.osWait), (4 bytes).
    Removing rt_cmsis.o(i.os_resume), (12 bytes).
    Removing rt_cmsis.o(i.os_suspend), (12 bytes).
    Removing rt_cmsis.o(i.rt_clr_box), (24 bytes).
    Removing rt_cmsis.o(i.rt_timer_remove), (60 bytes).
    Removing rt_cmsis.o(i.svcKernelRunning), (12 bytes).
    Removing rt_cmsis.o(i.svcKernelSysTick), (56 bytes).
    Removing rt_cmsis.o(i.svcMailCreate), (66 bytes).
    Removing rt_cmsis.o(i.svcMessagePut), (54 bytes).
    Removing rt_cmsis.o(i.svcMutexCreate), (28 bytes).
    Removing rt_cmsis.o(i.svcMutexDelete), (26 bytes).
    Removing rt_cmsis.o(i.svcMutexRelease), (34 bytes).
    Removing rt_cmsis.o(i.svcMutexWait), (58 bytes).
    Removing rt_cmsis.o(i.svcPoolCreate), (40 bytes).
    Removing rt_cmsis.o(i.svcSemaphoreCreate), (36 bytes).
    Removing rt_cmsis.o(i.svcSemaphoreDelete), (26 bytes).
    Removing rt_cmsis.o(i.svcSemaphoreRelease), (40 bytes).
    Removing rt_cmsis.o(i.svcSemaphoreWait), (50 bytes).
    Removing rt_cmsis.o(i.svcSignalClear), (36 bytes).
    Removing rt_cmsis.o(i.svcThreadGetPriority), (18 bytes).
    Removing rt_cmsis.o(i.svcThreadSetPriority), (46 bytes).
    Removing rt_cmsis.o(i.svcThreadYield), (10 bytes).
    Removing rt_cmsis.o(i.svcTimerCreate), (56 bytes).
    Removing rt_cmsis.o(i.svcTimerDelete), (40 bytes).
    Removing rt_cmsis.o(i.svcTimerStart), (100 bytes).
    Removing rt_cmsis.o(i.svcTimerStop), (36 bytes).
    Removing rt_cmsis.o(i.sysMailAlloc), (88 bytes).
    Removing rt_cmsis.o(i.sysMailFree), (96 bytes).
    Removing rt_cmsis.o(i.sysPoolAlloc), (10 bytes).
    Removing rt_cmsis.o(i.sysPoolFree), (20 bytes).
    Removing rt_cmsis.o(i.sysUserTimerUpdate), (48 bytes).
    Removing rt_cmsis.o(i.sysUserTimerWakeupTime), (20 bytes).
    Removing rt_task.o(i.rt_tsk_pass), (48 bytes).
    Removing rt_mutex.o(i.rt_mut_delete), (176 bytes).
    Removing cpu.o(.emb_text), (38 bytes).
    Removing charmap.o(i.GrMapISO8859_10_Unicode), (32 bytes).
    Removing charmap.o(i.GrMapISO8859_11_Unicode), (16 bytes).
    Removing charmap.o(i.GrMapISO8859_13_Unicode), (32 bytes).
    Removing charmap.o(i.GrMapISO8859_14_Unicode), (96 bytes).
    Removing charmap.o(i.GrMapISO8859_15_Unicode), (88 bytes).
    Removing charmap.o(i.GrMapISO8859_16_Unicode), (32 bytes).
    Removing charmap.o(i.GrMapISO8859_2_Unicode), (32 bytes).
    Removing charmap.o(i.GrMapISO8859_3_Unicode), (32 bytes).
    Removing charmap.o(i.GrMapISO8859_4_Unicode), (32 bytes).
    Removing charmap.o(i.GrMapISO8859_5_Unicode), (16 bytes).
    Removing charmap.o(i.GrMapISO8859_6_Unicode), (22 bytes).
    Removing charmap.o(i.GrMapISO8859_7_Unicode), (44 bytes).
    Removing charmap.o(i.GrMapISO8859_8_Unicode), (38 bytes).
    Removing charmap.o(i.GrMapISO8859_9_Unicode), (68 bytes).
    Removing charmap.o(i.GrMapUTF16BE_Unicode), (6 bytes).
    Removing charmap.o(i.GrMapUTF16LE_Unicode), (6 bytes).
    Removing charmap.o(i.GrMapUTF16_Unicode), (120 bytes).
    Removing charmap.o(i.GrMapUTF8_Unicode), (146 bytes).
    Removing charmap.o(i.GrMapUnicode_Unicode), (22 bytes).
    Removing charmap.o(i.GrMapWIN1250_Unicode), (32 bytes).
    Removing charmap.o(i.GrMapWIN1251_Unicode), (48 bytes).
    Removing charmap.o(i.GrMapWIN1252_Unicode), (40 bytes).
    Removing charmap.o(i.GrMapWIN1253_Unicode), (48 bytes).
    Removing charmap.o(i.GrMapWIN1254_Unicode), (96 bytes).
    Removing charmap.o(.constdata), (1900 bytes).
    Removing line.o(i.GrLineDraw), (638 bytes).
    Removing line.o(i.GrLineDrawH), (76 bytes).
    Removing line.o(i.GrLineDrawV), (76 bytes).
    Removing rt_system.o(.emb_text), (0 bytes).
    Removing rt_system.o(i.os_tick_ovf), (16 bytes).
    Removing rt_system.o(i.os_tick_val), (20 bytes).
    Removing rt_system.o(i.rt_resume), (136 bytes).
    Removing rt_system.o(i.rt_suspend), (36 bytes).
    Removing rt_system.o(i.rt_tsk_lock), (80 bytes).
    Removing rt_system.o(i.rt_tsk_unlock), (80 bytes).
    Removing rt_event.o(i.rt_evt_clr), (28 bytes).
    Removing rt_event.o(i.rt_evt_get), (12 bytes).
    Removing rt_list.o(i.rt_get_same_rdy_prio), (36 bytes).
    Removing rt_mailbox.o(i.rt_mbx_send), (152 bytes).
    Removing rt_semaphore.o(i.isr_sem_send), (16 bytes).
    Removing rt_semaphore.o(i.rt_sem_delete), (92 bytes).
    Removing rt_semaphore.o(i.rt_sem_init), (12 bytes).
    Removing rt_semaphore.o(i.rt_sem_send), (42 bytes).
    Removing rt_semaphore.o(i.rt_sem_wait), (64 bytes).
    Removing rt_time.o(i.rt_itv_set), (24 bytes).
    Removing rt_time.o(i.rt_itv_wait), (40 bytes).
    Removing rt_time.o(i.rt_time_get), (12 bytes).
    Removing rt_membox.o(i._calloc_box), (30 bytes).
    Removing rt_robin.o(i.rt_chk_robin), (72 bytes).
    Removing rt_robin.o(i.rt_init_robin), (24 bytes).
    Removing rt_robin.o(.data), (8 bytes).

357 unused section(s) (total 15487 bytes) removed from the image.

==============================================================================

Image Symbol Table

    Local Symbols

    Symbol Name                              Value     Ov Type        Size  Object(Section)

    RESET                                    0x00000000   Section      512  startup_tm4c129.o(RESET)
    ../clib/angel/boardlib.s                 0x00000000   Number         0  boardshut.o ABSOLUTE
    ../clib/angel/boardlib.s                 0x00000000   Number         0  boardinit1.o ABSOLUTE
    ../clib/angel/boardlib.s                 0x00000000   Number         0  boardinit2.o ABSOLUTE
    ../clib/angel/dczerorl.s                 0x00000000   Number         0  __dczerorl.o ABSOLUTE
    ../clib/angel/handlers.s                 0x00000000   Number         0  __scatter_zi.o ABSOLUTE
    ../clib/angel/kernel.s                   0x00000000   Number         0  __rtentry4.o ABSOLUTE
    ../clib/angel/kernel.s                   0x00000000   Number         0  rtexit2.o ABSOLUTE
    ../clib/angel/kernel.s                   0x00000000   Number         0  __rtentry2.o ABSOLUTE
    ../clib/angel/kernel.s                   0x00000000   Number         0  rtexit.o ABSOLUTE
    ../clib/angel/kernel.s                   0x00000000   Number         0  __rtentry.o ABSOLUTE
    ../clib/angel/rt.s                       0x00000000   Number         0  rt_raise.o ABSOLUTE
    ../clib/angel/rt.s                       0x00000000   Number         0  aeabi_ldiv0_sigfpe.o ABSOLUTE
    ../clib/angel/rt.s                       0x00000000   Number         0  aeabi_ldiv0.o ABSOLUTE
    ../clib/angel/rt.s                       0x00000000   Number         0  rt_div0.o ABSOLUTE
    ../clib/angel/rt.s                       0x00000000   Number         0  rt_errno_addr.o ABSOLUTE
    ../clib/angel/rt.s                       0x00000000   Number         0  rt_errno_addr_intlibspace.o ABSOLUTE
    ../clib/angel/rt.s                       0x00000000   Number         0  rt_errno_addr_twolibspace.o ABSOLUTE
    ../clib/angel/scatter.s                  0x00000000   Number         0  __scatter.o ABSOLUTE
    ../clib/angel/startup.s                  0x00000000   Number         0  __main.o ABSOLUTE
    ../clib/angel/sys.s                      0x00000000   Number         0  use_no_semi.o ABSOLUTE
    ../clib/angel/sys.s                      0x00000000   Number         0  sys_stackheap_outer.o ABSOLUTE
    ../clib/angel/sys.s                      0x00000000   Number         0  libspace.o ABSOLUTE
    ../clib/angel/sys.s                      0x00000000   Number         0  indicate_semi.o ABSOLUTE
    ../clib/angel/sysapp.c                   0x00000000   Number         0  sys_command.o ABSOLUTE
    ../clib/angel/sysapp.c                   0x00000000   Number         0  sys_wrch.o ABSOLUTE
    ../clib/angel/sysapp.c                   0x00000000   Number         0  sys_exit.o ABSOLUTE
    ../clib/armsys.c                         0x00000000   Number         0  argv_veneer.o ABSOLUTE
    ../clib/armsys.c                         0x00000000   Number         0  argv_veneer.o ABSOLUTE
    ../clib/armsys.c                         0x00000000   Number         0  _get_argv_nomalloc.o ABSOLUTE
    ../clib/armsys.c                         0x00000000   Number         0  no_argv.o ABSOLUTE
    ../clib/fenv.c                           0x00000000   Number         0  _rserrno.o ABSOLUTE
    ../clib/heapalloc.c                      0x00000000   Number         0  hrguard.o ABSOLUTE
    ../clib/heapaux.c                        0x00000000   Number         0  heapauxi.o ABSOLUTE
    ../clib/libinit.s                        0x00000000   Number         0  libshutdown.o ABSOLUTE
    ../clib/libinit.s                        0x00000000   Number         0  libinit.o ABSOLUTE
    ../clib/libinit.s                        0x00000000   Number         0  libinit2.o ABSOLUTE
    ../clib/libinit.s                        0x00000000   Number         0  libshutdown2.o ABSOLUTE
    ../clib/longlong.s                       0x00000000   Number         0  llsdiv.o ABSOLUTE
    ../clib/longlong.s                       0x00000000   Number         0  lludivv7m.o ABSOLUTE
    ../clib/memcpset.s                       0x00000000   Number         0  strcmpv7m.o ABSOLUTE
    ../clib/signal.c                         0x00000000   Number         0  defsig_general.o ABSOLUTE
    ../clib/signal.c                         0x00000000   Number         0  defsig_segv_inner.o ABSOLUTE
    ../clib/signal.c                         0x00000000   Number         0  defsig_abrt_inner.o ABSOLUTE
    ../clib/signal.c                         0x00000000   Number         0  defsig_rtred_inner.o ABSOLUTE
    ../clib/signal.c                         0x00000000   Number         0  defsig_rtmem_inner.o ABSOLUTE
    ../clib/signal.c                         0x00000000   Number         0  defsig_rtmem_outer.o ABSOLUTE
    ../clib/signal.c                         0x00000000   Number         0  defsig_rtmem_formal.o ABSOLUTE
    ../clib/signal.c                         0x00000000   Number         0  defsig_stak_inner.o ABSOLUTE
    ../clib/signal.c                         0x00000000   Number         0  defsig_fpe_formal.o ABSOLUTE
    ../clib/signal.c                         0x00000000   Number         0  defsig_exit.o ABSOLUTE
    ../clib/signal.c                         0x00000000   Number         0  defsig_fpe_inner.o ABSOLUTE
    ../clib/signal.c                         0x00000000   Number         0  defsig_fpe_outer.o ABSOLUTE
    ../clib/signal.c                         0x00000000   Number         0  defsig_pvfn_inner.o ABSOLUTE
    ../clib/signal.c                         0x00000000   Number         0  defsig_cppl_inner.o ABSOLUTE
    ../clib/signal.c                         0x00000000   Number         0  defsig_other.o ABSOLUTE
    ../clib/signal.c                         0x00000000   Number         0  __raise.o ABSOLUTE
    ../clib/signal.s                         0x00000000   Number         0  defsig.o ABSOLUTE
    ../clib/stdlib.c                         0x00000000   Number         0  exit.o ABSOLUTE
    ../fplib/basic.s                         0x00000000   Number         0  basic.o ABSOLUTE
    ../fplib/daddsub.s                       0x00000000   Number         0  daddsub_clz.o ABSOLUTE
    ../fplib/dcheck1.s                       0x00000000   Number         0  dcheck1.o ABSOLUTE
    ../fplib/dcmpi.s                         0x00000000   Number         0  dcmpi.o ABSOLUTE
    ../fplib/ddiv.s                          0x00000000   Number         0  ddiv.o ABSOLUTE
    ../fplib/dfix.s                          0x00000000   Number         0  dfix.o ABSOLUTE
    ../fplib/dflt.s                          0x00000000   Number         0  dflt_clz.o ABSOLUTE
    ../fplib/dleqf.s                         0x00000000   Number         0  dleqf.o ABSOLUTE
    ../fplib/dmul.s                          0x00000000   Number         0  dmul.o ABSOLUTE
    ../fplib/dnaninf.s                       0x00000000   Number         0  dnaninf.o ABSOLUTE
    ../fplib/dretinf.s                       0x00000000   Number         0  dretinf.o ABSOLUTE
    ../fplib/drleqf.s                        0x00000000   Number         0  drleqf.o ABSOLUTE
    ../fplib/dsqrt.s                         0x00000000   Number         0  dsqrt_umaal.o ABSOLUTE
    ../fplib/fpinit.s                        0x00000000   Number         0  fpinit.o ABSOLUTE
    ../fplib/retnan.s                        0x00000000   Number         0  retnan.o ABSOLUTE
    ../fplib/scalbn.s                        0x00000000   Number         0  scalbn.o ABSOLUTE
    ../fplib/trapv.s                         0x00000000   Number         0  trapv.o ABSOLUTE
    ../fplib/usenofp.s                       0x00000000   Number         0  usenofp.o ABSOLUTE
    ../mathlib/dunder.c                      0x00000000   Number         0  dunder.o ABSOLUTE
    ../mathlib/fabs.c                        0x00000000   Number         0  fabs.o ABSOLUTE
    ../mathlib/fpclassify.c                  0x00000000   Number         0  fpclassify.o ABSOLUTE
    ../mathlib/poly.c                        0x00000000   Number         0  poly.o ABSOLUTE
    ../mathlib/pow.c                         0x00000000   Number         0  pow_x.o ABSOLUTE
    ../mathlib/pow.c                         0x00000000   Number         0  pow.o ABSOLUTE
    ../mathlib/qnan.c                        0x00000000   Number         0  qnan.o ABSOLUTE
    ../mathlib/sqrt.c                        0x00000000   Number         0  sqrt_x.o ABSOLUTE
    ../mathlib/sqrt.c                        0x00000000   Number         0  sqrt.o ABSOLUTE
    ..\HAL_CM.c                              0x00000000   Number         0  hal_cm.o ABSOLUTE
    ..\\rt_CMSIS.c                           0x00000000   Number         0  rt_cmsis.o ABSOLUTE
    ..\\rt_System.c                          0x00000000   Number         0  rt_system.o ABSOLUTE
    ..\rt_CMSIS.c                            0x00000000   Number         0  rt_cmsis.o ABSOLUTE
    ..\rt_Event.c                            0x00000000   Number         0  rt_event.o ABSOLUTE
    ..\rt_List.c                             0x00000000   Number         0  rt_list.o ABSOLUTE
    ..\rt_Mailbox.c                          0x00000000   Number         0  rt_mailbox.o ABSOLUTE
    ..\rt_MemBox.c                           0x00000000   Number         0  rt_membox.o ABSOLUTE
    ..\rt_Memory.c                           0x00000000   Number         0  rt_memory.o ABSOLUTE
    ..\rt_Mutex.c                            0x00000000   Number         0  rt_mutex.o ABSOLUTE
    ..\rt_Robin.c                            0x00000000   Number         0  rt_robin.o ABSOLUTE
    ..\rt_Semaphore.c                        0x00000000   Number         0  rt_semaphore.o ABSOLUTE
    ..\rt_System.c                           0x00000000   Number         0  rt_system.o ABSOLUTE
    ..\rt_Task.c                             0x00000000   Number         0  rt_task.o ABSOLUTE
    ..\rt_Time.c                             0x00000000   Number         0  rt_time.o ABSOLUTE
    Blinky.c                                 0x00000000   Number         0  blinky.o ABSOLUTE
    Blinky.c                                 0x00000000   Number         0  blinky.o ABSOLUTE
    C:\Keil_v5\ARM\PACK\Keil\ARM_Compiler\1.3.1\Source\retarget_io.c 0x00000000   Number         0  retarget_io.o ABSOLUTE
    HAL_CM4.c                                0x00000000   Number         0  hal_cm4.o ABSOLUTE
    HAL_CM4.c                                0x00000000   Number         0  hal_cm4.o ABSOLUTE
    LED.c                                    0x00000000   Number         0  led.o ABSOLUTE
    LED.c                                    0x00000000   Number         0  led.o ABSOLUTE
    RTE\CMSIS\RTX_Conf_CM.c                  0x00000000   Number         0  rtx_conf_cm.o ABSOLUTE
    RTE\Device\TM4C1294NCPDT\startup_TM4C129.s 0x00000000   Number         0  startup_tm4c129.o ABSOLUTE
    RTE\Device\TM4C1294NCPDT\system_TM4C129.c 0x00000000   Number         0  system_tm4c129.o ABSOLUTE
    RTE\\CMSIS\\RTX_Conf_CM.c                0x00000000   Number         0  rtx_conf_cm.o ABSOLUTE
    RTE\\Device\\TM4C1294NCPDT\\system_TM4C129.c 0x00000000   Number         0  system_tm4c129.o ABSOLUTE
    SVC_Table.s                              0x00000000   Number         0  svc_table.o ABSOLUTE
    cfaf128x128x16.c                         0x00000000   Number         0  cfaf128x128x16.o ABSOLUTE
    charmap.c                                0x00000000   Number         0  charmap.o ABSOLUTE
    context.c                                0x00000000   Number         0  context.o ABSOLUTE
    cpu.c                                    0x00000000   Number         0  cpu.o ABSOLUTE
    cpu.c                                    0x00000000   Number         0  cpu.o ABSOLUTE
    dc.s                                     0x00000000   Number         0  dc.o ABSOLUTE
    fonts\fontfixed6x8.c                     0x00000000   Number         0  fontfixed6x8.o ABSOLUTE
    gpio.c                                   0x00000000   Number         0  gpio.o ABSOLUTE
    i2c.c                                    0x00000000   Number         0  i2c.o ABSOLUTE
    interrupt.c                              0x00000000   Number         0  interrupt.o ABSOLUTE
    line.c                                   0x00000000   Number         0  line.o ABSOLUTE
    opt.c                                    0x00000000   Number         0  opt.o ABSOLUTE
    pwm.c                                    0x00000000   Number         0  pwm.o ABSOLUTE
    rectangle.c                              0x00000000   Number         0  rectangle.o ABSOLUTE
    rgb.c                                    0x00000000   Number         0  rgb.o ABSOLUTE
    servo.c                                  0x00000000   Number         0  servo.o ABSOLUTE
    string.c                                 0x00000000   Number         0  string.o ABSOLUTE
    sysctl.c                                 0x00000000   Number         0  sysctl.o ABSOLUTE
    sysctl.c                                 0x00000000   Number         0  sysctl.o ABSOLUTE
    temp.c                                   0x00000000   Number         0  temp.o ABSOLUTE
    timer.c                                  0x00000000   Number         0  timer.o ABSOLUTE
    !!!main                                  0x00000200   Section        8  __main.o(!!!main)
    !!!scatter                               0x00000208   Section       52  __scatter.o(!!!scatter)
    !!dczerorl                               0x0000023c   Section       58  __dczerorl.o(!!dczerorl)
    !!handler_zi                             0x00000278   Section       28  __scatter_zi.o(!!handler_zi)
    .ARM.Collect$$libinit$$00000000          0x00000294   Section        2  libinit.o(.ARM.Collect$$libinit$$00000000)
    .ARM.Collect$$libinit$$00000001          0x00000296   Section        4  libinit2.o(.ARM.Collect$$libinit$$00000001)
    .ARM.Collect$$libinit$$00000004          0x0000029a   Section        0  libinit2.o(.ARM.Collect$$libinit$$00000004)
    .ARM.Collect$$libinit$$0000000A          0x0000029a   Section        0  libinit2.o(.ARM.Collect$$libinit$$0000000A)
    .ARM.Collect$$libinit$$0000000C          0x0000029a   Section        0  libinit2.o(.ARM.Collect$$libinit$$0000000C)
    .ARM.Collect$$libinit$$0000000E          0x0000029a   Section        0  libinit2.o(.ARM.Collect$$libinit$$0000000E)
    .ARM.Collect$$libinit$$00000011          0x0000029a   Section        0  libinit2.o(.ARM.Collect$$libinit$$00000011)
    .ARM.Collect$$libinit$$00000013          0x0000029a   Section        0  libinit2.o(.ARM.Collect$$libinit$$00000013)
    .ARM.Collect$$libinit$$00000015          0x0000029a   Section        0  libinit2.o(.ARM.Collect$$libinit$$00000015)
    .ARM.Collect$$libinit$$00000017          0x0000029a   Section        0  libinit2.o(.ARM.Collect$$libinit$$00000017)
    .ARM.Collect$$libinit$$00000019          0x0000029a   Section        0  libinit2.o(.ARM.Collect$$libinit$$00000019)
    .ARM.Collect$$libinit$$0000001B          0x0000029a   Section        0  libinit2.o(.ARM.Collect$$libinit$$0000001B)
    .ARM.Collect$$libinit$$0000001D          0x0000029a   Section        0  libinit2.o(.ARM.Collect$$libinit$$0000001D)
    .ARM.Collect$$libinit$$0000001F          0x0000029a   Section        0  libinit2.o(.ARM.Collect$$libinit$$0000001F)
    .ARM.Collect$$libinit$$00000021          0x0000029a   Section        0  libinit2.o(.ARM.Collect$$libinit$$00000021)
    .ARM.Collect$$libinit$$00000023          0x0000029a   Section        0  libinit2.o(.ARM.Collect$$libinit$$00000023)
    .ARM.Collect$$libinit$$00000025          0x0000029a   Section        0  libinit2.o(.ARM.Collect$$libinit$$00000025)
    .ARM.Collect$$libinit$$0000002C          0x0000029a   Section        0  libinit2.o(.ARM.Collect$$libinit$$0000002C)
    .ARM.Collect$$libinit$$0000002E          0x0000029a   Section        0  libinit2.o(.ARM.Collect$$libinit$$0000002E)
    .ARM.Collect$$libinit$$00000030          0x0000029a   Section        0  libinit2.o(.ARM.Collect$$libinit$$00000030)
    .ARM.Collect$$libinit$$00000032          0x0000029a   Section        0  libinit2.o(.ARM.Collect$$libinit$$00000032)
    .ARM.Collect$$libinit$$00000033          0x0000029a   Section        2  libinit2.o(.ARM.Collect$$libinit$$00000033)
    .ARM.Collect$$libshutdown$$00000000      0x0000029c   Section        2  libshutdown.o(.ARM.Collect$$libshutdown$$00000000)
    .ARM.Collect$$libshutdown$$00000002      0x0000029e   Section        0  libshutdown2.o(.ARM.Collect$$libshutdown$$00000002)
    .ARM.Collect$$libshutdown$$00000004      0x0000029e   Section        0  libshutdown2.o(.ARM.Collect$$libshutdown$$00000004)
    .ARM.Collect$$libshutdown$$00000007      0x0000029e   Section        0  libshutdown2.o(.ARM.Collect$$libshutdown$$00000007)
    .ARM.Collect$$libshutdown$$0000000A      0x0000029e   Section        0  libshutdown2.o(.ARM.Collect$$libshutdown$$0000000A)
    .ARM.Collect$$libshutdown$$0000000C      0x0000029e   Section        0  libshutdown2.o(.ARM.Collect$$libshutdown$$0000000C)
    .ARM.Collect$$libshutdown$$0000000F      0x0000029e   Section        0  libshutdown2.o(.ARM.Collect$$libshutdown$$0000000F)
    .ARM.Collect$$libshutdown$$00000010      0x0000029e   Section        2  libshutdown2.o(.ARM.Collect$$libshutdown$$00000010)
    .ARM.Collect$$rtentry$$00000000          0x000002a0   Section        0  __rtentry.o(.ARM.Collect$$rtentry$$00000000)
    .ARM.Collect$$rtentry$$00000002          0x000002a0   Section        0  __rtentry2.o(.ARM.Collect$$rtentry$$00000002)
    .ARM.Collect$$rtentry$$00000004          0x000002a0   Section        6  __rtentry4.o(.ARM.Collect$$rtentry$$00000004)
    .ARM.Collect$$rtentry$$00000009          0x000002a6   Section        0  __rtentry2.o(.ARM.Collect$$rtentry$$00000009)
    .ARM.Collect$$rtentry$$0000000A          0x000002a6   Section        4  __rtentry2.o(.ARM.Collect$$rtentry$$0000000A)
    .ARM.Collect$$rtentry$$0000000B          0x000002aa   Section        8  __rtentry2.o(.ARM.Collect$$rtentry$$0000000B)
    .ARM.Collect$$rtentry$$0000000D          0x000002b2   Section        8  __rtentry2.o(.ARM.Collect$$rtentry$$0000000D)
    .ARM.Collect$$rtexit$$00000000           0x000002ba   Section        2  rtexit.o(.ARM.Collect$$rtexit$$00000000)
    .ARM.Collect$$rtexit$$00000002           0x000002bc   Section        0  rtexit2.o(.ARM.Collect$$rtexit$$00000002)
    .ARM.Collect$$rtexit$$00000003           0x000002bc   Section        4  rtexit2.o(.ARM.Collect$$rtexit$$00000003)
    .ARM.Collect$$rtexit$$00000004           0x000002c0   Section        6  rtexit2.o(.ARM.Collect$$rtexit$$00000004)
    .emb_text                                0x000002c8   Section       28  rtx_conf_cm.o(.emb_text)
    $v0                                      0x000002c8   Number         0  rtx_conf_cm.o(.emb_text)
    .emb_text                                0x000002e4   Section        6  sysctl.o(.emb_text)
    $v0                                      0x000002e4   Number         0  sysctl.o(.emb_text)
    .emb_text                                0x000002ec   Section      408  hal_cm4.o(.emb_text)
    $v0                                      0x000002ec   Number         0  hal_cm4.o(.emb_text)
    .text                                    0x00000484   Section        0  led.o(.text)
    .text                                    0x00000608   Section        0  blinky.o(.text)
    intToString                              0x000006f3   Thumb Code   192  blinky.o(.text)
    .text                                    0x00000de0   Section        0  cfaf128x128x16.o(.text)
    swap_ui16                                0x00000de1   Thumb Code    10  cfaf128x128x16.o(.text)
    swap_i32                                 0x00000deb   Thumb Code    10  cfaf128x128x16.o(.text)
    cfaf128x128x16SsiTransfer                0x00000df5   Thumb Code    56  cfaf128x128x16.o(.text)
    cfaf128x128x16WriteCommand               0x00000e2d   Thumb Code    60  cfaf128x128x16.o(.text)
    cfaf128x128x16WriteData                  0x00000e69   Thumb Code    74  cfaf128x128x16.o(.text)
    cfaf128x128x16WriteRegister              0x00000eb3   Thumb Code    20  cfaf128x128x16.o(.text)
    cfaf128x128x16SetWindow                  0x00000ec7   Thumb Code   206  cfaf128x128x16.o(.text)
    cfaf128x128x16PixelDraw                  0x00001085   Thumb Code    28  cfaf128x128x16.o(.text)
    cfaf128x128x16PixelDrawMultiple          0x000010a1   Thumb Code   490  cfaf128x128x16.o(.text)
    cfaf128x128x16LineDrawH                  0x0000128b   Thumb Code    48  cfaf128x128x16.o(.text)
    cfaf128x128x16LineDrawV                  0x000012bb   Thumb Code    48  cfaf128x128x16.o(.text)
    cfaf128x128x16RectFill                   0x000012eb   Thumb Code   100  cfaf128x128x16.o(.text)
    cfaf128x128x16ColorTranslate             0x0000134f   Thumb Code    24  cfaf128x128x16.o(.text)
    cfaf128x128x16Flush                      0x00001367   Thumb Code     2  cfaf128x128x16.o(.text)
    ssiSetDataMode                           0x000013e1   Thumb Code    22  cfaf128x128x16.o(.text)
    ssiSetClockDivider                       0x000013f7   Thumb Code     6  cfaf128x128x16.o(.text)
    .text                                    0x00001680   Section        0  servo.o(.text)
    .text                                    0x00001748   Section        0  rgb.o(.text)
    .text                                    0x000019cc   Section        0  temp.o(.text)
    send_single                              0x000019cd   Thumb Code   114  temp.o(.text)
    receive_single                           0x00001a3f   Thumb Code   128  temp.o(.text)
    send_multiple                            0x00001abf   Thumb Code   402  temp.o(.text)
    receive_multiple                         0x00001c51   Thumb Code   418  temp.o(.text)
    write_reg                                0x00001df3   Thumb Code    42  temp.o(.text)
    read_reg                                 0x00001e1d   Thumb Code    54  temp.o(.text)
    temp_int_callback                        0x00001e6b   Thumb Code    24  temp.o(.text)
    .text                                    0x00001fa4   Section        0  opt.o(.text)
    send_single                              0x00001fa5   Thumb Code   114  opt.o(.text)
    receive_single                           0x00002017   Thumb Code   128  opt.o(.text)
    send_multiple                            0x00002097   Thumb Code   402  opt.o(.text)
    receive_multiple                         0x00002229   Thumb Code   418  opt.o(.text)
    write_reg                                0x000023cb   Thumb Code    42  opt.o(.text)
    read_reg                                 0x000023f5   Thumb Code    54  opt.o(.text)
    temp_int_callback                        0x00002437   Thumb Code    24  opt.o(.text)
    .text                                    0x000025e0   Section        0  rtx_conf_cm.o(.text)
    __tagsym$$used                           0x0000264b   Number         0  rtx_conf_cm.o(.text)
    __tagsym$$used                           0x00002661   Number         0  rtx_conf_cm.o(.text)
    .text                                    0x00002690   Section      300  startup_tm4c129.o(.text)
    $v0                                      0x00002690   Number         0  startup_tm4c129.o(.text)
    .text                                    0x000027bc   Section        0  system_tm4c129.o(.text)
    .text                                    0x000027e4   Section        8  libspace.o(.text)
    .text                                    0x000027ec   Section      238  lludivv7m.o(.text)
    .text                                    0x000028da   Section       72  llsdiv.o(.text)
    .text                                    0x00002922   Section        0  exit.o(.text)
    .text                                    0x00002934   Section        0  heapauxi.o(.text)
    .text                                    0x0000293a   Section        0  _rserrno.o(.text)
    .text                                    0x00002950   Section        4  rt_errno_addr_twolibspace.o(.text)
    .text                                    0x00002954   Section        0  sys_exit.o(.text)
    .text                                    0x00002960   Section       74  sys_stackheap_outer.o(.text)
    .text                                    0x000029aa   Section        2  use_no_semi.o(.text)
    .text                                    0x000029ac   Section        0  indicate_semi.o(.text)
    SVC_TABLE                                0x000029ac   Section        4  svc_table.o(SVC_TABLE)
    i.GPIODirModeSet                         0x000029b0   Section        0  gpio.o(i.GPIODirModeSet)
    i.GPIOPadConfigSet                       0x000029d8   Section        0  gpio.o(i.GPIOPadConfigSet)
    i.GPIOPinConfigure                       0x00002b10   Section        0  gpio.o(i.GPIOPinConfigure)
    i.GPIOPinTypeGPIOInput                   0x00002b54   Section        0  gpio.o(i.GPIOPinTypeGPIOInput)
    i.GPIOPinTypeI2C                         0x00002b70   Section        0  gpio.o(i.GPIOPinTypeI2C)
    i.GPIOPinTypeI2CSCL                      0x00002b8c   Section        0  gpio.o(i.GPIOPinTypeI2CSCL)
    i.GPIOPinTypePWM                         0x00002ba8   Section        0  gpio.o(i.GPIOPinTypePWM)
    i.GPIOPinTypeTimer                       0x00002bc4   Section        0  gpio.o(i.GPIOPinTypeTimer)
    i.GrContextFontSet                       0x00002be0   Section        0  string.o(i.GrContextFontSet)
    i.GrContextInit                          0x00002be8   Section        0  context.o(i.GrContextInit)
    i.GrDefaultStringRenderer                0x00002c4c   Section        0  string.o(i.GrDefaultStringRenderer)
    i.GrFontBaselineGet                      0x00002d64   Section        0  string.o(i.GrFontBaselineGet)
    i.GrFontGlyphDataGet                     0x00002d90   Section        0  string.o(i.GrFontGlyphDataGet)
    i.GrFontGlyphRender                      0x00002e36   Section        0  string.o(i.GrFontGlyphRender)
    i.GrMapISO8859_1_Unicode                 0x000030be   Section        0  charmap.o(i.GrMapISO8859_1_Unicode)
    i.GrRectFill                             0x000030c6   Section        0  rectangle.o(i.GrRectFill)
    i.GrStringDraw                           0x0000317a   Section        0  string.o(i.GrStringDraw)
    i.GrStringWidthGet                       0x0000319a   Section        0  string.o(i.GrStringWidthGet)
    i.I2CIntRegister                         0x0000325c   Section        0  i2c.o(i.I2CIntRegister)
    i.I2CMasterBurstLengthSet                0x000032bc   Section        0  i2c.o(i.I2CMasterBurstLengthSet)
    i.I2CMasterBusBusy                       0x000032c0   Section        0  i2c.o(i.I2CMasterBusBusy)
    i.I2CMasterBusy                          0x000032cc   Section        0  i2c.o(i.I2CMasterBusy)
    i.I2CMasterControl                       0x000032d8   Section        0  i2c.o(i.I2CMasterControl)
    i.I2CMasterDataGet                       0x000032dc   Section        0  i2c.o(i.I2CMasterDataGet)
    i.I2CMasterDataPut                       0x000032e0   Section        0  i2c.o(i.I2CMasterDataPut)
    i.I2CMasterEnable                        0x000032e4   Section        0  i2c.o(i.I2CMasterEnable)
    i.I2CMasterErr                           0x000032ee   Section        0  i2c.o(i.I2CMasterErr)
    i.I2CMasterGlitchFilterConfigSet         0x00003308   Section        0  i2c.o(i.I2CMasterGlitchFilterConfigSet)
    i.I2CMasterInitExpClk                    0x0000335c   Section        0  i2c.o(i.I2CMasterInitExpClk)
    i.I2CMasterIntClear                      0x000033b0   Section        0  i2c.o(i.I2CMasterIntClear)
    i.I2CMasterIntClearEx                    0x000033b8   Section        0  i2c.o(i.I2CMasterIntClearEx)
    i.I2CMasterIntEnableEx                   0x000033bc   Section        0  i2c.o(i.I2CMasterIntEnableEx)
    i.I2CMasterSlaveAddrSet                  0x000033c4   Section        0  i2c.o(i.I2CMasterSlaveAddrSet)
    i.I2CMasterTimeoutSet                    0x000033cc   Section        0  i2c.o(i.I2CMasterTimeoutSet)
    i.IntEnable                              0x000033d0   Section        0  interrupt.o(i.IntEnable)
    i.IntRegister                            0x00003434   Section        0  interrupt.o(i.IntRegister)
    i.PWMClockSet                            0x00003468   Section        0  pwm.o(i.PWMClockSet)
    i.PWMGenConfigure                        0x0000347c   Section        0  pwm.o(i.PWMGenConfigure)
    i.PWMGenDisable                          0x000034a2   Section        0  pwm.o(i.PWMGenDisable)
    i.PWMGenEnable                           0x000034ac   Section        0  pwm.o(i.PWMGenEnable)
    i.PWMGenPeriodGet                        0x000034b6   Section        0  pwm.o(i.PWMGenPeriodGet)
    i.PWMGenPeriodSet                        0x000034c8   Section        0  pwm.o(i.PWMGenPeriodSet)
    i.PWMOutputState                         0x000034da   Section        0  pwm.o(i.PWMOutputState)
    i.PWMPulseWidthSet                       0x000034ea   Section        0  pwm.o(i.PWMPulseWidthSet)
    i.SysCtlClockFreqSet                     0x0000350c   Section        0  sysctl.o(i.SysCtlClockFreqSet)
    i.SysCtlPeripheralEnable                 0x000037f8   Section        0  sysctl.o(i.SysCtlPeripheralEnable)
    i.SysCtlPeripheralReady                  0x00003820   Section        0  sysctl.o(i.SysCtlPeripheralReady)
    i.SysCtlPeripheralReset                  0x0000384c   Section        0  sysctl.o(i.SysCtlPeripheralReset)
    i.TimerClockSourceSet                    0x00003888   Section        0  timer.o(i.TimerClockSourceSet)
    i.TimerConfigure                         0x00003890   Section        0  timer.o(i.TimerConfigure)
    i.TimerControlLevel                      0x000038f0   Section        0  timer.o(i.TimerControlLevel)
    i.TimerEnable                            0x00003906   Section        0  timer.o(i.TimerEnable)
    i.TimerLoadSet                           0x00003914   Section        0  timer.o(i.TimerLoadSet)
    i.TimerMatchSet                          0x00003926   Section        0  timer.o(i.TimerMatchSet)
    i.TimerPrescaleSet                       0x00003938   Section        0  timer.o(i.TimerPrescaleSet)
    i.TimerUpdateMode                        0x0000394a   Section        0  timer.o(i.TimerUpdateMode)
    i.UpdateContextCharMapping               0x00003974   Section        0  string.o(i.UpdateContextCharMapping)
    UpdateContextCharMapping                 0x00003975   Thumb Code   108  string.o(i.UpdateContextCharMapping)
    i.__ARM_fpclassify                       0x000039e0   Section        0  fpclassify.o(i.__ARM_fpclassify)
    i.__hardfp_pow                           0x00003a10   Section        0  pow.o(i.__hardfp_pow)
    i.__kernel_poly                          0x00004660   Section        0  poly.o(i.__kernel_poly)
    i.__mathlib_dbl_divzero                  0x00004758   Section        0  dunder.o(i.__mathlib_dbl_divzero)
    i.__mathlib_dbl_infnan2                  0x00004788   Section        0  dunder.o(i.__mathlib_dbl_infnan2)
    i.__mathlib_dbl_invalid                  0x000047a0   Section        0  dunder.o(i.__mathlib_dbl_invalid)
    i.__mathlib_dbl_overflow                 0x000047c0   Section        0  dunder.o(i.__mathlib_dbl_overflow)
    i.__mathlib_dbl_underflow                0x000047e0   Section        0  dunder.o(i.__mathlib_dbl_underflow)
    i._init_box                              0x00004800   Section        0  rt_membox.o(i._init_box)
    i.dbg_init                               0x00004848   Section        0  hal_cm.o(i.dbg_init)
    i.dbg_task_notify                        0x00004878   Section        0  hal_cm.o(i.dbg_task_notify)
    i.dbg_task_switch                        0x00004898   Section        0  hal_cm.o(i.dbg_task_switch)
    i.fabs                                   0x000048a8   Section        0  fabs.o(i.fabs)
    i.isrMessageGet                          0x000048c0   Section        0  rt_cmsis.o(i.isrMessageGet)
    i.isrMessagePut                          0x000048ea   Section        0  rt_cmsis.o(i.isrMessagePut)
    i.isrSignalSet                           0x00004916   Section        0  rt_cmsis.o(i.isrSignalSet)
    i.isr_evt_set                            0x0000493c   Section        0  rt_event.o(i.isr_evt_set)
    i.isr_mbx_receive                        0x00004964   Section        0  rt_mailbox.o(i.isr_mbx_receive)
    i.isr_mbx_send                           0x000049ba   Section        0  rt_mailbox.o(i.isr_mbx_send)
    i.osDelay                                0x000049c8   Section        0  rt_cmsis.o(i.osDelay)
    i.osKernelInitialize                     0x000049e0   Section        0  rt_cmsis.o(i.osKernelInitialize)
    i.osKernelStart                          0x00004a04   Section        0  rt_cmsis.o(i.osKernelStart)
    i.osMessageGet                           0x00004a70   Section        0  rt_cmsis.o(i.osMessageGet)
    i.osSignalSet                            0x00004a88   Section        0  rt_cmsis.o(i.osSignalSet)
    i.osSignalWait                           0x00004aa0   Section        0  rt_cmsis.o(i.osSignalWait)
    i.osThreadCreate                         0x00004ab8   Section        0  rt_cmsis.o(i.osThreadCreate)
    i.osThreadExit                           0x00004ae4   Section        0  rt_cmsis.o(i.osThreadExit)
    i.osTimerCall                            0x00004afc   Section        0  rt_cmsis.o(i.osTimerCall)
    i.osTimerThread                          0x00004b08   Section        0  rt_cmsis.o(i.osTimerThread)
    i.os_tick_init                           0x00004b34   Section        0  rt_system.o(i.os_tick_init)
    i.os_tick_irqack                         0x00004b5c   Section        0  rt_system.o(i.os_tick_irqack)
    i.rt_alloc_box                           0x00004b5e   Section        0  rt_membox.o(i.rt_alloc_box)
    i.rt_alloc_mem                           0x00004b78   Section        0  rt_memory.o(i.rt_alloc_mem)
    i.rt_block                               0x00004bb8   Section        0  rt_task.o(i.rt_block)
    i.rt_dec_dly                             0x00004bf0   Section        0  rt_list.o(i.rt_dec_dly)
    i.rt_dispatch                            0x00004c60   Section        0  rt_task.o(i.rt_dispatch)
    i.rt_dly_wait                            0x00004ca4   Section        0  rt_time.o(i.rt_dly_wait)
    i.rt_evt_psh                             0x00004cac   Section        0  rt_event.o(i.rt_evt_psh)
    i.rt_evt_set                             0x00004cfc   Section        0  rt_event.o(i.rt_evt_set)
    i.rt_evt_wait                            0x00004d58   Section        0  rt_event.o(i.rt_evt_wait)
    i.rt_free_box                            0x00004d94   Section        0  rt_membox.o(i.rt_free_box)
    i.rt_free_mem                            0x00004dc0   Section        0  rt_memory.o(i.rt_free_mem)
    i.rt_get_first                           0x00004de8   Section        0  rt_list.o(i.rt_get_first)
    i.rt_id2obj                              0x00004e10   Section        0  rt_cmsis.o(i.rt_id2obj)
    rt_id2obj                                0x00004e11   Thumb Code     8  rt_cmsis.o(i.rt_id2obj)
    i.rt_init_context                        0x00004e18   Section        0  rt_task.o(i.rt_init_context)
    rt_init_context                          0x00004e19   Thumb Code    66  rt_task.o(i.rt_init_context)
    i.rt_init_mem                            0x00004e60   Section        0  rt_memory.o(i.rt_init_mem)
    i.rt_init_stack                          0x00004e7c   Section        0  hal_cm.o(i.rt_init_stack)
    i.rt_mbx_check                           0x00004efc   Section        0  rt_mailbox.o(i.rt_mbx_check)
    i.rt_mbx_init                            0x00004f04   Section        0  rt_mailbox.o(i.rt_mbx_init)
    i.rt_mbx_psh                             0x00004f20   Section        0  rt_mailbox.o(i.rt_mbx_psh)
    i.rt_mbx_wait                            0x00005010   Section        0  rt_mailbox.o(i.rt_mbx_wait)
    i.rt_ms2tick                             0x000050c4   Section        0  rt_cmsis.o(i.rt_ms2tick)
    rt_ms2tick                               0x000050c5   Thumb Code    58  rt_cmsis.o(i.rt_ms2tick)
    i.rt_mut_init                            0x00005108   Section        0  rt_mutex.o(i.rt_mut_init)
    i.rt_mut_release                         0x00005118   Section        0  rt_mutex.o(i.rt_mut_release)
    i.rt_mut_wait                            0x000051f0   Section        0  rt_mutex.o(i.rt_mut_wait)
    i.rt_pop_req                             0x00005268   Section        0  rt_system.o(i.rt_pop_req)
    i.rt_psh_req                             0x000052e4   Section        0  rt_system.o(i.rt_psh_req)
    i.rt_psq_enq                             0x00005304   Section        0  rt_list.o(i.rt_psq_enq)
    i.rt_put_dly                             0x00005360   Section        0  rt_list.o(i.rt_put_dly)
    i.rt_put_prio                            0x000053a8   Section        0  rt_list.o(i.rt_put_prio)
    i.rt_put_rdy_first                       0x000053e0   Section        0  rt_list.o(i.rt_put_rdy_first)
    i.rt_resort_prio                         0x000053f4   Section        0  rt_list.o(i.rt_resort_prio)
    i.rt_ret_regs                            0x00005428   Section        0  hal_cm.o(i.rt_ret_regs)
    rt_ret_regs                              0x00005429   Thumb Code    16  hal_cm.o(i.rt_ret_regs)
    i.rt_ret_val                             0x00005438   Section        0  hal_cm.o(i.rt_ret_val)
    i.rt_ret_val2                            0x00005444   Section        0  hal_cm.o(i.rt_ret_val2)
    i.rt_rmv_dly                             0x00005454   Section        0  rt_list.o(i.rt_rmv_dly)
    i.rt_rmv_list                            0x0000547c   Section        0  rt_list.o(i.rt_rmv_list)
    i.rt_sem_psh                             0x000054ac   Section        0  rt_semaphore.o(i.rt_sem_psh)
    i.rt_stk_check                           0x000054e0   Section        0  rt_system.o(i.rt_stk_check)
    i.rt_switch_req                          0x00005504   Section        0  rt_task.o(i.rt_switch_req)
    i.rt_sys_init                            0x0000552c   Section        0  rt_task.o(i.rt_sys_init)
    i.rt_sys_start                           0x000055f8   Section        0  rt_task.o(i.rt_sys_start)
    i.rt_systick                             0x00005670   Section        0  rt_system.o(i.rt_systick)
    i.rt_tid2ptcb                            0x000056b0   Section        0  rt_cmsis.o(i.rt_tid2ptcb)
    rt_tid2ptcb                              0x000056b1   Thumb Code    18  rt_cmsis.o(i.rt_tid2ptcb)
    i.rt_timer_insert                        0x000056c4   Section        0  rt_cmsis.o(i.rt_timer_insert)
    rt_timer_insert                          0x000056c5   Thumb Code    48  rt_cmsis.o(i.rt_timer_insert)
    i.rt_tsk_create                          0x000056f8   Section        0  rt_task.o(i.rt_tsk_create)
    i.rt_tsk_delete                          0x00005780   Section        0  rt_task.o(i.rt_tsk_delete)
    i.rt_tsk_prio                            0x000058fc   Section        0  rt_task.o(i.rt_tsk_prio)
    i.rt_tsk_self                            0x00005978   Section        0  rt_task.o(i.rt_tsk_self)
    i.sqrt                                   0x00005988   Section        0  sqrt.o(i.sqrt)
    i.svcDelay                               0x000059f6   Section        0  rt_cmsis.o(i.svcDelay)
    i.svcKernelInitialize                    0x00005a08   Section        0  rt_cmsis.o(i.svcKernelInitialize)
    i.svcKernelStart                         0x00005a78   Section        0  rt_cmsis.o(i.svcKernelStart)
    i.svcMessageCreate                       0x00005ac0   Section        0  rt_cmsis.o(i.svcMessageCreate)
    i.svcMessageGet                          0x00005ae4   Section        0  rt_cmsis.o(i.svcMessageGet)
    i.svcSignalSet                           0x00005b1e   Section        0  rt_cmsis.o(i.svcSignalSet)
    i.svcSignalWait                          0x00005b44   Section        0  rt_cmsis.o(i.svcSignalWait)
    i.svcThreadCreate                        0x00005b98   Section        0  rt_cmsis.o(i.svcThreadCreate)
    i.svcThreadGetId                         0x00005c04   Section        0  rt_cmsis.o(i.svcThreadGetId)
    i.svcThreadTerminate                     0x00005c20   Section        0  rt_cmsis.o(i.svcThreadTerminate)
    i.svcTimerCall                           0x00005c58   Section        0  rt_cmsis.o(i.svcTimerCall)
    i.sysTimerTick                           0x00005c70   Section        0  rt_cmsis.o(i.sysTimerTick)
    x$fpl$basic                              0x00005ccc   Section       24  basic.o(x$fpl$basic)
    $v0                                      0x00005ccc   Number         0  basic.o(x$fpl$basic)
    x$fpl$dadd                               0x00005ce4   Section      336  daddsub_clz.o(x$fpl$dadd)
    $v0                                      0x00005ce4   Number         0  daddsub_clz.o(x$fpl$dadd)
    _dadd1                                   0x00005cf5   Thumb Code     0  daddsub_clz.o(x$fpl$dadd)
    x$fpl$dcheck1                            0x00005e34   Section       16  dcheck1.o(x$fpl$dcheck1)
    $v0                                      0x00005e34   Number         0  dcheck1.o(x$fpl$dcheck1)
    x$fpl$dcmpinf                            0x00005e44   Section       24  dcmpi.o(x$fpl$dcmpinf)
    $v0                                      0x00005e44   Number         0  dcmpi.o(x$fpl$dcmpinf)
    x$fpl$ddiv                               0x00005e5c   Section      688  ddiv.o(x$fpl$ddiv)
    $v0                                      0x00005e5c   Number         0  ddiv.o(x$fpl$ddiv)
    ddiv_entry                               0x00005e63   Thumb Code     0  ddiv.o(x$fpl$ddiv)
    x$fpl$dfix                               0x0000610c   Section       94  dfix.o(x$fpl$dfix)
    $v0                                      0x0000610c   Number         0  dfix.o(x$fpl$dfix)
    x$fpl$dflt                               0x0000616a   Section       46  dflt_clz.o(x$fpl$dflt)
    $v0                                      0x0000616a   Number         0  dflt_clz.o(x$fpl$dflt)
    x$fpl$dleqf                              0x00006198   Section      120  dleqf.o(x$fpl$dleqf)
    $v0                                      0x00006198   Number         0  dleqf.o(x$fpl$dleqf)
    x$fpl$dmul                               0x00006210   Section      340  dmul.o(x$fpl$dmul)
    $v0                                      0x00006210   Number         0  dmul.o(x$fpl$dmul)
    x$fpl$dnaninf                            0x00006364   Section      156  dnaninf.o(x$fpl$dnaninf)
    $v0                                      0x00006364   Number         0  dnaninf.o(x$fpl$dnaninf)
    x$fpl$dretinf                            0x00006400   Section       12  dretinf.o(x$fpl$dretinf)
    $v0                                      0x00006400   Number         0  dretinf.o(x$fpl$dretinf)
    x$fpl$drleqf                             0x0000640c   Section      108  drleqf.o(x$fpl$drleqf)
    $v0                                      0x0000640c   Number         0  drleqf.o(x$fpl$drleqf)
    x$fpl$drsb                               0x00006478   Section       22  daddsub_clz.o(x$fpl$drsb)
    $v0                                      0x00006478   Number         0  daddsub_clz.o(x$fpl$drsb)
    x$fpl$dsqrt                              0x00006490   Section      408  dsqrt_umaal.o(x$fpl$dsqrt)
    $v0                                      0x00006490   Number         0  dsqrt_umaal.o(x$fpl$dsqrt)
    x$fpl$dsub                               0x00006628   Section      468  daddsub_clz.o(x$fpl$dsub)
    $v0                                      0x00006628   Number         0  daddsub_clz.o(x$fpl$dsub)
    _dsub1                                   0x00006639   Thumb Code     0  daddsub_clz.o(x$fpl$dsub)
    x$fpl$fpinit                             0x000067fc   Section       10  fpinit.o(x$fpl$fpinit)
    $v0                                      0x000067fc   Number         0  fpinit.o(x$fpl$fpinit)
    x$fpl$retnan                             0x00006806   Section      100  retnan.o(x$fpl$retnan)
    $v0                                      0x00006806   Number         0  retnan.o(x$fpl$retnan)
    x$fpl$scalbn                             0x0000686a   Section       92  scalbn.o(x$fpl$scalbn)
    $v0                                      0x0000686a   Number         0  scalbn.o(x$fpl$scalbn)
    x$fpl$trapveneer                         0x000068c6   Section       48  trapv.o(x$fpl$trapveneer)
    $v0                                      0x000068c6   Number         0  trapv.o(x$fpl$trapveneer)
    x$fpl$usenofp                            0x000068f6   Section        0  usenofp.o(x$fpl$usenofp)
    .constdata                               0x000068f8   Section       16  led.o(.constdata)
    .constdata                               0x00006908   Section       80  blinky.o(.constdata)
    .constdata                               0x00006958   Section       64  cfaf128x128x16.o(.constdata)
    .constdata                               0x00006998   Section      104  rtx_conf_cm.o(.constdata)
    __tagsym$$used                           0x000069b4   Number         0  rtx_conf_cm.o(.constdata)
    __tagsym$$used                           0x000069b8   Number         0  rtx_conf_cm.o(.constdata)
    __tagsym$$used                           0x000069bc   Number         0  rtx_conf_cm.o(.constdata)
    __tagsym$$used                           0x000069c0   Number         0  rtx_conf_cm.o(.constdata)
    .constdata                               0x00006a00   Section      552  gpio.o(.constdata)
    g_ppui32GPIOIntMapBlizzard               0x00006a00   Data         192  gpio.o(.constdata)
    g_ppui32GPIOIntMapSnowflake              0x00006ac0   Data         216  gpio.o(.constdata)
    g_pui32GPIOBaseAddrs                     0x00006b98   Data         144  gpio.o(.constdata)
    .constdata                               0x00006c28   Section      128  i2c.o(.constdata)
    g_ppui32I2CIntMap                        0x00006c28   Data          48  i2c.o(.constdata)
    g_ppui32I2CIntMapSnowflake               0x00006c58   Data          80  i2c.o(.constdata)
    .constdata                               0x00006ca8   Section      268  interrupt.o(.constdata)
    g_pui32Priority                          0x00006ca8   Data          32  interrupt.o(.constdata)
    g_pui32Regs                              0x00006cc8   Data         156  interrupt.o(.constdata)
    g_pui32EnRegs                            0x00006d64   Data          20  interrupt.o(.constdata)
    g_pui32Dii16Regs                         0x00006d78   Data          20  interrupt.o(.constdata)
    g_pui32PendRegs                          0x00006d8c   Data          20  interrupt.o(.constdata)
    g_pui32UnpendRegs                        0x00006da0   Data          20  interrupt.o(.constdata)
    .constdata                               0x00006db4   Section      596  sysctl.o(.constdata)
    g_pui32VCOFrequencies                    0x00006db4   Data           8  sysctl.o(.constdata)
    g_pui32Xtals                             0x00006dbc   Data         108  sysctl.o(.constdata)
    g_pppui32XTALtoVCO                       0x00006e28   Data         432  sysctl.o(.constdata)
    g_sXTALtoMEMTIM                          0x00006fd8   Data          48  sysctl.o(.constdata)
    .constdata                               0x00007008   Section       16  context.o(.constdata)
    .constdata                               0x00007018   Section      760  fontfixed6x8.o(.constdata)
    g_pui8FontFixed6x8Data                   0x00007018   Data         760  fontfixed6x8.o(.constdata)
    .constdata                               0x00007310   Section      200  fontfixed6x8.o(.constdata)
    .constdata                               0x000073d8   Section      136  pow.o(.constdata)
    bp                                       0x000073d8   Data          16  pow.o(.constdata)
    dp_h                                     0x000073e8   Data          16  pow.o(.constdata)
    dp_l                                     0x000073f8   Data          16  pow.o(.constdata)
    L                                        0x00007408   Data          48  pow.o(.constdata)
    P                                        0x00007438   Data          40  pow.o(.constdata)
    .constdata                               0x00007460   Section        8  qnan.o(.constdata)
    .conststring                             0x00007468   Section       37  blinky.o(.conststring)
    .data                                    0x20000000   Section       36  blinky.o(.data)
    S01                                      0x20000018   Data           8  blinky.o(.data)
    pAscii                                   0x20000020   Data           4  blinky.o(.data)
    .data                                    0x20000024   Section        5  cfaf128x128x16.o(.data)
    g_ui32SysClock                           0x20000024   Data           4  cfaf128x128x16.o(.data)
    _orientation                             0x20000028   Data           1  cfaf128x128x16.o(.data)
    .data                                    0x2000002c   Section        4  servo.o(.data)
    g_ui32SysClock                           0x2000002c   Data           4  servo.o(.data)
    .data                                    0x20000030   Section        7  rgb.o(.data)
    g_ui32SysClock                           0x20000030   Data           4  rgb.o(.data)
    enabled                                  0x20000034   Data           1  rgb.o(.data)
    enabled                                  0x20000035   Data           1  rgb.o(.data)
    enabled                                  0x20000036   Data           1  rgb.o(.data)
    .data                                    0x20000038   Section       11  temp.o(.data)
    g_ui32SysClock                           0x20000038   Data           4  temp.o(.data)
    g_mid                                    0x2000003c   Data           2  temp.o(.data)
    g_did                                    0x2000003e   Data           2  temp.o(.data)
    g_timeout_count                          0x20000040   Data           2  temp.o(.data)
    g_sentFlag                               0x20000042   Data           1  temp.o(.data)
    .data                                    0x20000044   Section       15  opt.o(.data)
    g_ui32SysClock                           0x20000044   Data           4  opt.o(.data)
    mid                                      0x20000048   Data           2  opt.o(.data)
    did                                      0x2000004a   Data           2  opt.o(.data)
    g_mid                                    0x2000004c   Data           2  opt.o(.data)
    g_did                                    0x2000004e   Data           2  opt.o(.data)
    g_timeout_count                          0x20000050   Data           2  opt.o(.data)
    g_sentFlag                               0x20000052   Data           1  opt.o(.data)
    .data                                    0x20000054   Section       20  rtx_conf_cm.o(.data)
    nr_mutex                                 0x20000064   Data           4  rtx_conf_cm.o(.data)
    .data                                    0x20000068   Section        4  system_tm4c129.o(.data)
    .data                                    0x2000006c   Section        4  context.o(.data)
    g_psGrLibDefaults                        0x2000006c   Data           4  context.o(.data)
    .data                                    0x20000070   Section        8  rt_cmsis.o(.data)
    .data                                    0x20000078   Section        8  rt_task.o(.data)
    .data                                    0x20000080   Section        8  rt_system.o(.data)
    os_lock                                  0x20000080   Data           1  rt_system.o(.data)
    os_psh_flag                              0x20000081   Data           1  rt_system.o(.data)
    pend_flags                               0x20000082   Data           1  rt_system.o(.data)
    .data                                    0x20000088   Section        4  rt_time.o(.data)
    .data                                    0x2000008c   Section        1  hal_cm.o(.data)
    vtable                                   0x20000400   Section      620  interrupt.o(vtable)
    g_pfnRAMVectors                          0x20000400   Data         620  interrupt.o(vtable)
    .bss                                     0x20000670   Section     9120  rtx_conf_cm.o(.bss)
    std_libspace                             0x20002630   Data         864  rtx_conf_cm.o(.bss)
    std_libmutex                             0x20002990   Data         128  rtx_conf_cm.o(.bss)
    .bss                                     0x20002a10   Section       52  rt_task.o(.bss)
    .bss                                     0x20002a44   Section       48  rt_list.o(.bss)
    .bss                                     0x20002a74   Section       96  libspace.o(.bss)
    HEAP                                     0x20002ad8   Section        0  startup_tm4c129.o(HEAP)
    STACK                                    0x20002ad8   Section      512  startup_tm4c129.o(STACK)
    Heap_Mem                                 0x20002ad8   Data           0  startup_tm4c129.o(HEAP)
    Stack_Mem                                0x20002ad8   Data         512  startup_tm4c129.o(STACK)
    __initial_sp                             0x20002cd8   Data           0  startup_tm4c129.o(STACK)

    Global Symbols

    Symbol Name                              Value     Ov Type        Size  Object(Section)

    BuildAttributes$$THM_ISAv4$E$P$D$K$B$S$7EM$VFPi3$EXTD16$VFPS$VFMA$PE$A:L22UL41UL21$X:L11$S22US41US21$IEEE1$IW$USESV6$~STKCKD$USESV7$~SHL$OTIME$ROPI$IEEEX$EBA8$UX$STANDARDLIB$REQ8$PRES8$EABIv2 0x00000000   Number         0  anon$$obj.o ABSOLUTE
    __ARM_use_no_argv                        0x00000000   Number         0  blinky.o ABSOLUTE
    __Vectors                                0x00000000   Data           4  startup_tm4c129.o(RESET)
    __ARM_exceptions_init                     - Undefined Weak Reference
    __alloca_initialize                       - Undefined Weak Reference
    __arm_preinit_                            - Undefined Weak Reference
    __cpp_initialize__aeabi_                  - Undefined Weak Reference
    __cxa_finalize                            - Undefined Weak Reference
    __rt_locale                               - Undefined Weak Reference
    __sigvec_lookup                           - Undefined Weak Reference
    _atexit_init                              - Undefined Weak Reference
    _call_atexit_fns                          - Undefined Weak Reference
    _clock_init                               - Undefined Weak Reference
    _fp_trap_init                             - Undefined Weak Reference
    _fp_trap_shutdown                         - Undefined Weak Reference
    _get_lc_collate                           - Undefined Weak Reference
    _get_lc_ctype                             - Undefined Weak Reference
    _get_lc_monetary                          - Undefined Weak Reference
    _get_lc_numeric                           - Undefined Weak Reference
    _get_lc_time                              - Undefined Weak Reference
    _getenv_init                              - Undefined Weak Reference
    _handle_redirection                       - Undefined Weak Reference
    _init_alloc                               - Undefined Weak Reference
    _init_user_alloc                          - Undefined Weak Reference
    _initio                                   - Undefined Weak Reference
    _rand_init                                - Undefined Weak Reference
    _signal_finish                            - Undefined Weak Reference
    _signal_init                              - Undefined Weak Reference
    _terminate_alloc                          - Undefined Weak Reference
    _terminate_user_alloc                     - Undefined Weak Reference
    _terminateio                              - Undefined Weak Reference
    __Vectors_End                            0x00000200   Data           0  startup_tm4c129.o(RESET)
    __Vectors_Size                           0x00000200   Number         0  startup_tm4c129.o ABSOLUTE
    __main                                   0x00000201   Thumb Code     8  __main.o(!!!main)
    __scatterload                            0x00000209   Thumb Code     0  __scatter.o(!!!scatter)
    __scatterload_rt2                        0x00000209   Thumb Code    44  __scatter.o(!!!scatter)
    __scatterload_rt2_thumb_only             0x00000209   Thumb Code     0  __scatter.o(!!!scatter)
    __scatterload_null                       0x00000217   Thumb Code     0  __scatter.o(!!!scatter)
    __decompress                             0x0000023d   Thumb Code    58  __dczerorl.o(!!dczerorl)
    __decompress0                            0x0000023d   Thumb Code     0  __dczerorl.o(!!dczerorl)
    __scatterload_zeroinit                   0x00000279   Thumb Code    28  __scatter_zi.o(!!handler_zi)
    __rt_lib_init                            0x00000295   Thumb Code     0  libinit.o(.ARM.Collect$$libinit$$00000000)
    __rt_lib_init_fp_1                       0x00000297   Thumb Code     0  libinit2.o(.ARM.Collect$$libinit$$00000001)
    __rt_lib_init_alloca_1                   0x0000029b   Thumb Code     0  libinit2.o(.ARM.Collect$$libinit$$0000002E)
    __rt_lib_init_argv_1                     0x0000029b   Thumb Code     0  libinit2.o(.ARM.Collect$$libinit$$0000002C)
    __rt_lib_init_atexit_1                   0x0000029b   Thumb Code     0  libinit2.o(.ARM.Collect$$libinit$$0000001B)
    __rt_lib_init_clock_1                    0x0000029b   Thumb Code     0  libinit2.o(.ARM.Collect$$libinit$$00000021)
    __rt_lib_init_cpp_1                      0x0000029b   Thumb Code     0  libinit2.o(.ARM.Collect$$libinit$$00000032)
    __rt_lib_init_exceptions_1               0x0000029b   Thumb Code     0  libinit2.o(.ARM.Collect$$libinit$$00000030)
    __rt_lib_init_fp_trap_1                  0x0000029b   Thumb Code     0  libinit2.o(.ARM.Collect$$libinit$$0000001F)
    __rt_lib_init_getenv_1                   0x0000029b   Thumb Code     0  libinit2.o(.ARM.Collect$$libinit$$00000023)
    __rt_lib_init_heap_1                     0x0000029b   Thumb Code     0  libinit2.o(.ARM.Collect$$libinit$$0000000A)
    __rt_lib_init_lc_collate_1               0x0000029b   Thumb Code     0  libinit2.o(.ARM.Collect$$libinit$$00000011)
    __rt_lib_init_lc_ctype_1                 0x0000029b   Thumb Code     0  libinit2.o(.ARM.Collect$$libinit$$00000013)
    __rt_lib_init_lc_monetary_1              0x0000029b   Thumb Code     0  libinit2.o(.ARM.Collect$$libinit$$00000015)
    __rt_lib_init_lc_numeric_1               0x0000029b   Thumb Code     0  libinit2.o(.ARM.Collect$$libinit$$00000017)
    __rt_lib_init_lc_time_1                  0x0000029b   Thumb Code     0  libinit2.o(.ARM.Collect$$libinit$$00000019)
    __rt_lib_init_preinit_1                  0x0000029b   Thumb Code     0  libinit2.o(.ARM.Collect$$libinit$$00000004)
    __rt_lib_init_rand_1                     0x0000029b   Thumb Code     0  libinit2.o(.ARM.Collect$$libinit$$0000000E)
    __rt_lib_init_return                     0x0000029b   Thumb Code     0  libinit2.o(.ARM.Collect$$libinit$$00000033)
    __rt_lib_init_signal_1                   0x0000029b   Thumb Code     0  libinit2.o(.ARM.Collect$$libinit$$0000001D)
    __rt_lib_init_stdio_1                    0x0000029b   Thumb Code     0  libinit2.o(.ARM.Collect$$libinit$$00000025)
    __rt_lib_init_user_alloc_1               0x0000029b   Thumb Code     0  libinit2.o(.ARM.Collect$$libinit$$0000000C)
    __rt_lib_shutdown                        0x0000029d   Thumb Code     0  libshutdown.o(.ARM.Collect$$libshutdown$$00000000)
    __rt_lib_shutdown_cpp_1                  0x0000029f   Thumb Code     0  libshutdown2.o(.ARM.Collect$$libshutdown$$00000002)
    __rt_lib_shutdown_fp_trap_1              0x0000029f   Thumb Code     0  libshutdown2.o(.ARM.Collect$$libshutdown$$00000007)
    __rt_lib_shutdown_heap_1                 0x0000029f   Thumb Code     0  libshutdown2.o(.ARM.Collect$$libshutdown$$0000000F)
    __rt_lib_shutdown_return                 0x0000029f   Thumb Code     0  libshutdown2.o(.ARM.Collect$$libshutdown$$00000010)
    __rt_lib_shutdown_signal_1               0x0000029f   Thumb Code     0  libshutdown2.o(.ARM.Collect$$libshutdown$$0000000A)
    __rt_lib_shutdown_stdio_1                0x0000029f   Thumb Code     0  libshutdown2.o(.ARM.Collect$$libshutdown$$00000004)
    __rt_lib_shutdown_user_alloc_1           0x0000029f   Thumb Code     0  libshutdown2.o(.ARM.Collect$$libshutdown$$0000000C)
    __rt_entry                               0x000002a1   Thumb Code     0  __rtentry.o(.ARM.Collect$$rtentry$$00000000)
    __rt_entry_presh_1                       0x000002a1   Thumb Code     0  __rtentry2.o(.ARM.Collect$$rtentry$$00000002)
    __rt_entry_sh                            0x000002a1   Thumb Code     0  __rtentry4.o(.ARM.Collect$$rtentry$$00000004)
    __rt_entry_li                            0x000002a7   Thumb Code     0  __rtentry2.o(.ARM.Collect$$rtentry$$0000000A)
    __rt_entry_postsh_1                      0x000002a7   Thumb Code     0  __rtentry2.o(.ARM.Collect$$rtentry$$00000009)
    __rt_entry_postli_1                      0x000002ab   Thumb Code     0  __rtentry2.o(.ARM.Collect$$rtentry$$0000000B)
    __rt_entry_main                          0x000002b3   Thumb Code     0  __rtentry2.o(.ARM.Collect$$rtentry$$0000000D)
    __rt_exit                                0x000002bb   Thumb Code     0  rtexit.o(.ARM.Collect$$rtexit$$00000000)
    __rt_exit_ls                             0x000002bd   Thumb Code     0  rtexit2.o(.ARM.Collect$$rtexit$$00000003)
    __rt_exit_prels_1                        0x000002bd   Thumb Code     0  rtexit2.o(.ARM.Collect$$rtexit$$00000002)
    __rt_exit_exit                           0x000002c1   Thumb Code     0  rtexit2.o(.ARM.Collect$$rtexit$$00000004)
    _platform_post_lib_init                  0x000002c9   Thumb Code    24  rtx_conf_cm.o(.emb_text)
    SysCtlDelay                              0x000002e5   Thumb Code     6  sysctl.o(.emb_text)
    rt_set_PSP                               0x000002ed   Thumb Code     6  hal_cm4.o(.emb_text)
    rt_get_PSP                               0x000002f3   Thumb Code     6  hal_cm4.o(.emb_text)
    os_set_env                               0x000002f9   Thumb Code    24  hal_cm4.o(.emb_text)
    _alloc_box                               0x00000315   Thumb Code    28  hal_cm4.o(.emb_text)
    _free_box                                0x00000335   Thumb Code    28  hal_cm4.o(.emb_text)
    SVC_Handler                              0x00000355   Thumb Code   168  hal_cm4.o(.emb_text)
    PendSV_Handler                           0x0000040d   Thumb Code    96  hal_cm4.o(.emb_text)
    SysTick_Handler                          0x00000471   Thumb Code     8  hal_cm4.o(.emb_text)
    OS_Tick_Handler                          0x00000479   Thumb Code    12  hal_cm4.o(.emb_text)
    __RL_RTX_VER                             0x00000482   Number         0  rt_system.o ABSOLUTE
    LED_Initialize                           0x00000485   Thumb Code    94  led.o(.text)
    LED_On                                   0x000004e3   Thumb Code   112  led.o(.text)
    LED_Off                                  0x00000553   Thumb Code   112  led.o(.text)
    LED_Out                                  0x000005c3   Thumb Code    38  led.o(.text)
    Switch_On                                0x00000609   Thumb Code    16  blinky.o(.text)
    Switch_Off                               0x00000619   Thumb Code    16  blinky.o(.text)
    signal_func                              0x00000629   Thumb Code    62  blinky.o(.text)
    phaseA                                   0x00000667   Thumb Code    34  blinky.o(.text)
    phaseB                                   0x00000689   Thumb Code    36  blinky.o(.text)
    phaseC                                   0x000006ad   Thumb Code    36  blinky.o(.text)
    phaseD                                   0x000006d1   Thumb Code    34  blinky.o(.text)
    TMP006_getTemp2                          0x000007b3   Thumb Code  1050  blinky.o(.text)
    clock                                    0x00000bcd   Thumb Code   354  blinky.o(.text)
    main                                     0x00000d2f   Thumb Code   106  blinky.o(.text)
    cfaf128x128x16Rect                       0x00000f95   Thumb Code   134  cfaf128x128x16.o(.text)
    cfaf128x128x16LineVer                    0x0000101b   Thumb Code    38  cfaf128x128x16.o(.text)
    cfaf128x128x16LineHor                    0x00001041   Thumb Code    38  cfaf128x128x16.o(.text)
    cfaf128x128x16Dot                        0x00001067   Thumb Code    30  cfaf128x128x16.o(.text)
    cfaf128x128x16SetOrientation             0x00001369   Thumb Code    74  cfaf128x128x16.o(.text)
    cfaf128x128x16ClearColor                 0x000013b3   Thumb Code    36  cfaf128x128x16.o(.text)
    cfaf128x128x16Clear                      0x000013d7   Thumb Code    10  cfaf128x128x16.o(.text)
    InitSSICom                               0x000013fd   Thumb Code   178  cfaf128x128x16.o(.text)
    cfaf128x128x16Init                       0x000014af   Thumb Code   384  cfaf128x128x16.o(.text)
    servo_init                               0x00001681   Thumb Code   162  servo.o(.text)
    rgb_write_r                              0x00001749   Thumb Code    80  rgb.o(.text)
    rgb_write_g                              0x00001799   Thumb Code    80  rgb.o(.text)
    rgb_write_b                              0x000017e9   Thumb Code    80  rgb.o(.text)
    rgb_write                                0x00001839   Thumb Code    28  rgb.o(.text)
    rgb_write_color                          0x00001855   Thumb Code    20  rgb.o(.text)
    rgb_init                                 0x00001869   Thumb Code   302  rgb.o(.text)
    temp_read                                0x00001e53   Thumb Code    12  temp.o(.text)
    temp_read_voltage                        0x00001e5f   Thumb Code    12  temp.o(.text)
    temp_init                                0x00001e83   Thumb Code   226  temp.o(.text)
    opt_read                                 0x0000242b   Thumb Code    12  opt.o(.text)
    OPT3001_getLux                           0x0000244f   Thumb Code    96  opt.o(.text)
    opt_init                                 0x000024af   Thumb Code   240  opt.o(.text)
    os_idle_demon                            0x000025e1   Thumb Code     4  rtx_conf_cm.o(.text)
    os_error                                 0x000025e5   Thumb Code    32  rtx_conf_cm.o(.text)
    rt_init_robin                            0x00002605   Thumb Code     2  rtx_conf_cm.o(.text)
    rt_chk_robin                             0x00002607   Thumb Code     2  rtx_conf_cm.o(.text)
    __user_perthread_libspace                0x00002609   Thumb Code    32  rtx_conf_cm.o(.text)
    _mutex_initialize                        0x00002629   Thumb Code    34  rtx_conf_cm.o(.text)
    _mutex_acquire                           0x0000264b   Thumb Code    22  rtx_conf_cm.o(.text)
    _mutex_release                           0x00002661   Thumb Code    18  rtx_conf_cm.o(.text)
    Reset_Handler                            0x00002691   Thumb Code     8  startup_tm4c129.o(.text)
    NMI_Handler                              0x00002699   Thumb Code     2  startup_tm4c129.o(.text)
    HardFault_Handler                        0x0000269b   Thumb Code     2  startup_tm4c129.o(.text)
    MemManage_Handler                        0x0000269d   Thumb Code     2  startup_tm4c129.o(.text)
    BusFault_Handler                         0x0000269f   Thumb Code     2  startup_tm4c129.o(.text)
    UsageFault_Handler                       0x000026a1   Thumb Code     2  startup_tm4c129.o(.text)
    DebugMon_Handler                         0x000026a5   Thumb Code     2  startup_tm4c129.o(.text)
    GPIOA_Handler                            0x000026ab   Thumb Code     2  startup_tm4c129.o(.text)
    GPIOB_Handler                            0x000026ad   Thumb Code     2  startup_tm4c129.o(.text)
    GPIOC_Handler                            0x000026af   Thumb Code     2  startup_tm4c129.o(.text)
    GPIOD_Handler                            0x000026b1   Thumb Code     2  startup_tm4c129.o(.text)
    GPIOE_Handler                            0x000026b3   Thumb Code     2  startup_tm4c129.o(.text)
    UART0_Handler                            0x000026b5   Thumb Code     2  startup_tm4c129.o(.text)
    UART1_Handler                            0x000026b7   Thumb Code     2  startup_tm4c129.o(.text)
    SSI0_Handler                             0x000026b9   Thumb Code     2  startup_tm4c129.o(.text)
    I2C0_Handler                             0x000026bb   Thumb Code     2  startup_tm4c129.o(.text)
    PMW0_FAULT_Handler                       0x000026bd   Thumb Code     2  startup_tm4c129.o(.text)
    PWM0_0_Handler                           0x000026bf   Thumb Code     2  startup_tm4c129.o(.text)
    PWM0_1_Handler                           0x000026c1   Thumb Code     2  startup_tm4c129.o(.text)
    PWM0_2_Handler                           0x000026c3   Thumb Code     2  startup_tm4c129.o(.text)
    QEI0_Handler                             0x000026c5   Thumb Code     2  startup_tm4c129.o(.text)
    ADC0SS0_Handler                          0x000026c7   Thumb Code     2  startup_tm4c129.o(.text)
    ADC0SS1_Handler                          0x000026c9   Thumb Code     2  startup_tm4c129.o(.text)
    ADC0SS2_Handler                          0x000026cb   Thumb Code     2  startup_tm4c129.o(.text)
    ADC0SS3_Handler                          0x000026cd   Thumb Code     2  startup_tm4c129.o(.text)
    WDT0_Handler                             0x000026cf   Thumb Code     2  startup_tm4c129.o(.text)
    TIMER0A_Handler                          0x000026d1   Thumb Code     2  startup_tm4c129.o(.text)
    TIMER0B_Handler                          0x000026d3   Thumb Code     2  startup_tm4c129.o(.text)
    TIMER1A_Handler                          0x000026d5   Thumb Code     2  startup_tm4c129.o(.text)
    TIMER1B_Handler                          0x000026d7   Thumb Code     2  startup_tm4c129.o(.text)
    TIMER2A_Handler                          0x000026d9   Thumb Code     2  startup_tm4c129.o(.text)
    TIMER2B_Handler                          0x000026db   Thumb Code     2  startup_tm4c129.o(.text)
    COMP0_Handler                            0x000026dd   Thumb Code     2  startup_tm4c129.o(.text)
    COMP1_Handler                            0x000026df   Thumb Code     2  startup_tm4c129.o(.text)
    COMP2_Handler                            0x000026e1   Thumb Code     2  startup_tm4c129.o(.text)
    SYSCTL_Handler                           0x000026e3   Thumb Code     2  startup_tm4c129.o(.text)
    FLASH_Handler                            0x000026e5   Thumb Code     2  startup_tm4c129.o(.text)
    GPIOF_Handler                            0x000026e7   Thumb Code     2  startup_tm4c129.o(.text)
    GPIOG_Handler                            0x000026e9   Thumb Code     2  startup_tm4c129.o(.text)
    GPIOH_Handler                            0x000026eb   Thumb Code     2  startup_tm4c129.o(.text)
    UART2_Handler                            0x000026ed   Thumb Code     2  startup_tm4c129.o(.text)
    SSI1_Handler                             0x000026ef   Thumb Code     2  startup_tm4c129.o(.text)
    TIMER3A_Handler                          0x000026f1   Thumb Code     2  startup_tm4c129.o(.text)
    TIMER3B_Handler                          0x000026f3   Thumb Code     2  startup_tm4c129.o(.text)
    I2C1_Handler                             0x000026f5   Thumb Code     2  startup_tm4c129.o(.text)
    CAN0_Handler                             0x000026f7   Thumb Code     2  startup_tm4c129.o(.text)
    CAN1_Handler                             0x000026f9   Thumb Code     2  startup_tm4c129.o(.text)
    ETH_Handler                              0x000026fb   Thumb Code     2  startup_tm4c129.o(.text)
    HIB_Handler                              0x000026fd   Thumb Code     2  startup_tm4c129.o(.text)
    USB0_Handler                             0x000026ff   Thumb Code     2  startup_tm4c129.o(.text)
    PWM0_3_Handler                           0x00002701   Thumb Code     2  startup_tm4c129.o(.text)
    UDMA_Handler                             0x00002703   Thumb Code     2  startup_tm4c129.o(.text)
    UDMAERR_Handler                          0x00002705   Thumb Code     2  startup_tm4c129.o(.text)
    ADC1SS0_Handler                          0x00002707   Thumb Code     2  startup_tm4c129.o(.text)
    ADC1SS1_Handler                          0x00002709   Thumb Code     2  startup_tm4c129.o(.text)
    ADC1SS2_Handler                          0x0000270b   Thumb Code     2  startup_tm4c129.o(.text)
    ADC1SS3_Handler                          0x0000270d   Thumb Code     2  startup_tm4c129.o(.text)
    EBI0_Handler                             0x0000270f   Thumb Code     2  startup_tm4c129.o(.text)
    GPIOJ_Handler                            0x00002711   Thumb Code     2  startup_tm4c129.o(.text)
    GPIOK_Handler                            0x00002713   Thumb Code     2  startup_tm4c129.o(.text)
    GPIOL_Handler                            0x00002715   Thumb Code     2  startup_tm4c129.o(.text)
    SSI2_Handler                             0x00002717   Thumb Code     2  startup_tm4c129.o(.text)
    SSI3_Handler                             0x00002719   Thumb Code     2  startup_tm4c129.o(.text)
    UART3_Handler                            0x0000271b   Thumb Code     2  startup_tm4c129.o(.text)
    UART4_Handler                            0x0000271d   Thumb Code     2  startup_tm4c129.o(.text)
    UART5_Handler                            0x0000271f   Thumb Code     2  startup_tm4c129.o(.text)
    UART6_Handler                            0x00002721   Thumb Code     2  startup_tm4c129.o(.text)
    UART7_Handler                            0x00002723   Thumb Code     2  startup_tm4c129.o(.text)
    I2C2_Handler                             0x00002725   Thumb Code     2  startup_tm4c129.o(.text)
    I2C3_Handler                             0x00002727   Thumb Code     2  startup_tm4c129.o(.text)
    TIMER4A_Handler                          0x00002729   Thumb Code     2  startup_tm4c129.o(.text)
    TIMER4B_Handler                          0x0000272b   Thumb Code     2  startup_tm4c129.o(.text)
    TIMER5A_Handler                          0x0000272d   Thumb Code     2  startup_tm4c129.o(.text)
    TIMER5B_Handler                          0x0000272f   Thumb Code     2  startup_tm4c129.o(.text)
    WTIMER0A_Handler                         0x00002731   Thumb Code     2  startup_tm4c129.o(.text)
    WTIMER0B_Handler                         0x00002733   Thumb Code     2  startup_tm4c129.o(.text)
    WTIMER1A_Handler                         0x00002735   Thumb Code     2  startup_tm4c129.o(.text)
    WTIMER1B_Handler                         0x00002737   Thumb Code     2  startup_tm4c129.o(.text)
    WTIMER2A_Handler                         0x00002739   Thumb Code     2  startup_tm4c129.o(.text)
    WTIMER2B_Handler                         0x0000273b   Thumb Code     2  startup_tm4c129.o(.text)
    WTIMER3A_Handler                         0x0000273d   Thumb Code     2  startup_tm4c129.o(.text)
    WTIMER3B_Handler                         0x0000273f   Thumb Code     2  startup_tm4c129.o(.text)
    WTIMER4A_Handler                         0x00002741   Thumb Code     2  startup_tm4c129.o(.text)
    WTIMER4B_Handler                         0x00002743   Thumb Code     2  startup_tm4c129.o(.text)
    WTIMER5A_Handler                         0x00002745   Thumb Code     2  startup_tm4c129.o(.text)
    WTIMER5B_Handler                         0x00002747   Thumb Code     2  startup_tm4c129.o(.text)
    FPU_Handler                              0x00002749   Thumb Code     2  startup_tm4c129.o(.text)
    I2C4_Handler                             0x0000274b   Thumb Code     2  startup_tm4c129.o(.text)
    I2C5_Handler                             0x0000274d   Thumb Code     2  startup_tm4c129.o(.text)
    GPIOM_Handler                            0x0000274f   Thumb Code     2  startup_tm4c129.o(.text)
    GPION_Handler                            0x00002751   Thumb Code     2  startup_tm4c129.o(.text)
    TAMPER_Handler                           0x00002753   Thumb Code     2  startup_tm4c129.o(.text)
    GPIOP0_Handler                           0x00002755   Thumb Code     2  startup_tm4c129.o(.text)
    GPIOP1_Handler                           0x00002757   Thumb Code     2  startup_tm4c129.o(.text)
    GPIOP2_Handler                           0x00002759   Thumb Code     2  startup_tm4c129.o(.text)
    GPIOP3_Handler                           0x0000275b   Thumb Code     2  startup_tm4c129.o(.text)
    GPIOP4_Handler                           0x0000275d   Thumb Code     2  startup_tm4c129.o(.text)
    GPIOP5_Handler                           0x0000275f   Thumb Code     2  startup_tm4c129.o(.text)
    GPIOP6_Handler                           0x00002761   Thumb Code     2  startup_tm4c129.o(.text)
    GPIOP7_Handler                           0x00002763   Thumb Code     2  startup_tm4c129.o(.text)
    GPIOQ0_Handler                           0x00002765   Thumb Code     2  startup_tm4c129.o(.text)
    GPIOQ1_Handler                           0x00002767   Thumb Code     2  startup_tm4c129.o(.text)
    GPIOQ2_Handler                           0x00002769   Thumb Code     2  startup_tm4c129.o(.text)
    GPIOQ3_Handler                           0x0000276b   Thumb Code     2  startup_tm4c129.o(.text)
    GPIOQ4_Handler                           0x0000276d   Thumb Code     2  startup_tm4c129.o(.text)
    GPIOQ5_Handler                           0x0000276f   Thumb Code     2  startup_tm4c129.o(.text)
    GPIOQ6_Handler                           0x00002771   Thumb Code     2  startup_tm4c129.o(.text)
    GPIOQ7_Handler                           0x00002773   Thumb Code     2  startup_tm4c129.o(.text)
    GPIOR_Handler                            0x00002775   Thumb Code     2  startup_tm4c129.o(.text)
    GPIOS_Handler                            0x00002777   Thumb Code     2  startup_tm4c129.o(.text)
    SHAMD5_Handler                           0x00002779   Thumb Code     2  startup_tm4c129.o(.text)
    AES_Handler                              0x0000277b   Thumb Code     2  startup_tm4c129.o(.text)
    DES3DES_Handler                          0x0000277d   Thumb Code     2  startup_tm4c129.o(.text)
    LCDCONTROLLER_Handler                    0x0000277f   Thumb Code     2  startup_tm4c129.o(.text)
    TIMER6A_Handler                          0x00002781   Thumb Code     2  startup_tm4c129.o(.text)
    TIMER6B_Handler                          0x00002783   Thumb Code     2  startup_tm4c129.o(.text)
    TIMER7A_Handler                          0x00002785   Thumb Code     2  startup_tm4c129.o(.text)
    TIMER7B_Handler                          0x00002787   Thumb Code     2  startup_tm4c129.o(.text)
    I2C6_Handler                             0x00002789   Thumb Code     2  startup_tm4c129.o(.text)
    I2C7_Handler                             0x0000278b   Thumb Code     2  startup_tm4c129.o(.text)
    HIMSCANKEYBOARD_Handler                  0x0000278d   Thumb Code     2  startup_tm4c129.o(.text)
    ONEWIRE_Handler                          0x0000278f   Thumb Code     2  startup_tm4c129.o(.text)
    HIMPS2_Handler                           0x00002791   Thumb Code     2  startup_tm4c129.o(.text)
    HIMLEDSEQUENCER_Handler                  0x00002793   Thumb Code     2  startup_tm4c129.o(.text)
    HIMCONSUMERIR_Handler                    0x00002795   Thumb Code     2  startup_tm4c129.o(.text)
    I2C8_Handler                             0x00002797   Thumb Code     2  startup_tm4c129.o(.text)
    I2C9_Handler                             0x00002799   Thumb Code     2  startup_tm4c129.o(.text)
    GPIOT_Handler                            0x0000279b   Thumb Code     2  startup_tm4c129.o(.text)
    __user_initial_stackheap                 0x0000279d   Thumb Code     0  startup_tm4c129.o(.text)
    SystemCoreClockUpdate                    0x000027bd   Thumb Code     8  system_tm4c129.o(.text)
    SystemInit                               0x000027c5   Thumb Code    20  system_tm4c129.o(.text)
    __user_libspace                          0x000027e5   Thumb Code     8  libspace.o(.text)
    __user_perproc_libspace                  0x000027e5   Thumb Code     0  libspace.o(.text)
    __aeabi_uldivmod                         0x000027ed   Thumb Code     0  lludivv7m.o(.text)
    _ll_udiv                                 0x000027ed   Thumb Code   238  lludivv7m.o(.text)
    __aeabi_ldivmod                          0x000028db   Thumb Code     0  llsdiv.o(.text)
    _ll_sdiv                                 0x000028db   Thumb Code    72  llsdiv.o(.text)
    exit                                     0x00002923   Thumb Code    18  exit.o(.text)
    __use_two_region_memory                  0x00002935   Thumb Code     2  heapauxi.o(.text)
    __rt_heap_escrow$2region                 0x00002937   Thumb Code     2  heapauxi.o(.text)
    __rt_heap_expand$2region                 0x00002939   Thumb Code     2  heapauxi.o(.text)
    __read_errno                             0x0000293b   Thumb Code    10  _rserrno.o(.text)
    __set_errno                              0x00002945   Thumb Code    12  _rserrno.o(.text)
    __aeabi_errno_addr                       0x00002951   Thumb Code     4  rt_errno_addr_twolibspace.o(.text)
    __errno$twolibspace                      0x00002951   Thumb Code     0  rt_errno_addr_twolibspace.o(.text)
    __rt_errno_addr$twolibspace              0x00002951   Thumb Code     0  rt_errno_addr_twolibspace.o(.text)
    _sys_exit                                0x00002955   Thumb Code     8  sys_exit.o(.text)
    __user_setup_stackheap                   0x00002961   Thumb Code    74  sys_stackheap_outer.o(.text)
    __I$use$semihosting                      0x000029ab   Thumb Code     0  use_no_semi.o(.text)
    __use_no_semihosting_swi                 0x000029ab   Thumb Code     2  use_no_semi.o(.text)
    SVC_Count                                0x000029ac   Data           4  svc_table.o(SVC_TABLE)
    __semihosting_library_function           0x000029ad   Thumb Code     0  indicate_semi.o(.text)
    GPIODirModeSet                           0x000029b1   Thumb Code    40  gpio.o(i.GPIODirModeSet)
    SVC_Table                                0x000029b0   Data           0  svc_table.o(SVC_TABLE)
    GPIOPadConfigSet                         0x000029d9   Thumb Code   312  gpio.o(i.GPIOPadConfigSet)
    GPIOPinConfigure                         0x00002b11   Thumb Code    60  gpio.o(i.GPIOPinConfigure)
    GPIOPinTypeGPIOInput                     0x00002b55   Thumb Code    28  gpio.o(i.GPIOPinTypeGPIOInput)
    GPIOPinTypeI2C                           0x00002b71   Thumb Code    28  gpio.o(i.GPIOPinTypeI2C)
    GPIOPinTypeI2CSCL                        0x00002b8d   Thumb Code    28  gpio.o(i.GPIOPinTypeI2CSCL)
    GPIOPinTypePWM                           0x00002ba9   Thumb Code    28  gpio.o(i.GPIOPinTypePWM)
    GPIOPinTypeTimer                         0x00002bc5   Thumb Code    28  gpio.o(i.GPIOPinTypeTimer)
    GrContextFontSet                         0x00002be1   Thumb Code     6  string.o(i.GrContextFontSet)
    GrContextInit                            0x00002be9   Thumb Code    88  context.o(i.GrContextInit)
    GrDefaultStringRenderer                  0x00002c4d   Thumb Code   280  string.o(i.GrDefaultStringRenderer)
    GrFontBaselineGet                        0x00002d65   Thumb Code    44  string.o(i.GrFontBaselineGet)
    GrFontGlyphDataGet                       0x00002d91   Thumb Code   166  string.o(i.GrFontGlyphDataGet)
    GrFontGlyphRender                        0x00002e37   Thumb Code   648  string.o(i.GrFontGlyphRender)
    GrMapISO8859_1_Unicode                   0x000030bf   Thumb Code     8  charmap.o(i.GrMapISO8859_1_Unicode)
    GrRectFill                               0x000030c7   Thumb Code   180  rectangle.o(i.GrRectFill)
    GrStringDraw                             0x0000317b   Thumb Code    32  string.o(i.GrStringDraw)
    GrStringWidthGet                         0x0000319b   Thumb Code   192  string.o(i.GrStringWidthGet)
    I2CIntRegister                           0x0000325d   Thumb Code    80  i2c.o(i.I2CIntRegister)
    I2CMasterBurstLengthSet                  0x000032bd   Thumb Code     4  i2c.o(i.I2CMasterBurstLengthSet)
    I2CMasterBusBusy                         0x000032c1   Thumb Code    12  i2c.o(i.I2CMasterBusBusy)
    I2CMasterBusy                            0x000032cd   Thumb Code    12  i2c.o(i.I2CMasterBusy)
    I2CMasterControl                         0x000032d9   Thumb Code     4  i2c.o(i.I2CMasterControl)
    I2CMasterDataGet                         0x000032dd   Thumb Code     4  i2c.o(i.I2CMasterDataGet)
    I2CMasterDataPut                         0x000032e1   Thumb Code     4  i2c.o(i.I2CMasterDataPut)
    I2CMasterEnable                          0x000032e5   Thumb Code    10  i2c.o(i.I2CMasterEnable)
    I2CMasterErr                             0x000032ef   Thumb Code    24  i2c.o(i.I2CMasterErr)
    I2CMasterGlitchFilterConfigSet           0x00003309   Thumb Code    74  i2c.o(i.I2CMasterGlitchFilterConfigSet)
    I2CMasterInitExpClk                      0x0000335d   Thumb Code    72  i2c.o(i.I2CMasterInitExpClk)
    I2CMasterIntClear                        0x000033b1   Thumb Code     8  i2c.o(i.I2CMasterIntClear)
    I2CMasterIntClearEx                      0x000033b9   Thumb Code     4  i2c.o(i.I2CMasterIntClearEx)
    I2CMasterIntEnableEx                     0x000033bd   Thumb Code     8  i2c.o(i.I2CMasterIntEnableEx)
    I2CMasterSlaveAddrSet                    0x000033c5   Thumb Code     8  i2c.o(i.I2CMasterSlaveAddrSet)
    I2CMasterTimeoutSet                      0x000033cd   Thumb Code     4  i2c.o(i.I2CMasterTimeoutSet)
    IntEnable                                0x000033d1   Thumb Code    92  interrupt.o(i.IntEnable)
    IntRegister                              0x00003435   Thumb Code    44  interrupt.o(i.IntRegister)
    PWMClockSet                              0x00003469   Thumb Code    20  pwm.o(i.PWMClockSet)
    PWMGenConfigure                          0x0000347d   Thumb Code    38  pwm.o(i.PWMGenConfigure)
    PWMGenDisable                            0x000034a3   Thumb Code    10  pwm.o(i.PWMGenDisable)
    PWMGenEnable                             0x000034ad   Thumb Code    10  pwm.o(i.PWMGenEnable)
    PWMGenPeriodGet                          0x000034b7   Thumb Code    18  pwm.o(i.PWMGenPeriodGet)
    PWMGenPeriodSet                          0x000034c9   Thumb Code    18  pwm.o(i.PWMGenPeriodSet)
    PWMOutputState                           0x000034db   Thumb Code    16  pwm.o(i.PWMOutputState)
    PWMPulseWidthSet                         0x000034eb   Thumb Code    32  pwm.o(i.PWMPulseWidthSet)
    SysCtlClockFreqSet                       0x0000350d   Thumb Code   706  sysctl.o(i.SysCtlClockFreqSet)
    SysCtlPeripheralEnable                   0x000037f9   Thumb Code    36  sysctl.o(i.SysCtlPeripheralEnable)
    SysCtlPeripheralReady                    0x00003821   Thumb Code    40  sysctl.o(i.SysCtlPeripheralReady)
    SysCtlPeripheralReset                    0x0000384d   Thumb Code    56  sysctl.o(i.SysCtlPeripheralReset)
    TimerClockSourceSet                      0x00003889   Thumb Code     6  timer.o(i.TimerClockSourceSet)
    TimerConfigure                           0x00003891   Thumb Code    88  timer.o(i.TimerConfigure)
    TimerControlLevel                        0x000038f1   Thumb Code    22  timer.o(i.TimerControlLevel)
    TimerEnable                              0x00003907   Thumb Code    14  timer.o(i.TimerEnable)
    TimerLoadSet                             0x00003915   Thumb Code    18  timer.o(i.TimerLoadSet)
    TimerMatchSet                            0x00003927   Thumb Code    18  timer.o(i.TimerMatchSet)
    TimerPrescaleSet                         0x00003939   Thumb Code    18  timer.o(i.TimerPrescaleSet)
    TimerUpdateMode                          0x0000394b   Thumb Code    42  timer.o(i.TimerUpdateMode)
    __ARM_fpclassify                         0x000039e1   Thumb Code    48  fpclassify.o(i.__ARM_fpclassify)
    __hardfp_pow                             0x00003a11   Thumb Code  3072  pow.o(i.__hardfp_pow)
    __kernel_poly                            0x00004661   Thumb Code   248  poly.o(i.__kernel_poly)
    __mathlib_dbl_divzero                    0x00004759   Thumb Code    28  dunder.o(i.__mathlib_dbl_divzero)
    __mathlib_dbl_infnan2                    0x00004789   Thumb Code    20  dunder.o(i.__mathlib_dbl_infnan2)
    __mathlib_dbl_invalid                    0x000047a1   Thumb Code    24  dunder.o(i.__mathlib_dbl_invalid)
    __mathlib_dbl_overflow                   0x000047c1   Thumb Code    24  dunder.o(i.__mathlib_dbl_overflow)
    __mathlib_dbl_underflow                  0x000047e1   Thumb Code    24  dunder.o(i.__mathlib_dbl_underflow)
    _init_box                                0x00004801   Thumb Code    70  rt_membox.o(i._init_box)
    dbg_init                                 0x00004849   Thumb Code    34  hal_cm.o(i.dbg_init)
    dbg_task_notify                          0x00004879   Thumb Code    32  hal_cm.o(i.dbg_task_notify)
    dbg_task_switch                          0x00004899   Thumb Code    16  hal_cm.o(i.dbg_task_switch)
    fabs                                     0x000048a9   Thumb Code    24  fabs.o(i.fabs)
    isrMessageGet                            0x000048c1   Thumb Code    42  rt_cmsis.o(i.isrMessageGet)
    isrMessagePut                            0x000048eb   Thumb Code    44  rt_cmsis.o(i.isrMessagePut)
    isrSignalSet                             0x00004917   Thumb Code    36  rt_cmsis.o(i.isrSignalSet)
    isr_evt_set                              0x0000493d   Thumb Code    34  rt_event.o(i.isr_evt_set)
    isr_mbx_receive                          0x00004965   Thumb Code    86  rt_mailbox.o(i.isr_mbx_receive)
    isr_mbx_send                             0x000049bb   Thumb Code    14  rt_mailbox.o(i.isr_mbx_send)
    osDelay                                  0x000049c9   Thumb Code    18  rt_cmsis.o(i.osDelay)
    osKernelInitialize                       0x000049e1   Thumb Code    30  rt_cmsis.o(i.osKernelInitialize)
    osKernelStart                            0x00004a05   Thumb Code    98  rt_cmsis.o(i.osKernelStart)
    osMessageGet                             0x00004a71   Thumb Code    18  rt_cmsis.o(i.osMessageGet)
    osSignalSet                              0x00004a89   Thumb Code    18  rt_cmsis.o(i.osSignalSet)
    osSignalWait                             0x00004aa1   Thumb Code    18  rt_cmsis.o(i.osSignalWait)
    osThreadCreate                           0x00004ab9   Thumb Code    36  rt_cmsis.o(i.osThreadCreate)
    osThreadExit                             0x00004ae5   Thumb Code    14  rt_cmsis.o(i.osThreadExit)
    osTimerCall                              0x00004afd   Thumb Code     8  rt_cmsis.o(i.osTimerCall)
    osTimerThread                            0x00004b09   Thumb Code    38  rt_cmsis.o(i.osTimerThread)
    os_tick_init                             0x00004b35   Thumb Code    32  rt_system.o(i.os_tick_init)
    os_tick_irqack                           0x00004b5d   Thumb Code     2  rt_system.o(i.os_tick_irqack)
    rt_alloc_box                             0x00004b5f   Thumb Code    26  rt_membox.o(i.rt_alloc_box)
    rt_alloc_mem                             0x00004b79   Thumb Code    62  rt_memory.o(i.rt_alloc_mem)
    rt_block                                 0x00004bb9   Thumb Code    48  rt_task.o(i.rt_block)
    rt_dec_dly                               0x00004bf1   Thumb Code   102  rt_list.o(i.rt_dec_dly)
    rt_dispatch                              0x00004c61   Thumb Code    60  rt_task.o(i.rt_dispatch)
    rt_dly_wait                              0x00004ca5   Thumb Code     6  rt_time.o(i.rt_dly_wait)
    rt_evt_psh                               0x00004cad   Thumb Code    76  rt_event.o(i.rt_evt_psh)
    rt_evt_set                               0x00004cfd   Thumb Code    88  rt_event.o(i.rt_evt_set)
    rt_evt_wait                              0x00004d59   Thumb Code    56  rt_event.o(i.rt_evt_wait)
    rt_free_box                              0x00004d95   Thumb Code    44  rt_membox.o(i.rt_free_box)
    rt_free_mem                              0x00004dc1   Thumb Code    40  rt_memory.o(i.rt_free_mem)
    rt_get_first                             0x00004de9   Thumb Code    40  rt_list.o(i.rt_get_first)
    rt_init_mem                              0x00004e61   Thumb Code    26  rt_memory.o(i.rt_init_mem)
    rt_init_stack                            0x00004e7d   Thumb Code   118  hal_cm.o(i.rt_init_stack)
    rt_mbx_check                             0x00004efd   Thumb Code     8  rt_mailbox.o(i.rt_mbx_check)
    rt_mbx_init                              0x00004f05   Thumb Code    26  rt_mailbox.o(i.rt_mbx_init)
    rt_mbx_psh                               0x00004f21   Thumb Code   236  rt_mailbox.o(i.rt_mbx_psh)
    rt_mbx_wait                              0x00005011   Thumb Code   174  rt_mailbox.o(i.rt_mbx_wait)
    rt_mut_init                              0x00005109   Thumb Code    16  rt_mutex.o(i.rt_mut_init)
    rt_mut_release                           0x00005119   Thumb Code   208  rt_mutex.o(i.rt_mut_release)
    rt_mut_wait                              0x000051f1   Thumb Code   114  rt_mutex.o(i.rt_mut_wait)
    rt_pop_req                               0x00005269   Thumb Code   112  rt_system.o(i.rt_pop_req)
    rt_psh_req                               0x000052e5   Thumb Code    22  rt_system.o(i.rt_psh_req)
    rt_psq_enq                               0x00005305   Thumb Code    88  rt_list.o(i.rt_psq_enq)
    rt_put_dly                               0x00005361   Thumb Code    68  rt_list.o(i.rt_put_dly)
    rt_put_prio                              0x000053a9   Thumb Code    54  rt_list.o(i.rt_put_prio)
    rt_put_rdy_first                         0x000053e1   Thumb Code    14  rt_list.o(i.rt_put_rdy_first)
    rt_resort_prio                           0x000053f5   Thumb Code    46  rt_list.o(i.rt_resort_prio)
    rt_ret_val                               0x00005439   Thumb Code    12  hal_cm.o(i.rt_ret_val)
    rt_ret_val2                              0x00005445   Thumb Code    16  hal_cm.o(i.rt_ret_val2)
    rt_rmv_dly                               0x00005455   Thumb Code    40  rt_list.o(i.rt_rmv_dly)
    rt_rmv_list                              0x0000547d   Thumb Code    44  rt_list.o(i.rt_rmv_list)
    rt_sem_psh                               0x000054ad   Thumb Code    48  rt_semaphore.o(i.rt_sem_psh)
    rt_stk_check                             0x000054e1   Thumb Code    28  rt_system.o(i.rt_stk_check)
    rt_switch_req                            0x00005505   Thumb Code    30  rt_task.o(i.rt_switch_req)
    rt_sys_init                              0x0000552d   Thumb Code   138  rt_task.o(i.rt_sys_init)
    rt_sys_start                             0x000055f9   Thumb Code   110  rt_task.o(i.rt_sys_start)
    rt_systick                               0x00005671   Thumb Code    50  rt_system.o(i.rt_systick)
    rt_tsk_create                            0x000056f9   Thumb Code   118  rt_task.o(i.rt_tsk_create)
    rt_tsk_delete                            0x00005781   Thumb Code   352  rt_task.o(i.rt_tsk_delete)
    rt_tsk_prio                              0x000058fd   Thumb Code   108  rt_task.o(i.rt_tsk_prio)
    rt_tsk_self                              0x00005979   Thumb Code    12  rt_task.o(i.rt_tsk_self)
    sqrt                                     0x00005989   Thumb Code   110  sqrt.o(i.sqrt)
    svcDelay                                 0x000059f7   Thumb Code    18  rt_cmsis.o(i.svcDelay)
    svcKernelInitialize                      0x00005a09   Thumb Code    80  rt_cmsis.o(i.svcKernelInitialize)
    svcKernelStart                           0x00005a79   Thumb Code    62  rt_cmsis.o(i.svcKernelStart)
    svcMessageCreate                         0x00005ac1   Thumb Code    36  rt_cmsis.o(i.svcMessageCreate)
    svcMessageGet                            0x00005ae5   Thumb Code    58  rt_cmsis.o(i.svcMessageGet)
    svcSignalSet                             0x00005b1f   Thumb Code    36  rt_cmsis.o(i.svcSignalSet)
    svcSignalWait                            0x00005b45   Thumb Code    80  rt_cmsis.o(i.svcSignalWait)
    svcThreadCreate                          0x00005b99   Thumb Code    96  rt_cmsis.o(i.svcThreadCreate)
    svcThreadGetId                           0x00005c05   Thumb Code    22  rt_cmsis.o(i.svcThreadGetId)
    svcThreadTerminate                       0x00005c21   Thumb Code    50  rt_cmsis.o(i.svcThreadTerminate)
    svcTimerCall                             0x00005c59   Thumb Code    24  rt_cmsis.o(i.svcTimerCall)
    sysTimerTick                             0x00005c71   Thumb Code    84  rt_cmsis.o(i.sysTimerTick)
    __aeabi_dneg                             0x00005ccd   Thumb Code     0  basic.o(x$fpl$basic)
    _dneg                                    0x00005ccd   Thumb Code     6  basic.o(x$fpl$basic)
    __aeabi_fneg                             0x00005cd3   Thumb Code     0  basic.o(x$fpl$basic)
    _fneg                                    0x00005cd3   Thumb Code     6  basic.o(x$fpl$basic)
    _dabs                                    0x00005cd9   Thumb Code     6  basic.o(x$fpl$basic)
    _fabs                                    0x00005cdf   Thumb Code     6  basic.o(x$fpl$basic)
    __aeabi_dadd                             0x00005ce5   Thumb Code     0  daddsub_clz.o(x$fpl$dadd)
    _dadd                                    0x00005ce5   Thumb Code   332  daddsub_clz.o(x$fpl$dadd)
    __fpl_dcheck_NaN1                        0x00005e35   Thumb Code    10  dcheck1.o(x$fpl$dcheck1)
    __fpl_dcmp_Inf                           0x00005e45   Thumb Code    24  dcmpi.o(x$fpl$dcmpinf)
    __aeabi_ddiv                             0x00005e5d   Thumb Code     0  ddiv.o(x$fpl$ddiv)
    _ddiv                                    0x00005e5d   Thumb Code   552  ddiv.o(x$fpl$ddiv)
    __aeabi_d2iz                             0x0000610d   Thumb Code     0  dfix.o(x$fpl$dfix)
    _dfix                                    0x0000610d   Thumb Code    94  dfix.o(x$fpl$dfix)
    __aeabi_i2d                              0x0000616b   Thumb Code     0  dflt_clz.o(x$fpl$dflt)
    _dflt                                    0x0000616b   Thumb Code    46  dflt_clz.o(x$fpl$dflt)
    __aeabi_cdcmple                          0x00006199   Thumb Code     0  dleqf.o(x$fpl$dleqf)
    _dcmple                                  0x00006199   Thumb Code   120  dleqf.o(x$fpl$dleqf)
    __fpl_dcmple_InfNaN                      0x000061fb   Thumb Code     0  dleqf.o(x$fpl$dleqf)
    __aeabi_dmul                             0x00006211   Thumb Code     0  dmul.o(x$fpl$dmul)
    _dmul                                    0x00006211   Thumb Code   332  dmul.o(x$fpl$dmul)
    __fpl_dnaninf                            0x00006365   Thumb Code   156  dnaninf.o(x$fpl$dnaninf)
    __fpl_dretinf                            0x00006401   Thumb Code    12  dretinf.o(x$fpl$dretinf)
    __aeabi_cdrcmple                         0x0000640d   Thumb Code     0  drleqf.o(x$fpl$drleqf)
    _drcmple                                 0x0000640d   Thumb Code   108  drleqf.o(x$fpl$drleqf)
    __aeabi_drsub                            0x00006479   Thumb Code     0  daddsub_clz.o(x$fpl$drsb)
    _drsb                                    0x00006479   Thumb Code    22  daddsub_clz.o(x$fpl$drsb)
    _dsqrt                                   0x00006491   Thumb Code   404  dsqrt_umaal.o(x$fpl$dsqrt)
    __aeabi_dsub                             0x00006629   Thumb Code     0  daddsub_clz.o(x$fpl$dsub)
    _dsub                                    0x00006629   Thumb Code   464  daddsub_clz.o(x$fpl$dsub)
    _fp_init                                 0x000067fd   Thumb Code    10  fpinit.o(x$fpl$fpinit)
    __fplib_config_fpu_vfp                   0x00006805   Thumb Code     0  fpinit.o(x$fpl$fpinit)
    __fplib_config_pureend_doubles           0x00006805   Thumb Code     0  fpinit.o(x$fpl$fpinit)
    __fpl_return_NaN                         0x00006807   Thumb Code   100  retnan.o(x$fpl$retnan)
    __ARM_scalbn                             0x0000686b   Thumb Code    92  scalbn.o(x$fpl$scalbn)
    __fpl_cmpreturn                          0x000068c7   Thumb Code    48  trapv.o(x$fpl$trapveneer)
    __I$use$fp                               0x000068f6   Number         0  usenofp.o(x$fpl$usenofp)
    led_mask                                 0x000068f8   Data          16  led.o(.constdata)
    os_thread_def_phaseA                     0x00006908   Data          16  blinky.o(.constdata)
    os_thread_def_phaseB                     0x00006918   Data          16  blinky.o(.constdata)
    os_thread_def_phaseC                     0x00006928   Data          16  blinky.o(.constdata)
    os_thread_def_phaseD                     0x00006938   Data          16  blinky.o(.constdata)
    os_thread_def_clock                      0x00006948   Data          16  blinky.o(.constdata)
    blackColor                               0x00006958   Data           2  cfaf128x128x16.o(.constdata)
    whiteColor                               0x0000695a   Data           2  cfaf128x128x16.o(.constdata)
    redColor                                 0x0000695c   Data           2  cfaf128x128x16.o(.constdata)
    greenColor                               0x0000695e   Data           2  cfaf128x128x16.o(.constdata)
    blueColor                                0x00006960   Data           2  cfaf128x128x16.o(.constdata)
    yellowColor                              0x00006962   Data           2  cfaf128x128x16.o(.constdata)
    cyanColor                                0x00006964   Data           2  cfaf128x128x16.o(.constdata)
    orangeColor                              0x00006966   Data           2  cfaf128x128x16.o(.constdata)
    magentaColor                             0x00006968   Data           2  cfaf128x128x16.o(.constdata)
    violetColor                              0x0000696a   Data           2  cfaf128x128x16.o(.constdata)
    grayColor                                0x0000696c   Data           2  cfaf128x128x16.o(.constdata)
    darkGrayColor                            0x0000696e   Data           2  cfaf128x128x16.o(.constdata)
    g_sCfaf128x128x16                        0x00006970   Data          40  cfaf128x128x16.o(.constdata)
    os_maxtaskrun                            0x00006998   Data           2  rtx_conf_cm.o(.constdata)
    os_stackinfo                             0x0000699c   Data           4  rtx_conf_cm.o(.constdata)
    os_rrobin                                0x000069a0   Data           4  rtx_conf_cm.o(.constdata)
    os_tickfreq                              0x000069a4   Data           4  rtx_conf_cm.o(.constdata)
    os_tickus_i                              0x000069a8   Data           2  rtx_conf_cm.o(.constdata)
    os_tickus_f                              0x000069aa   Data           2  rtx_conf_cm.o(.constdata)
    os_trv                                   0x000069ac   Data           4  rtx_conf_cm.o(.constdata)
    os_flags                                 0x000069b0   Data           1  rtx_conf_cm.o(.constdata)
    CMSIS_RTOS_API_Version                   0x000069b4   Data           4  rtx_conf_cm.o(.constdata)
    CMSIS_RTOS_RTX_Version                   0x000069b8   Data           4  rtx_conf_cm.o(.constdata)
    os_clockrate                             0x000069bc   Data           4  rtx_conf_cm.o(.constdata)
    os_timernum                              0x000069c0   Data           4  rtx_conf_cm.o(.constdata)
    mp_tcb_size                              0x000069c4   Data           2  rtx_conf_cm.o(.constdata)
    mp_stk_size                              0x000069c8   Data           4  rtx_conf_cm.o(.constdata)
    os_stack_sz                              0x000069cc   Data           4  rtx_conf_cm.o(.constdata)
    os_fifo_size                             0x000069d0   Data           1  rtx_conf_cm.o(.constdata)
    os_thread_def_osTimerThread              0x000069d4   Data          16  rtx_conf_cm.o(.constdata)
    os_messageQ_def_osTimerMessageQ          0x000069e4   Data           8  rtx_conf_cm.o(.constdata)
    mp_tmr_size                              0x000069ec   Data           2  rtx_conf_cm.o(.constdata)
    os_thread_def_main                       0x000069f0   Data          16  rtx_conf_cm.o(.constdata)
    g_psDefaultCodePointMapTable             0x00007008   Data          16  context.o(.constdata)
    g_sFontFixed6x8                          0x00007310   Data         200  fontfixed6x8.o(.constdata)
    __mathlib_zero                           0x00007460   Data           8  qnan.o(.constdata)
    Region$$Table$$Base                      0x00007490   Number         0  anon$$obj.o(Region$$Table)
    Region$$Table$$Limit                     0x000074b0   Number         0  anon$$obj.o(Region$$Table)
    tid_phaseA                               0x20000000   Data           4  blinky.o(.data)
    tid_phaseB                               0x20000004   Data           4  blinky.o(.data)
    tid_phaseC                               0x20000008   Data           4  blinky.o(.data)
    tid_phaseD                               0x2000000c   Data           4  blinky.o(.data)
    tid_clock                                0x20000010   Data           4  blinky.o(.data)
    osThreadId_osTimerThread                 0x20000054   Data           4  rtx_conf_cm.o(.data)
    osMessageQId_osTimerMessageQ             0x20000058   Data           4  rtx_conf_cm.o(.data)
    os_tmr                                   0x2000005c   Data           4  rtx_conf_cm.o(.data)
    m_tmr                                    0x20000060   Data           4  rtx_conf_cm.o(.data)
    SystemCoreClock                          0x20000068   Data           4  system_tm4c129.o(.data)
    os_initialized                           0x20000070   Data           1  rt_cmsis.o(.data)
    os_running                               0x20000071   Data           1  rt_cmsis.o(.data)
    os_timer_head                            0x20000074   Data           4  rt_cmsis.o(.data)
    os_tsk                                   0x20000078   Data           8  rt_task.o(.data)
    os_tick_irqn                             0x20000084   Data           4  rt_system.o(.data)
    os_time                                  0x20000088   Data           4  rt_time.o(.data)
    dbg_msg                                  0x2000008c   Data           1  hal_cm.o(.data)
    mp_tcb                                   0x20000670   Data         480  rtx_conf_cm.o(.bss)
    mp_stk                                   0x20000850   Data        6416  rtx_conf_cm.o(.bss)
    os_stack_mem                             0x20002160   Data        1032  rtx_conf_cm.o(.bss)
    os_fifo                                  0x20002568   Data         132  rtx_conf_cm.o(.bss)
    os_active_TCB                            0x200025ec   Data          36  rtx_conf_cm.o(.bss)
    os_messageQ_q_osTimerMessageQ            0x20002610   Data          32  rtx_conf_cm.o(.bss)
    os_idle_TCB                              0x20002a10   Data          52  rt_task.o(.bss)
    os_rdy                                   0x20002a44   Data          24  rt_list.o(.bss)
    os_dly                                   0x20002a5c   Data          24  rt_list.o(.bss)
    __libspace_start                         0x20002a74   Data          96  libspace.o(.bss)
    __temporary_stack_top$libspace           0x20002ad4   Data           0  libspace.o(.bss)



==============================================================================

Memory Map of the image

  Image Entry point : 0x00000201

  Load Region LR_IROM1 (Base: 0x00000000, Size: 0x00007b1c, Max: 0x00100000, ABSOLUTE, COMPRESSED[0x000074c8])

    Execution Region ER_IROM1 (Exec base: 0x00000000, Load base: 0x00000000, Size: 0x000074b0, Max: 0x00100000, ABSOLUTE)

    Exec Addr    Load Addr    Size         Type   Attr      Idx    E Section Name        Object

    0x00000000   0x00000000   0x00000200   Data   RO          314    RESET               startup_tm4c129.o
    0x00000200   0x00000200   0x00000008   Code   RO         3582  * !!!main             c_w.l(__main.o)
    0x00000208   0x00000208   0x00000034   Code   RO         3850    !!!scatter          c_w.l(__scatter.o)
    0x0000023c   0x0000023c   0x0000003a   Code   RO         3848    !!dczerorl          c_w.l(__dczerorl.o)
    0x00000276   0x00000276   0x00000002   PAD
    0x00000278   0x00000278   0x0000001c   Code   RO         3852    !!handler_zi        c_w.l(__scatter_zi.o)
    0x00000294   0x00000294   0x00000002   Code   RO         3728    .ARM.Collect$$libinit$$00000000  c_w.l(libinit.o)
    0x00000296   0x00000296   0x00000004   Code   RO         3743    .ARM.Collect$$libinit$$00000001  c_w.l(libinit2.o)
    0x0000029a   0x0000029a   0x00000000   Code   RO         3746    .ARM.Collect$$libinit$$00000004  c_w.l(libinit2.o)
    0x0000029a   0x0000029a   0x00000000   Code   RO         3749    .ARM.Collect$$libinit$$0000000A  c_w.l(libinit2.o)
    0x0000029a   0x0000029a   0x00000000   Code   RO         3751    .ARM.Collect$$libinit$$0000000C  c_w.l(libinit2.o)
    0x0000029a   0x0000029a   0x00000000   Code   RO         3753    .ARM.Collect$$libinit$$0000000E  c_w.l(libinit2.o)
    0x0000029a   0x0000029a   0x00000000   Code   RO         3756    .ARM.Collect$$libinit$$00000011  c_w.l(libinit2.o)
    0x0000029a   0x0000029a   0x00000000   Code   RO         3758    .ARM.Collect$$libinit$$00000013  c_w.l(libinit2.o)
    0x0000029a   0x0000029a   0x00000000   Code   RO         3760    .ARM.Collect$$libinit$$00000015  c_w.l(libinit2.o)
    0x0000029a   0x0000029a   0x00000000   Code   RO         3762    .ARM.Collect$$libinit$$00000017  c_w.l(libinit2.o)
    0x0000029a   0x0000029a   0x00000000   Code   RO         3764    .ARM.Collect$$libinit$$00000019  c_w.l(libinit2.o)
    0x0000029a   0x0000029a   0x00000000   Code   RO         3766    .ARM.Collect$$libinit$$0000001B  c_w.l(libinit2.o)
    0x0000029a   0x0000029a   0x00000000   Code   RO         3768    .ARM.Collect$$libinit$$0000001D  c_w.l(libinit2.o)
    0x0000029a   0x0000029a   0x00000000   Code   RO         3770    .ARM.Collect$$libinit$$0000001F  c_w.l(libinit2.o)
    0x0000029a   0x0000029a   0x00000000   Code   RO         3772    .ARM.Collect$$libinit$$00000021  c_w.l(libinit2.o)
    0x0000029a   0x0000029a   0x00000000   Code   RO         3774    .ARM.Collect$$libinit$$00000023  c_w.l(libinit2.o)
    0x0000029a   0x0000029a   0x00000000   Code   RO         3776    .ARM.Collect$$libinit$$00000025  c_w.l(libinit2.o)
    0x0000029a   0x0000029a   0x00000000   Code   RO         3780    .ARM.Collect$$libinit$$0000002C  c_w.l(libinit2.o)
    0x0000029a   0x0000029a   0x00000000   Code   RO         3782    .ARM.Collect$$libinit$$0000002E  c_w.l(libinit2.o)
    0x0000029a   0x0000029a   0x00000000   Code   RO         3784    .ARM.Collect$$libinit$$00000030  c_w.l(libinit2.o)
    0x0000029a   0x0000029a   0x00000000   Code   RO         3786    .ARM.Collect$$libinit$$00000032  c_w.l(libinit2.o)
    0x0000029a   0x0000029a   0x00000002   Code   RO         3787    .ARM.Collect$$libinit$$00000033  c_w.l(libinit2.o)
    0x0000029c   0x0000029c   0x00000002   Code   RO         3729    .ARM.Collect$$libshutdown$$00000000  c_w.l(libshutdown.o)
    0x0000029e   0x0000029e   0x00000000   Code   RO         3789    .ARM.Collect$$libshutdown$$00000002  c_w.l(libshutdown2.o)
    0x0000029e   0x0000029e   0x00000000   Code   RO         3791    .ARM.Collect$$libshutdown$$00000004  c_w.l(libshutdown2.o)
    0x0000029e   0x0000029e   0x00000000   Code   RO         3794    .ARM.Collect$$libshutdown$$00000007  c_w.l(libshutdown2.o)
    0x0000029e   0x0000029e   0x00000000   Code   RO         3797    .ARM.Collect$$libshutdown$$0000000A  c_w.l(libshutdown2.o)
    0x0000029e   0x0000029e   0x00000000   Code   RO         3799    .ARM.Collect$$libshutdown$$0000000C  c_w.l(libshutdown2.o)
    0x0000029e   0x0000029e   0x00000000   Code   RO         3802    .ARM.Collect$$libshutdown$$0000000F  c_w.l(libshutdown2.o)
    0x0000029e   0x0000029e   0x00000002   Code   RO         3803    .ARM.Collect$$libshutdown$$00000010  c_w.l(libshutdown2.o)
    0x000002a0   0x000002a0   0x00000000   Code   RO         3620    .ARM.Collect$$rtentry$$00000000  c_w.l(__rtentry.o)
    0x000002a0   0x000002a0   0x00000000   Code   RO         3678    .ARM.Collect$$rtentry$$00000002  c_w.l(__rtentry2.o)
    0x000002a0   0x000002a0   0x00000006   Code   RO         3690    .ARM.Collect$$rtentry$$00000004  c_w.l(__rtentry4.o)
    0x000002a6   0x000002a6   0x00000000   Code   RO         3680    .ARM.Collect$$rtentry$$00000009  c_w.l(__rtentry2.o)
    0x000002a6   0x000002a6   0x00000004   Code   RO         3681    .ARM.Collect$$rtentry$$0000000A  c_w.l(__rtentry2.o)
    0x000002aa   0x000002aa   0x00000008   Code   RO         3682    .ARM.Collect$$rtentry$$0000000B  c_w.l(__rtentry2.o)
    0x000002b2   0x000002b2   0x00000008   Code   RO         3684    .ARM.Collect$$rtentry$$0000000D  c_w.l(__rtentry2.o)
    0x000002ba   0x000002ba   0x00000002   Code   RO         3621    .ARM.Collect$$rtexit$$00000000  c_w.l(rtexit.o)
    0x000002bc   0x000002bc   0x00000000   Code   RO         3693    .ARM.Collect$$rtexit$$00000002  c_w.l(rtexit2.o)
    0x000002bc   0x000002bc   0x00000004   Code   RO         3694    .ARM.Collect$$rtexit$$00000003  c_w.l(rtexit2.o)
    0x000002c0   0x000002c0   0x00000006   Code   RO         3695    .ARM.Collect$$rtexit$$00000004  c_w.l(rtexit2.o)
    0x000002c6   0x000002c6   0x00000002   PAD
    0x000002c8   0x000002c8   0x0000001c   Code   RO          249    .emb_text           rtx_conf_cm.o
    0x000002e4   0x000002e4   0x00000006   Code   RO         1366    .emb_text           driverlib.lib(sysctl.o)
    0x000002ea   0x000002ea   0x00000002   PAD
    0x000002ec   0x000002ec   0x00000198   Code   RO         3533    .emb_text           RTX_CM4.lib(hal_cm4.o)
    0x00000484   0x00000484   0x00000184   Code   RO            4    .text               led.o
    0x00000608   0x00000608   0x000007d8   Code   RO           63    .text               blinky.o
    0x00000de0   0x00000de0   0x000008a0   Code   RO          135    .text               cfaf128x128x16.o
    0x00001680   0x00001680   0x000000c8   Code   RO          172    .text               servo.o
    0x00001748   0x00001748   0x00000284   Code   RO          189    .text               rgb.o
    0x000019cc   0x000019cc   0x000005d8   Code   RO          209    .text               temp.o
    0x00001fa4   0x00001fa4   0x0000063c   Code   RO          235    .text               opt.o
    0x000025e0   0x000025e0   0x000000b0   Code   RO          250    .text               rtx_conf_cm.o
    0x00002690   0x00002690   0x0000012c   Code   RO          315    .text               startup_tm4c129.o
    0x000027bc   0x000027bc   0x00000028   Code   RO          322    .text               system_tm4c129.o
    0x000027e4   0x000027e4   0x00000008   Code   RO         3569    .text               c_w.l(libspace.o)
    0x000027ec   0x000027ec   0x000000ee   Code   RO         3572    .text               c_w.l(lludivv7m.o)
    0x000028da   0x000028da   0x00000048   Code   RO         3574    .text               c_w.l(llsdiv.o)
    0x00002922   0x00002922   0x00000012   Code   RO         3576    .text               c_w.l(exit.o)
    0x00002934   0x00002934   0x00000006   Code   RO         3580    .text               c_w.l(heapauxi.o)
    0x0000293a   0x0000293a   0x00000016   Code   RO         3627    .text               c_w.l(_rserrno.o)
    0x00002950   0x00002950   0x00000004   Code   RO         3706    .text               c_w.l(rt_errno_addr_twolibspace.o)
    0x00002954   0x00002954   0x0000000c   Code   RO         3714    .text               c_w.l(sys_exit.o)
    0x00002960   0x00002960   0x0000004a   Code   RO         3716    .text               c_w.l(sys_stackheap_outer.o)
    0x000029aa   0x000029aa   0x00000002   Code   RO         3734    .text               c_w.l(use_no_semi.o)
    0x000029ac   0x000029ac   0x00000000   Code   RO         3736    .text               c_w.l(indicate_semi.o)
    0x000029ac   0x000029ac   0x00000004   Code   RO         3564    SVC_TABLE           RTX_CM4.lib(svc_table.o)
    0x000029b0   0x000029b0   0x00000028   Code   RO          354    i.GPIODirModeSet    driverlib.lib(gpio.o)
    0x000029d8   0x000029d8   0x00000138   Code   RO          366    i.GPIOPadConfigSet  driverlib.lib(gpio.o)
    0x00002b10   0x00002b10   0x00000044   Code   RO          367    i.GPIOPinConfigure  driverlib.lib(gpio.o)
    0x00002b54   0x00002b54   0x0000001c   Code   RO          377    i.GPIOPinTypeGPIOInput  driverlib.lib(gpio.o)
    0x00002b70   0x00002b70   0x0000001c   Code   RO          381    i.GPIOPinTypeI2C    driverlib.lib(gpio.o)
    0x00002b8c   0x00002b8c   0x0000001c   Code   RO          382    i.GPIOPinTypeI2CSCL  driverlib.lib(gpio.o)
    0x00002ba8   0x00002ba8   0x0000001c   Code   RO          385    i.GPIOPinTypePWM    driverlib.lib(gpio.o)
    0x00002bc4   0x00002bc4   0x0000001c   Code   RO          388    i.GPIOPinTypeTimer  driverlib.lib(gpio.o)
    0x00002be0   0x00002be0   0x00000006   Code   RO         2036    i.GrContextFontSet  grlib.lib(string.o)
    0x00002be6   0x00002be6   0x00000002   PAD
    0x00002be8   0x00002be8   0x00000064   Code   RO         1957    i.GrContextInit     grlib.lib(context.o)
    0x00002c4c   0x00002c4c   0x00000118   Code   RO         2037    i.GrDefaultStringRenderer  grlib.lib(string.o)
    0x00002d64   0x00002d64   0x0000002c   Code   RO         2038    i.GrFontBaselineGet  grlib.lib(string.o)
    0x00002d90   0x00002d90   0x000000a6   Code   RO         2041    i.GrFontGlyphDataGet  grlib.lib(string.o)
    0x00002e36   0x00002e36   0x00000288   Code   RO         2042    i.GrFontGlyphRender  grlib.lib(string.o)
    0x000030be   0x000030be   0x00000008   Code   RO         2919    i.GrMapISO8859_1_Unicode  grlib.lib(charmap.o)
    0x000030c6   0x000030c6   0x000000b4   Code   RO         2006    i.GrRectFill        grlib.lib(rectangle.o)
    0x0000317a   0x0000317a   0x00000020   Code   RO         2048    i.GrStringDraw      grlib.lib(string.o)
    0x0000319a   0x0000319a   0x000000c0   Code   RO         2053    i.GrStringWidthGet  grlib.lib(string.o)
    0x0000325a   0x0000325a   0x00000002   PAD
    0x0000325c   0x0000325c   0x00000060   Code   RO          685    i.I2CIntRegister    driverlib.lib(i2c.o)
    0x000032bc   0x000032bc   0x00000004   Code   RO          689    i.I2CMasterBurstLengthSet  driverlib.lib(i2c.o)
    0x000032c0   0x000032c0   0x0000000c   Code   RO          690    i.I2CMasterBusBusy  driverlib.lib(i2c.o)
    0x000032cc   0x000032cc   0x0000000c   Code   RO          691    i.I2CMasterBusy     driverlib.lib(i2c.o)
    0x000032d8   0x000032d8   0x00000004   Code   RO          692    i.I2CMasterControl  driverlib.lib(i2c.o)
    0x000032dc   0x000032dc   0x00000004   Code   RO          693    i.I2CMasterDataGet  driverlib.lib(i2c.o)
    0x000032e0   0x000032e0   0x00000004   Code   RO          694    i.I2CMasterDataPut  driverlib.lib(i2c.o)
    0x000032e4   0x000032e4   0x0000000a   Code   RO          696    i.I2CMasterEnable   driverlib.lib(i2c.o)
    0x000032ee   0x000032ee   0x00000018   Code   RO          697    i.I2CMasterErr      driverlib.lib(i2c.o)
    0x00003306   0x00003306   0x00000002   PAD
    0x00003308   0x00003308   0x00000054   Code   RO          698    i.I2CMasterGlitchFilterConfigSet  driverlib.lib(i2c.o)
    0x0000335c   0x0000335c   0x00000054   Code   RO          699    i.I2CMasterInitExpClk  driverlib.lib(i2c.o)
    0x000033b0   0x000033b0   0x00000008   Code   RO          700    i.I2CMasterIntClear  driverlib.lib(i2c.o)
    0x000033b8   0x000033b8   0x00000004   Code   RO          701    i.I2CMasterIntClearEx  driverlib.lib(i2c.o)
    0x000033bc   0x000033bc   0x00000008   Code   RO          705    i.I2CMasterIntEnableEx  driverlib.lib(i2c.o)
    0x000033c4   0x000033c4   0x00000008   Code   RO          709    i.I2CMasterSlaveAddrSet  driverlib.lib(i2c.o)
    0x000033cc   0x000033cc   0x00000004   Code   RO          710    i.I2CMasterTimeoutSet  driverlib.lib(i2c.o)
    0x000033d0   0x000033d0   0x00000064   Code   RO         1018    i.IntEnable         driverlib.lib(interrupt.o)
    0x00003434   0x00003434   0x00000034   Code   RO         1030    i.IntRegister       driverlib.lib(interrupt.o)
    0x00003468   0x00003468   0x00000014   Code   RO         1134    i.PWMClockSet       driverlib.lib(pwm.o)
    0x0000347c   0x0000347c   0x00000026   Code   RO         1141    i.PWMGenConfigure   driverlib.lib(pwm.o)
    0x000034a2   0x000034a2   0x0000000a   Code   RO         1142    i.PWMGenDisable     driverlib.lib(pwm.o)
    0x000034ac   0x000034ac   0x0000000a   Code   RO         1143    i.PWMGenEnable      driverlib.lib(pwm.o)
    0x000034b6   0x000034b6   0x00000012   Code   RO         1155    i.PWMGenPeriodGet   driverlib.lib(pwm.o)
    0x000034c8   0x000034c8   0x00000012   Code   RO         1156    i.PWMGenPeriodSet   driverlib.lib(pwm.o)
    0x000034da   0x000034da   0x00000010   Code   RO         1163    i.PWMOutputState    driverlib.lib(pwm.o)
    0x000034ea   0x000034ea   0x00000020   Code   RO         1166    i.PWMPulseWidthSet  driverlib.lib(pwm.o)
    0x0000350a   0x0000350a   0x00000002   PAD
    0x0000350c   0x0000350c   0x000002ec   Code   RO         1368    i.SysCtlClockFreqSet  driverlib.lib(sysctl.o)
    0x000037f8   0x000037f8   0x00000028   Code   RO         1400    i.SysCtlPeripheralEnable  driverlib.lib(sysctl.o)
    0x00003820   0x00003820   0x0000002c   Code   RO         1404    i.SysCtlPeripheralReady  driverlib.lib(sysctl.o)
    0x0000384c   0x0000384c   0x0000003c   Code   RO         1405    i.SysCtlPeripheralReset  driverlib.lib(sysctl.o)
    0x00003888   0x00003888   0x00000006   Code   RO         1717    i.TimerClockSourceSet  driverlib.lib(timer.o)
    0x0000388e   0x0000388e   0x00000002   PAD
    0x00003890   0x00003890   0x00000060   Code   RO         1718    i.TimerConfigure    driverlib.lib(timer.o)
    0x000038f0   0x000038f0   0x00000016   Code   RO         1720    i.TimerControlLevel  driverlib.lib(timer.o)
    0x00003906   0x00003906   0x0000000e   Code   RO         1727    i.TimerEnable       driverlib.lib(timer.o)
    0x00003914   0x00003914   0x00000012   Code   RO         1736    i.TimerLoadSet      driverlib.lib(timer.o)
    0x00003926   0x00003926   0x00000012   Code   RO         1740    i.TimerMatchSet     driverlib.lib(timer.o)
    0x00003938   0x00003938   0x00000012   Code   RO         1745    i.TimerPrescaleSet  driverlib.lib(timer.o)
    0x0000394a   0x0000394a   0x0000002a   Code   RO         1749    i.TimerUpdateMode   driverlib.lib(timer.o)
    0x00003974   0x00003974   0x0000006c   Code   RO         2054    i.UpdateContextCharMapping  grlib.lib(string.o)
    0x000039e0   0x000039e0   0x00000030   Code   RO         3660    i.__ARM_fpclassify  m_wm.l(fpclassify.o)
    0x00003a10   0x00003a10   0x00000c50   Code   RO         3606    i.__hardfp_pow      m_wm.l(pow.o)
    0x00004660   0x00004660   0x000000f8   Code   RO         3662    i.__kernel_poly     m_wm.l(poly.o)
    0x00004758   0x00004758   0x00000030   Code   RO         3640    i.__mathlib_dbl_divzero  m_wm.l(dunder.o)
    0x00004788   0x00004788   0x00000014   Code   RO         3642    i.__mathlib_dbl_infnan2  m_wm.l(dunder.o)
    0x0000479c   0x0000479c   0x00000004   PAD
    0x000047a0   0x000047a0   0x00000020   Code   RO         3643    i.__mathlib_dbl_invalid  m_wm.l(dunder.o)
    0x000047c0   0x000047c0   0x00000020   Code   RO         3644    i.__mathlib_dbl_overflow  m_wm.l(dunder.o)
    0x000047e0   0x000047e0   0x00000020   Code   RO         3646    i.__mathlib_dbl_underflow  m_wm.l(dunder.o)
    0x00004800   0x00004800   0x00000046   Code   RO         3427    i._init_box         RTX_CM4.lib(rt_membox.o)
    0x00004846   0x00004846   0x00000002   PAD
    0x00004848   0x00004848   0x00000030   Code   RO         3480    i.dbg_init          RTX_CM4.lib(hal_cm.o)
    0x00004878   0x00004878   0x00000020   Code   RO         3481    i.dbg_task_notify   RTX_CM4.lib(hal_cm.o)
    0x00004898   0x00004898   0x00000010   Code   RO         3482    i.dbg_task_switch   RTX_CM4.lib(hal_cm.o)
    0x000048a8   0x000048a8   0x00000018   Code   RO         3656    i.fabs              m_wm.l(fabs.o)
    0x000048c0   0x000048c0   0x0000002a   Code   RO         2166    i.isrMessageGet     RTX_CM4.lib(rt_cmsis.o)
    0x000048ea   0x000048ea   0x0000002c   Code   RO         2167    i.isrMessagePut     RTX_CM4.lib(rt_cmsis.o)
    0x00004916   0x00004916   0x00000024   Code   RO         2169    i.isrSignalSet      RTX_CM4.lib(rt_cmsis.o)
    0x0000493a   0x0000493a   0x00000002   PAD
    0x0000493c   0x0000493c   0x00000028   Code   RO         3185    i.isr_evt_set       RTX_CM4.lib(rt_event.o)
    0x00004964   0x00004964   0x00000056   Code   RO         3303    i.isr_mbx_receive   RTX_CM4.lib(rt_mailbox.o)
    0x000049ba   0x000049ba   0x0000000e   Code   RO         3304    i.isr_mbx_send      RTX_CM4.lib(rt_mailbox.o)
    0x000049c8   0x000049c8   0x00000018   Code   RO         2170    i.osDelay           RTX_CM4.lib(rt_cmsis.o)
    0x000049e0   0x000049e0   0x00000024   Code   RO         2171    i.osKernelInitialize  RTX_CM4.lib(rt_cmsis.o)
    0x00004a04   0x00004a04   0x0000006c   Code   RO         2173    i.osKernelStart     RTX_CM4.lib(rt_cmsis.o)
    0x00004a70   0x00004a70   0x00000018   Code   RO         2182    i.osMessageGet      RTX_CM4.lib(rt_cmsis.o)
    0x00004a88   0x00004a88   0x00000018   Code   RO         2197    i.osSignalSet       RTX_CM4.lib(rt_cmsis.o)
    0x00004aa0   0x00004aa0   0x00000018   Code   RO         2198    i.osSignalWait      RTX_CM4.lib(rt_cmsis.o)
    0x00004ab8   0x00004ab8   0x0000002c   Code   RO         2199    i.osThreadCreate    RTX_CM4.lib(rt_cmsis.o)
    0x00004ae4   0x00004ae4   0x00000018   Code   RO         2200    i.osThreadExit      RTX_CM4.lib(rt_cmsis.o)
    0x00004afc   0x00004afc   0x0000000c   Code   RO         2206    i.osTimerCall       RTX_CM4.lib(rt_cmsis.o)
    0x00004b08   0x00004b08   0x0000002c   Code   RO         2211    i.osTimerThread     RTX_CM4.lib(rt_cmsis.o)
    0x00004b34   0x00004b34   0x00000028   Code   RO         3095    i.os_tick_init      RTX_CM4.lib(rt_system.o)
    0x00004b5c   0x00004b5c   0x00000002   Code   RO         3096    i.os_tick_irqack    RTX_CM4.lib(rt_system.o)
    0x00004b5e   0x00004b5e   0x0000001a   Code   RO         3428    i.rt_alloc_box      RTX_CM4.lib(rt_membox.o)
    0x00004b78   0x00004b78   0x0000003e   Code   RO         3456    i.rt_alloc_mem      RTX_CM4.lib(rt_memory.o)
    0x00004bb6   0x00004bb6   0x00000002   PAD
    0x00004bb8   0x00004bb8   0x00000038   Code   RO         2785    i.rt_block          RTX_CM4.lib(rt_task.o)
    0x00004bf0   0x00004bf0   0x00000070   Code   RO         3227    i.rt_dec_dly        RTX_CM4.lib(rt_list.o)
    0x00004c60   0x00004c60   0x00000044   Code   RO         2786    i.rt_dispatch       RTX_CM4.lib(rt_task.o)
    0x00004ca4   0x00004ca4   0x00000006   Code   RO         3393    i.rt_dly_wait       RTX_CM4.lib(rt_time.o)
    0x00004caa   0x00004caa   0x00000002   PAD
    0x00004cac   0x00004cac   0x00000050   Code   RO         3188    i.rt_evt_psh        RTX_CM4.lib(rt_event.o)
    0x00004cfc   0x00004cfc   0x0000005c   Code   RO         3189    i.rt_evt_set        RTX_CM4.lib(rt_event.o)
    0x00004d58   0x00004d58   0x0000003c   Code   RO         3190    i.rt_evt_wait       RTX_CM4.lib(rt_event.o)
    0x00004d94   0x00004d94   0x0000002c   Code   RO         3429    i.rt_free_box       RTX_CM4.lib(rt_membox.o)
    0x00004dc0   0x00004dc0   0x00000028   Code   RO         3457    i.rt_free_mem       RTX_CM4.lib(rt_memory.o)
    0x00004de8   0x00004de8   0x00000028   Code   RO         3228    i.rt_get_first      RTX_CM4.lib(rt_list.o)
    0x00004e10   0x00004e10   0x00000008   Code   RO         2216    i.rt_id2obj         RTX_CM4.lib(rt_cmsis.o)
    0x00004e18   0x00004e18   0x00000048   Code   RO         2787    i.rt_init_context   RTX_CM4.lib(rt_task.o)
    0x00004e60   0x00004e60   0x0000001a   Code   RO         3458    i.rt_init_mem       RTX_CM4.lib(rt_memory.o)
    0x00004e7a   0x00004e7a   0x00000002   PAD
    0x00004e7c   0x00004e7c   0x00000080   Code   RO         3483    i.rt_init_stack     RTX_CM4.lib(hal_cm.o)
    0x00004efc   0x00004efc   0x00000008   Code   RO         3305    i.rt_mbx_check      RTX_CM4.lib(rt_mailbox.o)
    0x00004f04   0x00004f04   0x0000001a   Code   RO         3306    i.rt_mbx_init       RTX_CM4.lib(rt_mailbox.o)
    0x00004f1e   0x00004f1e   0x00000002   PAD
    0x00004f20   0x00004f20   0x000000f0   Code   RO         3307    i.rt_mbx_psh        RTX_CM4.lib(rt_mailbox.o)
    0x00005010   0x00005010   0x000000b4   Code   RO         3309    i.rt_mbx_wait       RTX_CM4.lib(rt_mailbox.o)
    0x000050c4   0x000050c4   0x00000044   Code   RO         2217    i.rt_ms2tick        RTX_CM4.lib(rt_cmsis.o)
    0x00005108   0x00005108   0x00000010   Code   RO         2870    i.rt_mut_init       RTX_CM4.lib(rt_mutex.o)
    0x00005118   0x00005118   0x000000d8   Code   RO         2871    i.rt_mut_release    RTX_CM4.lib(rt_mutex.o)
    0x000051f0   0x000051f0   0x00000078   Code   RO         2872    i.rt_mut_wait       RTX_CM4.lib(rt_mutex.o)
    0x00005268   0x00005268   0x0000007c   Code   RO         3099    i.rt_pop_req        RTX_CM4.lib(rt_system.o)
    0x000052e4   0x000052e4   0x00000020   Code   RO         3100    i.rt_psh_req        RTX_CM4.lib(rt_system.o)
    0x00005304   0x00005304   0x0000005c   Code   RO         3230    i.rt_psq_enq        RTX_CM4.lib(rt_list.o)
    0x00005360   0x00005360   0x00000048   Code   RO         3231    i.rt_put_dly        RTX_CM4.lib(rt_list.o)
    0x000053a8   0x000053a8   0x00000036   Code   RO         3232    i.rt_put_prio       RTX_CM4.lib(rt_list.o)
    0x000053de   0x000053de   0x00000002   PAD
    0x000053e0   0x000053e0   0x00000014   Code   RO         3233    i.rt_put_rdy_first  RTX_CM4.lib(rt_list.o)
    0x000053f4   0x000053f4   0x00000034   Code   RO         3234    i.rt_resort_prio    RTX_CM4.lib(rt_list.o)
    0x00005428   0x00005428   0x00000010   Code   RO         3484    i.rt_ret_regs       RTX_CM4.lib(hal_cm.o)
    0x00005438   0x00005438   0x0000000c   Code   RO         3485    i.rt_ret_val        RTX_CM4.lib(hal_cm.o)
    0x00005444   0x00005444   0x00000010   Code   RO         3486    i.rt_ret_val2       RTX_CM4.lib(hal_cm.o)
    0x00005454   0x00005454   0x00000028   Code   RO         3235    i.rt_rmv_dly        RTX_CM4.lib(rt_list.o)
    0x0000547c   0x0000547c   0x00000030   Code   RO         3236    i.rt_rmv_list       RTX_CM4.lib(rt_list.o)
    0x000054ac   0x000054ac   0x00000034   Code   RO         3354    i.rt_sem_psh        RTX_CM4.lib(rt_semaphore.o)
    0x000054e0   0x000054e0   0x00000024   Code   RO         3102    i.rt_stk_check      RTX_CM4.lib(rt_system.o)
    0x00005504   0x00005504   0x00000028   Code   RO         2788    i.rt_switch_req     RTX_CM4.lib(rt_task.o)
    0x0000552c   0x0000552c   0x000000cc   Code   RO         2789    i.rt_sys_init       RTX_CM4.lib(rt_task.o)
    0x000055f8   0x000055f8   0x00000078   Code   RO         2790    i.rt_sys_start      RTX_CM4.lib(rt_task.o)
    0x00005670   0x00005670   0x00000040   Code   RO         3104    i.rt_systick        RTX_CM4.lib(rt_system.o)
    0x000056b0   0x000056b0   0x00000012   Code   RO         2218    i.rt_tid2ptcb       RTX_CM4.lib(rt_cmsis.o)
    0x000056c2   0x000056c2   0x00000002   PAD
    0x000056c4   0x000056c4   0x00000034   Code   RO         2219    i.rt_timer_insert   RTX_CM4.lib(rt_cmsis.o)
    0x000056f8   0x000056f8   0x00000088   Code   RO         2791    i.rt_tsk_create     RTX_CM4.lib(rt_task.o)
    0x00005780   0x00005780   0x0000017c   Code   RO         2792    i.rt_tsk_delete     RTX_CM4.lib(rt_task.o)
    0x000058fc   0x000058fc   0x0000007c   Code   RO         2794    i.rt_tsk_prio       RTX_CM4.lib(rt_task.o)
    0x00005978   0x00005978   0x00000010   Code   RO         2795    i.rt_tsk_self       RTX_CM4.lib(rt_task.o)
    0x00005988   0x00005988   0x0000006e   Code   RO         3667    i.sqrt              m_wm.l(sqrt.o)
    0x000059f6   0x000059f6   0x00000012   Code   RO         2221    i.svcDelay          RTX_CM4.lib(rt_cmsis.o)
    0x00005a08   0x00005a08   0x00000070   Code   RO         2222    i.svcKernelInitialize  RTX_CM4.lib(rt_cmsis.o)
    0x00005a78   0x00005a78   0x00000048   Code   RO         2224    i.svcKernelStart    RTX_CM4.lib(rt_cmsis.o)
    0x00005ac0   0x00005ac0   0x00000024   Code   RO         2227    i.svcMessageCreate  RTX_CM4.lib(rt_cmsis.o)
    0x00005ae4   0x00005ae4   0x0000003a   Code   RO         2228    i.svcMessageGet     RTX_CM4.lib(rt_cmsis.o)
    0x00005b1e   0x00005b1e   0x00000024   Code   RO         2240    i.svcSignalSet      RTX_CM4.lib(rt_cmsis.o)
    0x00005b42   0x00005b42   0x00000002   PAD
    0x00005b44   0x00005b44   0x00000054   Code   RO         2241    i.svcSignalWait     RTX_CM4.lib(rt_cmsis.o)
    0x00005b98   0x00005b98   0x0000006c   Code   RO         2242    i.svcThreadCreate   RTX_CM4.lib(rt_cmsis.o)
    0x00005c04   0x00005c04   0x0000001c   Code   RO         2243    i.svcThreadGetId    RTX_CM4.lib(rt_cmsis.o)
    0x00005c20   0x00005c20   0x00000038   Code   RO         2246    i.svcThreadTerminate  RTX_CM4.lib(rt_cmsis.o)
    0x00005c58   0x00005c58   0x00000018   Code   RO         2248    i.svcTimerCall      RTX_CM4.lib(rt_cmsis.o)
    0x00005c70   0x00005c70   0x0000005c   Code   RO         2257    i.sysTimerTick      RTX_CM4.lib(rt_cmsis.o)
    0x00005ccc   0x00005ccc   0x00000018   Code   RO         3629    x$fpl$basic         fz_wm.l(basic.o)
    0x00005ce4   0x00005ce4   0x00000150   Code   RO         3584    x$fpl$dadd          fz_wm.l(daddsub_clz.o)
    0x00005e34   0x00005e34   0x00000010   Code   RO         3708    x$fpl$dcheck1       fz_wm.l(dcheck1.o)
    0x00005e44   0x00005e44   0x00000018   Code   RO         3730    x$fpl$dcmpinf       fz_wm.l(dcmpi.o)
    0x00005e5c   0x00005e5c   0x000002b0   Code   RO         3591    x$fpl$ddiv          fz_wm.l(ddiv.o)
    0x0000610c   0x0000610c   0x0000005e   Code   RO         3594    x$fpl$dfix          fz_wm.l(dfix.o)
    0x0000616a   0x0000616a   0x0000002e   Code   RO         3599    x$fpl$dflt          fz_wm.l(dflt_clz.o)
    0x00006198   0x00006198   0x00000078   Code   RO         3710    x$fpl$dleqf         fz_wm.l(dleqf.o)
    0x00006210   0x00006210   0x00000154   Code   RO         3604    x$fpl$dmul          fz_wm.l(dmul.o)
    0x00006364   0x00006364   0x0000009c   Code   RO         3631    x$fpl$dnaninf       fz_wm.l(dnaninf.o)
    0x00006400   0x00006400   0x0000000c   Code   RO         3633    x$fpl$dretinf       fz_wm.l(dretinf.o)
    0x0000640c   0x0000640c   0x0000006c   Code   RO         3635    x$fpl$drleqf        fz_wm.l(drleqf.o)
    0x00006478   0x00006478   0x00000016   Code   RO         3585    x$fpl$drsb          fz_wm.l(daddsub_clz.o)
    0x0000648e   0x0000648e   0x00000002   PAD
    0x00006490   0x00006490   0x00000198   Code   RO         3712    x$fpl$dsqrt         fz_wm.l(dsqrt_umaal.o)
    0x00006628   0x00006628   0x000001d4   Code   RO         3586    x$fpl$dsub          fz_wm.l(daddsub_clz.o)
    0x000067fc   0x000067fc   0x0000000a   Code   RO         3812    x$fpl$fpinit        fz_wm.l(fpinit.o)
    0x00006806   0x00006806   0x00000064   Code   RO         3732    x$fpl$retnan        fz_wm.l(retnan.o)
    0x0000686a   0x0000686a   0x0000005c   Code   RO         3637    x$fpl$scalbn        fz_wm.l(scalbn.o)
    0x000068c6   0x000068c6   0x00000030   Code   RO         3804    x$fpl$trapveneer    fz_wm.l(trapv.o)
    0x000068f6   0x000068f6   0x00000000   Code   RO         3639    x$fpl$usenofp       fz_wm.l(usenofp.o)
    0x000068f6   0x000068f6   0x00000002   PAD
    0x000068f8   0x000068f8   0x00000010   Data   RO            5    .constdata          led.o
    0x00006908   0x00006908   0x00000050   Data   RO           64    .constdata          blinky.o
    0x00006958   0x00006958   0x00000040   Data   RO          136    .constdata          cfaf128x128x16.o
    0x00006998   0x00006998   0x00000068   Data   RO          252    .constdata          rtx_conf_cm.o
    0x00006a00   0x00006a00   0x00000228   Data   RO          398    .constdata          driverlib.lib(gpio.o)
    0x00006c28   0x00006c28   0x00000080   Data   RO          734    .constdata          driverlib.lib(i2c.o)
    0x00006ca8   0x00006ca8   0x0000010c   Data   RO         1034    .constdata          driverlib.lib(interrupt.o)
    0x00006db4   0x00006db4   0x00000254   Data   RO         1422    .constdata          driverlib.lib(sysctl.o)
    0x00007008   0x00007008   0x00000010   Data   RO         1959    .constdata          grlib.lib(context.o)
    0x00007018   0x00007018   0x000002f8   Data   RO         1991    .constdata          grlib.lib(fontfixed6x8.o)
    0x00007310   0x00007310   0x000000c8   Data   RO         1992    .constdata          grlib.lib(fontfixed6x8.o)
    0x000073d8   0x000073d8   0x00000088   Data   RO         3609    .constdata          m_wm.l(pow.o)
    0x00007460   0x00007460   0x00000008   Data   RO         3664    .constdata          m_wm.l(qnan.o)
    0x00007468   0x00007468   0x00000025   Data   RO           65    .conststring        blinky.o
    0x0000748d   0x0000748d   0x00000003   PAD
    0x00007490   0x00007490   0x00000020   Data   RO         3846    Region$$Table       anon$$obj.o


    Execution Region RW_IRAM1 (Exec base: 0x20000000, Load base: 0x000074b0, Size: 0x00002cd8, Max: 0x00040000, ABSOLUTE, COMPRESSED[0x00000018])

    Exec Addr    Load Addr    Size         Type   Attr      Idx    E Section Name        Object

    0x20000000   COMPRESSED   0x00000024   Data   RW           66    .data               blinky.o
    0x20000024   COMPRESSED   0x00000005   Data   RW          137    .data               cfaf128x128x16.o
    0x20000029   COMPRESSED   0x00000003   PAD
    0x2000002c   COMPRESSED   0x00000004   Data   RW          173    .data               servo.o
    0x20000030   COMPRESSED   0x00000007   Data   RW          190    .data               rgb.o
    0x20000037   COMPRESSED   0x00000001   PAD
    0x20000038   COMPRESSED   0x0000000b   Data   RW          210    .data               temp.o
    0x20000043   COMPRESSED   0x00000001   PAD
    0x20000044   COMPRESSED   0x0000000f   Data   RW          236    .data               opt.o
    0x20000053   COMPRESSED   0x00000001   PAD
    0x20000054   COMPRESSED   0x00000014   Data   RW          253    .data               rtx_conf_cm.o
    0x20000068   COMPRESSED   0x00000004   Data   RW          323    .data               system_tm4c129.o
    0x2000006c   COMPRESSED   0x00000004   Data   RW         1960    .data               grlib.lib(context.o)
    0x20000070   COMPRESSED   0x00000008   Data   RW         2260    .data               RTX_CM4.lib(rt_cmsis.o)
    0x20000078   COMPRESSED   0x00000008   Data   RW         2797    .data               RTX_CM4.lib(rt_task.o)
    0x20000080   COMPRESSED   0x00000008   Data   RW         3107    .data               RTX_CM4.lib(rt_system.o)
    0x20000088   COMPRESSED   0x00000004   Data   RW         3397    .data               RTX_CM4.lib(rt_time.o)
    0x2000008c   COMPRESSED   0x00000001   Data   RW         3487    .data               RTX_CM4.lib(hal_cm.o)
    0x2000008d   COMPRESSED   0x00000373   PAD
    0x20000400   COMPRESSED   0x0000026c   Data   RW         1035    vtable              driverlib.lib(interrupt.o)
    0x2000066c   COMPRESSED   0x00000004   PAD
    0x20000670        -       0x000023a0   Zero   RW          251    .bss                rtx_conf_cm.o
    0x20002a10        -       0x00000034   Zero   RW         2796    .bss                RTX_CM4.lib(rt_task.o)
    0x20002a44        -       0x00000030   Zero   RW         3237    .bss                RTX_CM4.lib(rt_list.o)
    0x20002a74        -       0x00000060   Zero   RW         3570    .bss                c_w.l(libspace.o)
    0x20002ad4   COMPRESSED   0x00000004   PAD
    0x20002ad8        -       0x00000000   Zero   RW          313    HEAP                startup_tm4c129.o
    0x20002ad8        -       0x00000200   Zero   RW          312    STACK               startup_tm4c129.o


==============================================================================

Image component sizes


      Code (inc. data)   RO Data    RW Data    ZI Data      Debug   Object Name

      2008        264        117         36          0      34312   blinky.o
      2208         98         64          5          0      11026   cfaf128x128x16.o
       388         32         16          0          0       6323   led.o
      1596         92          0         15          0       4719   opt.o
       644         54          0          7          0       1921   rgb.o
       204         36        104         20       9120       9336   rtx_conf_cm.o
       200         38          0          4          0        809   servo.o
       300         22        512          0        512       6052   startup_tm4c129.o
        40         12          0          4          0        925   system_tm4c129.o
      1496         78          0         11          0       4776   temp.o

    ----------------------------------------------------------------------
      9084        726        848        108       9632      80199   Object Totals
         0          0         32          0          0          0   (incl. Generated)
         0          0          3          6          0          0   (incl. Padding)

    ----------------------------------------------------------------------

      Code (inc. data)   RO Data    RW Data    ZI Data      Debug   Library Member Name

       268         24          0          1          0       4524   hal_cm.o
       408         34          0          0          0        824   hal_cm4.o
      1356        160          0          8          0      39206   rt_cmsis.o
       272         18          0          0          0       2842   rt_event.o
       530         34          0          0         48       8685   rt_list.o
       554         10          0          0          0       4237   rt_mailbox.o
       140          0          0          0          0       2069   rt_membox.o
       128          0          0          0          0       2451   rt_memory.o
       352         14          0          0          0       2249   rt_mutex.o
        52          4          0          0          0        621   rt_semaphore.o
       298         52          0          8          0       6511   rt_system.o
      1216        174          0          8         52      10129   rt_task.o
         6          0          0          4          0        700   rt_time.o
         4          4          0          0          0        208   svc_table.o
        58          0          0          0          0          0   __dczerorl.o
         8          0          0          0          0         68   __main.o
         0          0          0          0          0          0   __rtentry.o
        20          0          0          0          0          0   __rtentry2.o
         6          0          0          0          0          0   __rtentry4.o
        52          8          0          0          0          0   __scatter.o
        28          0          0          0          0          0   __scatter_zi.o
        22          0          0          0          0        100   _rserrno.o
        18          0          0          0          0         80   exit.o
         6          0          0          0          0        152   heapauxi.o
         0          0          0          0          0          0   indicate_semi.o
         2          0          0          0          0          0   libinit.o
         6          0          0          0          0          0   libinit2.o
         2          0          0          0          0          0   libshutdown.o
         2          0          0          0          0          0   libshutdown2.o
         8          4          0          0         96         68   libspace.o
        72          0          0          0          0         76   llsdiv.o
       238          0          0          0          0        100   lludivv7m.o
         4          0          0          0          0         68   rt_errno_addr_twolibspace.o
         2          0          0          0          0          0   rtexit.o
        10          0          0          0          0          0   rtexit2.o
        12          4          0          0          0         68   sys_exit.o
        74          0          0          0          0         80   sys_stackheap_outer.o
         2          0          0          0          0         68   use_no_semi.o
       560          8        552          0          0       9471   gpio.o
       370         38        128          0          0      10381   i2c.o
       152         16        268        620          0       2302   interrupt.o
       162          0          0          0          0       4567   pwm.o
       898         54        596          0          0       6462   sysctl.o
       234          8          0          0          0       4785   timer.o
        24          0          0          0          0        164   basic.o
       826         16          0          0          0        492   daddsub_clz.o
        16          4          0          0          0        116   dcheck1.o
        24          0          0          0          0        116   dcmpi.o
       688        140          0          0          0        256   ddiv.o
        94          4          0          0          0        140   dfix.o
        46          0          0          0          0        116   dflt_clz.o
       120          4          0          0          0        140   dleqf.o
       340         12          0          0          0        152   dmul.o
       156          4          0          0          0        140   dnaninf.o
        12          0          0          0          0        116   dretinf.o
       108          0          0          0          0        128   drleqf.o
       408         56          0          0          0        168   dsqrt_umaal.o
        10          0          0          0          0        116   fpinit.o
       100          0          0          0          0        116   retnan.o
        92          0          0          0          0        116   scalbn.o
        48          0          0          0          0        116   trapv.o
         0          0          0          0          0          0   usenofp.o
         8          0          0          0          0       1526   charmap.o
       100         12         16          4          0      26535   context.o
         0          0        960          0          0      25758   fontfixed6x8.o
       180          0          0          0          0       1526   rectangle.o
      1476          0          0          0          0      11290   string.o
       164         44          0          0          0        620   dunder.o
        24          0          0          0          0        124   fabs.o
        48          0          0          0          0        124   fpclassify.o
       248          0          0          0          0        152   poly.o
      3152        296        136          0          0        352   pow.o
         0          0          8          0          0          0   qnan.o
       110          0          0          0          0        148   sqrt.o

    ----------------------------------------------------------------------
     17276       1260       2664       1536        204     195015   Library Totals
        42          0          0        883          8          0   (incl. Padding)

    ----------------------------------------------------------------------

      Code (inc. data)   RO Data    RW Data    ZI Data      Debug   Library Name

      5584        528          0         29        100      85256   RTX_CM4.lib
       652         16          0          0         96        928   c_w.l
      2376        124       1544        620          0      37968   driverlib.lib
      3112        240          0          0          0       2708   fz_wm.l
      1764         12        976          4          0      66635   grlib.lib
      3746        340        144          0          0       1520   m_wm.l

    ----------------------------------------------------------------------
     17276       1260       2664       1536        204     195015   Library Totals

    ----------------------------------------------------------------------

==============================================================================


      Code (inc. data)   RO Data    RW Data    ZI Data      Debug   

     26360       1986       3512       1644       9836     257550   Grand Totals
     26360       1986       3512         24       9836     257550   ELF Image Totals (compressed)
     26360       1986       3512         24          0          0   ROM Totals

==============================================================================

    Total RO  Size (Code + RO Data)                29872 (  29.17kB)
    Total RW  Size (RW Data + ZI Data)             11480 (  11.21kB)
    Total ROM Size (Code + RO Data + RW Data)      29896 (  29.20kB)

==============================================================================

