Component: ARM Compiler 5.06 update 5 (build 528) Tool: armlink [4d35e2]

==============================================================================

Section Cross References

    blinky.o(.text) refers to llsdiv.o(.text) for __aeabi_ldivmod
    blinky.o(.text) refers to cfaf128x128x16.o(.text) for cfaf128x128x16Init
    blinky.o(.text) refers to joy.o(.text) for joy_init
    blinky.o(.text) refers to accel.o(.text) for accel_init
    blinky.o(.text) refers to buzzer.o(.text) for buzzer_init
    blinky.o(.text) refers to buttons.o(.text) for button_init
    blinky.o(.text) refers to mic.o(.text) for mic_init
    blinky.o(.text) refers to rgb.o(.text) for rgb_init
    blinky.o(.text) refers to servo.o(.text) for servo_init
    blinky.o(.text) refers to temp.o(.text) for temp_init
    blinky.o(.text) refers to opt.o(.text) for opt_init
    blinky.o(.text) refers to led.o(.text) for led_init
    blinky.o(.text) refers to context.o(i.GrContextInit) for GrContextInit
    blinky.o(.text) refers to string.o(i.GrContextFontSet) for GrContextFontSet
    blinky.o(.text) refers to string.o(i.GrFontBaselineGet) for GrFontBaselineGet
    blinky.o(.text) refers to string.o(i.GrStringWidthGet) for GrStringWidthGet
    blinky.o(.text) refers to string.o(i.GrStringDraw) for GrStringDraw
    blinky.o(.text) refers to rt_cmsis.o(i.osSignalSet) for osSignalSet
    blinky.o(.text) refers to rt_cmsis.o(i.osSignalWait) for osSignalWait
    blinky.o(.text) refers to rt_cmsis.o(i.osDelay) for osDelay
    blinky.o(.text) refers to rectangle.o(i.GrRectFill) for GrRectFill
    blinky.o(.text) refers to blinky.o(.data) for pAscii
    blinky.o(.text) refers to cfaf128x128x16.o(.constdata) for g_sCfaf128x128x16
    blinky.o(.text) refers to blinky.o(.bss) for sContext
    blinky.o(.text) refers to fontfixed6x8.o(.constdata) for g_sFontFixed6x8
    blinky.o(.text) refers to rt_cmsis.o(i.osKernelInitialize) for osKernelInitialize
    blinky.o(.text) refers to rt_cmsis.o(i.osThreadCreate) for osThreadCreate
    blinky.o(.text) refers to rt_cmsis.o(i.osKernelStart) for osKernelStart
    blinky.o(.text) refers to blinky.o(.constdata) for os_thread_def_t_buzzer
    blinky.o(.constdata) refers to blinky.o(.text) for t_buzzer
    blinky.o(.data) refers to blinky.o(.conststring) for .conststring
    buzzer.o(.text) refers to pwm.o(i.PWMClockSet) for PWMClockSet
    buzzer.o(.text) refers to pwm.o(i.PWMOutputState) for PWMOutputState
    buzzer.o(.text) refers to pwm.o(i.PWMGenPeriodGet) for PWMGenPeriodGet
    buzzer.o(.text) refers to pwm.o(i.PWMPulseWidthSet) for PWMPulseWidthSet
    buzzer.o(.text) refers to pwm.o(i.PWMGenPeriodSet) for PWMGenPeriodSet
    buzzer.o(.text) refers to sysctl.o(i.SysCtlPeripheralEnable) for SysCtlPeripheralEnable
    buzzer.o(.text) refers to sysctl.o(i.SysCtlPeripheralReady) for SysCtlPeripheralReady
    buzzer.o(.text) refers to gpio.o(i.GPIOPinTypePWM) for GPIOPinTypePWM
    buzzer.o(.text) refers to gpio.o(i.GPIOPinConfigure) for GPIOPinConfigure
    buzzer.o(.text) refers to pwm.o(i.PWMGenConfigure) for PWMGenConfigure
    buzzer.o(.text) refers to pwm.o(i.PWMOutputInvert) for PWMOutputInvert
    buzzer.o(.text) refers to pwm.o(i.PWMGenEnable) for PWMGenEnable
    buzzer.o(.text) refers to buzzer.o(.data) for g_current_state
    accel.o(.text) refers to sysctl.o(i.SysCtlPeripheralEnable) for SysCtlPeripheralEnable
    accel.o(.text) refers to adc.o(i.ADCSequenceStepConfigure) for ADCSequenceStepConfigure
    accel.o(.text) refers to gpio.o(i.GPIOPinTypeADC) for GPIOPinTypeADC
    accel.o(.text) refers to adc.o(i.ADCSequenceConfigure) for ADCSequenceConfigure
    accel.o(.text) refers to adc.o(i.ADCSequenceEnable) for ADCSequenceEnable
    accel.o(.text) refers to adc.o(i.ADCIntClear) for ADCIntClear
    accel.o(.text) refers to adc.o(i.ADCProcessorTrigger) for ADCProcessorTrigger
    accel.o(.text) refers to adc.o(i.ADCIntStatus) for ADCIntStatus
    accel.o(.text) refers to adc.o(i.ADCSequenceDataGet) for ADCSequenceDataGet
    buttons.o(.text) refers to sysctl.o(i.SysCtlPeripheralEnable) for SysCtlPeripheralEnable
    buttons.o(.text) refers to sysctl.o(i.SysCtlPeripheralReady) for SysCtlPeripheralReady
    buttons.o(.text) refers to gpio.o(i.GPIOPinTypeGPIOInput) for GPIOPinTypeGPIOInput
    buttons.o(.text) refers to gpio.o(i.GPIOPinRead) for GPIOPinRead
    cfaf128x128x16.o(.text) refers to cfaf128x128x16.o(.data) for _orientation
    cfaf128x128x16.o(.text) refers to sysctl.o(i.SysCtlClockFreqSet) for SysCtlClockFreqSet
    cfaf128x128x16.o(.constdata) refers to cfaf128x128x16.o(.text) for cfaf128x128x16PixelDraw
    led.o(.text) refers to led.o(.constdata) for led_mask
    joy.o(.text) refers to sysctl.o(i.SysCtlPeripheralEnable) for SysCtlPeripheralEnable
    joy.o(.text) refers to sysctl.o(i.SysCtlPeripheralReady) for SysCtlPeripheralReady
    joy.o(.text) refers to gpio.o(i.GPIOPinTypeGPIOInput) for GPIOPinTypeGPIOInput
    joy.o(.text) refers to adc.o(i.ADCSequenceStepConfigure) for ADCSequenceStepConfigure
    joy.o(.text) refers to gpio.o(i.GPIOPinTypeADC) for GPIOPinTypeADC
    joy.o(.text) refers to adc.o(i.ADCSequenceConfigure) for ADCSequenceConfigure
    joy.o(.text) refers to adc.o(i.ADCSequenceEnable) for ADCSequenceEnable
    joy.o(.text) refers to adc.o(i.ADCIntClear) for ADCIntClear
    joy.o(.text) refers to adc.o(i.ADCProcessorTrigger) for ADCProcessorTrigger
    joy.o(.text) refers to adc.o(i.ADCIntStatus) for ADCIntStatus
    joy.o(.text) refers to adc.o(i.ADCSequenceDataGet) for ADCSequenceDataGet
    joy.o(.text) refers to gpio.o(i.GPIOPinRead) for GPIOPinRead
    mic.o(.text) refers to sysctl.o(i.SysCtlPeripheralEnable) for SysCtlPeripheralEnable
    mic.o(.text) refers to adc.o(i.ADCSequenceStepConfigure) for ADCSequenceStepConfigure
    mic.o(.text) refers to gpio.o(i.GPIOPinTypeADC) for GPIOPinTypeADC
    mic.o(.text) refers to adc.o(i.ADCSequenceConfigure) for ADCSequenceConfigure
    mic.o(.text) refers to adc.o(i.ADCSequenceEnable) for ADCSequenceEnable
    mic.o(.text) refers to adc.o(i.ADCIntClear) for ADCIntClear
    mic.o(.text) refers to adc.o(i.ADCProcessorTrigger) for ADCProcessorTrigger
    mic.o(.text) refers to adc.o(i.ADCIntStatus) for ADCIntStatus
    mic.o(.text) refers to adc.o(i.ADCSequenceDataGet) for ADCSequenceDataGet
    opt.o(.text) refers to i2c.o(i.I2CMasterSlaveAddrSet) for I2CMasterSlaveAddrSet
    opt.o(.text) refers to i2c.o(i.I2CMasterDataPut) for I2CMasterDataPut
    opt.o(.text) refers to i2c.o(i.I2CMasterBusBusy) for I2CMasterBusBusy
    opt.o(.text) refers to sysctl.o(.emb_text) for SysCtlDelay
    opt.o(.text) refers to i2c.o(i.I2CMasterControl) for I2CMasterControl
    opt.o(.text) refers to i2c.o(i.I2CMasterBusy) for I2CMasterBusy
    opt.o(.text) refers to i2c.o(i.I2CMasterErr) for I2CMasterErr
    opt.o(.text) refers to i2c.o(i.I2CMasterDataGet) for I2CMasterDataGet
    opt.o(.text) refers to i2c.o(i.I2CMasterBurstLengthSet) for I2CMasterBurstLengthSet
    opt.o(.text) refers to opt.o(.data) for g_sentFlag
    opt.o(.text) refers to i2c.o(i.I2CMasterIntClearEx) for I2CMasterIntClearEx
    opt.o(.text) refers to i2c.o(i.I2CMasterIntClear) for I2CMasterIntClear
    opt.o(.text) refers to sysctl.o(i.SysCtlClockFreqSet) for SysCtlClockFreqSet
    opt.o(.text) refers to sysctl.o(i.SysCtlPeripheralEnable) for SysCtlPeripheralEnable
    opt.o(.text) refers to sysctl.o(i.SysCtlPeripheralReset) for SysCtlPeripheralReset
    opt.o(.text) refers to sysctl.o(i.SysCtlPeripheralReady) for SysCtlPeripheralReady
    opt.o(.text) refers to gpio.o(i.GPIOPinTypeGPIOInput) for GPIOPinTypeGPIOInput
    opt.o(.text) refers to gpio.o(i.GPIOPinConfigure) for GPIOPinConfigure
    opt.o(.text) refers to gpio.o(i.GPIOPinTypeI2CSCL) for GPIOPinTypeI2CSCL
    opt.o(.text) refers to gpio.o(i.GPIOPinTypeI2C) for GPIOPinTypeI2C
    opt.o(.text) refers to i2c.o(i.I2CMasterTimeoutSet) for I2CMasterTimeoutSet
    opt.o(.text) refers to i2c.o(i.I2CMasterGlitchFilterConfigSet) for I2CMasterGlitchFilterConfigSet
    opt.o(.text) refers to i2c.o(i.I2CMasterInitExpClk) for I2CMasterInitExpClk
    opt.o(.text) refers to i2c.o(i.I2CMasterIntEnableEx) for I2CMasterIntEnableEx
    opt.o(.text) refers to i2c.o(i.I2CIntRegister) for I2CIntRegister
    opt.o(.text) refers to interrupt.o(i.IntEnable) for IntEnable
    opt.o(.text) refers to i2c.o(i.I2CMasterEnable) for I2CMasterEnable
    rgb.o(.text) refers to pwm.o(i.PWMOutputState) for PWMOutputState
    rgb.o(.text) refers to pwm.o(i.PWMGenPeriodGet) for PWMGenPeriodGet
    rgb.o(.text) refers to pwm.o(i.PWMPulseWidthSet) for PWMPulseWidthSet
    rgb.o(.text) refers to sysctl.o(i.SysCtlClockFreqSet) for SysCtlClockFreqSet
    rgb.o(.text) refers to sysctl.o(i.SysCtlPeripheralEnable) for SysCtlPeripheralEnable
    rgb.o(.text) refers to sysctl.o(i.SysCtlPeripheralReady) for SysCtlPeripheralReady
    rgb.o(.text) refers to pwm.o(i.PWMGenDisable) for PWMGenDisable
    rgb.o(.text) refers to gpio.o(i.GPIOPinTypePWM) for GPIOPinTypePWM
    rgb.o(.text) refers to pwm.o(i.PWMClockSet) for PWMClockSet
    rgb.o(.text) refers to gpio.o(i.GPIOPinConfigure) for GPIOPinConfigure
    rgb.o(.text) refers to pwm.o(i.PWMGenConfigure) for PWMGenConfigure
    rgb.o(.text) refers to pwm.o(i.PWMGenPeriodSet) for PWMGenPeriodSet
    rgb.o(.text) refers to pwm.o(i.PWMGenEnable) for PWMGenEnable
    rgb.o(.text) refers to rgb.o(.data) for enabled
    servo.o(.text) refers to timer.o(i.TimerMatchSet) for TimerMatchSet
    servo.o(.text) refers to sysctl.o(i.SysCtlClockFreqSet) for SysCtlClockFreqSet
    servo.o(.text) refers to sysctl.o(i.SysCtlPeripheralEnable) for SysCtlPeripheralEnable
    servo.o(.text) refers to sysctl.o(i.SysCtlPeripheralReady) for SysCtlPeripheralReady
    servo.o(.text) refers to gpio.o(i.GPIOPinConfigure) for GPIOPinConfigure
    servo.o(.text) refers to gpio.o(i.GPIOPinTypeTimer) for GPIOPinTypeTimer
    servo.o(.text) refers to timer.o(i.TimerClockSourceSet) for TimerClockSourceSet
    servo.o(.text) refers to timer.o(i.TimerConfigure) for TimerConfigure
    servo.o(.text) refers to timer.o(i.TimerControlLevel) for TimerControlLevel
    servo.o(.text) refers to timer.o(i.TimerUpdateMode) for TimerUpdateMode
    servo.o(.text) refers to timer.o(i.TimerPrescaleSet) for TimerPrescaleSet
    servo.o(.text) refers to timer.o(i.TimerLoadSet) for TimerLoadSet
    servo.o(.text) refers to timer.o(i.TimerEnable) for TimerEnable
    servo.o(.text) refers to servo.o(.data) for g_ui16perMin
    temp.o(.text) refers to i2c.o(i.I2CMasterSlaveAddrSet) for I2CMasterSlaveAddrSet
    temp.o(.text) refers to i2c.o(i.I2CMasterDataPut) for I2CMasterDataPut
    temp.o(.text) refers to i2c.o(i.I2CMasterBusBusy) for I2CMasterBusBusy
    temp.o(.text) refers to sysctl.o(.emb_text) for SysCtlDelay
    temp.o(.text) refers to i2c.o(i.I2CMasterControl) for I2CMasterControl
    temp.o(.text) refers to i2c.o(i.I2CMasterBusy) for I2CMasterBusy
    temp.o(.text) refers to i2c.o(i.I2CMasterErr) for I2CMasterErr
    temp.o(.text) refers to i2c.o(i.I2CMasterDataGet) for I2CMasterDataGet
    temp.o(.text) refers to i2c.o(i.I2CMasterBurstLengthSet) for I2CMasterBurstLengthSet
    temp.o(.text) refers to temp.o(.data) for g_sentFlag
    temp.o(.text) refers to i2c.o(i.I2CMasterIntClearEx) for I2CMasterIntClearEx
    temp.o(.text) refers to i2c.o(i.I2CMasterIntClear) for I2CMasterIntClear
    temp.o(.text) refers to sysctl.o(i.SysCtlClockFreqSet) for SysCtlClockFreqSet
    temp.o(.text) refers to sysctl.o(i.SysCtlPeripheralEnable) for SysCtlPeripheralEnable
    temp.o(.text) refers to sysctl.o(i.SysCtlPeripheralReset) for SysCtlPeripheralReset
    temp.o(.text) refers to sysctl.o(i.SysCtlPeripheralReady) for SysCtlPeripheralReady
    temp.o(.text) refers to gpio.o(i.GPIOPinTypeGPIOInput) for GPIOPinTypeGPIOInput
    temp.o(.text) refers to gpio.o(i.GPIOPinConfigure) for GPIOPinConfigure
    temp.o(.text) refers to gpio.o(i.GPIOPinTypeI2CSCL) for GPIOPinTypeI2CSCL
    temp.o(.text) refers to gpio.o(i.GPIOPinTypeI2C) for GPIOPinTypeI2C
    temp.o(.text) refers to i2c.o(i.I2CMasterTimeoutSet) for I2CMasterTimeoutSet
    temp.o(.text) refers to i2c.o(i.I2CMasterGlitchFilterConfigSet) for I2CMasterGlitchFilterConfigSet
    temp.o(.text) refers to i2c.o(i.I2CMasterInitExpClk) for I2CMasterInitExpClk
    temp.o(.text) refers to i2c.o(i.I2CMasterIntEnableEx) for I2CMasterIntEnableEx
    temp.o(.text) refers to i2c.o(i.I2CIntRegister) for I2CIntRegister
    temp.o(.text) refers to interrupt.o(i.IntEnable) for IntEnable
    temp.o(.text) refers to i2c.o(i.I2CMasterEnable) for I2CMasterEnable
    rtx_conf_cm.o(.emb_text) refers to rt_cmsis.o(i.osKernelInitialize) for osKernelInitialize
    rtx_conf_cm.o(.emb_text) refers to rt_cmsis.o(i.osThreadCreate) for osThreadCreate
    rtx_conf_cm.o(.emb_text) refers to rt_cmsis.o(i.osKernelStart) for osKernelStart
    rtx_conf_cm.o(.emb_text) refers to exit.o(.text) for exit
    rtx_conf_cm.o(.emb_text) refers to rtx_conf_cm.o(.constdata) for os_thread_def_main
    rtx_conf_cm.o(.text) refers to rt_task.o(i.rt_tsk_self) for rt_tsk_self
    rtx_conf_cm.o(.text) refers to rt_mutex.o(i.rt_mut_init) for rt_mut_init
    rtx_conf_cm.o(.text) refers to rt_cmsis.o(.data) for os_running
    rtx_conf_cm.o(.text) refers to rtx_conf_cm.o(.bss) for .bss
    rtx_conf_cm.o(.text) refers to libspace.o(.bss) for __libspace_start
    rtx_conf_cm.o(.text) refers to rtx_conf_cm.o(.data) for .data
    rtx_conf_cm.o(.text) refers to rt_mutex.o(i.rt_mut_wait) for rt_mut_wait
    rtx_conf_cm.o(.text) refers to rt_mutex.o(i.rt_mut_release) for rt_mut_release
    rtx_conf_cm.o(.constdata) refers to rt_cmsis.o(i.osTimerThread) for osTimerThread
    rtx_conf_cm.o(.constdata) refers to rtx_conf_cm.o(.bss) for os_messageQ_q_osTimerMessageQ
    rtx_conf_cm.o(.constdata) refers to blinky.o(.text) for main
    retarget_io.o(.text) refers to strcmpv7m.o(.text) for strcmp
    retarget_io.o(.text) refers to retarget_io.o(.data) for ITM_RxBuffer
    startup_tm4c129.o(STACK) refers (Special) to heapauxi.o(.text) for __use_two_region_memory
    startup_tm4c129.o(HEAP) refers (Special) to heapauxi.o(.text) for __use_two_region_memory
    startup_tm4c129.o(RESET) refers (Special) to heapauxi.o(.text) for __use_two_region_memory
    startup_tm4c129.o(RESET) refers to startup_tm4c129.o(STACK) for __initial_sp
    startup_tm4c129.o(RESET) refers to startup_tm4c129.o(.text) for Reset_Handler
    startup_tm4c129.o(RESET) refers to hal_cm4.o(.emb_text) for SVC_Handler
    startup_tm4c129.o(.text) refers (Special) to heapauxi.o(.text) for __use_two_region_memory
    startup_tm4c129.o(.text) refers to system_tm4c129.o(.text) for SystemInit
    startup_tm4c129.o(.text) refers to __main.o(!!!main) for __main
    startup_tm4c129.o(.text) refers to startup_tm4c129.o(HEAP) for Heap_Mem
    startup_tm4c129.o(.text) refers to startup_tm4c129.o(STACK) for Stack_Mem
    system_tm4c129.o(.text) refers to system_tm4c129.o(.data) for SystemCoreClock
    adc.o(i.ADCIntRegister) refers to interrupt.o(i.IntRegister) for IntRegister
    adc.o(i.ADCIntRegister) refers to interrupt.o(i.IntEnable) for IntEnable
    adc.o(i.ADCIntUnregister) refers to interrupt.o(i.IntDisable) for IntDisable
    adc.o(i.ADCIntUnregister) refers to interrupt.o(i.IntUnregister) for IntUnregister
    adc.o(i.ADCSoftwareOversampleConfigure) refers to adc.o(.data) for .data
    adc.o(i.ADCSoftwareOversampleDataGet) refers to adc.o(.data) for .data
    adc.o(i.ADCSoftwareOversampleStepConfigure) refers to adc.o(.data) for .data
    gpio.o(i.GPIOIntRegister) refers to gpio.o(i._GPIOIntNumberGet) for _GPIOIntNumberGet
    gpio.o(i.GPIOIntRegister) refers to interrupt.o(i.IntRegister) for IntRegister
    gpio.o(i.GPIOIntRegister) refers to interrupt.o(i.IntEnable) for IntEnable
    gpio.o(i.GPIOIntRegisterPin) refers to gpio.o(i._GPIOIntNumberGet) for _GPIOIntNumberGet
    gpio.o(i.GPIOIntRegisterPin) refers to interrupt.o(i.IntRegister) for IntRegister
    gpio.o(i.GPIOIntRegisterPin) refers to interrupt.o(i.IntEnable) for IntEnable
    gpio.o(i.GPIOIntUnregister) refers to gpio.o(i._GPIOIntNumberGet) for _GPIOIntNumberGet
    gpio.o(i.GPIOIntUnregister) refers to interrupt.o(i.IntDisable) for IntDisable
    gpio.o(i.GPIOIntUnregister) refers to interrupt.o(i.IntUnregister) for IntUnregister
    gpio.o(i.GPIOIntUnregisterPin) refers to gpio.o(i._GPIOIntNumberGet) for _GPIOIntNumberGet
    gpio.o(i.GPIOIntUnregisterPin) refers to interrupt.o(i.IntDisable) for IntDisable
    gpio.o(i.GPIOIntUnregisterPin) refers to interrupt.o(i.IntUnregister) for IntUnregister
    gpio.o(i.GPIOPinConfigure) refers to gpio.o(.constdata) for .constdata
    gpio.o(i.GPIOPinTypeADC) refers to gpio.o(i.GPIODirModeSet) for GPIODirModeSet
    gpio.o(i.GPIOPinTypeADC) refers to gpio.o(i.GPIOPadConfigSet) for GPIOPadConfigSet
    gpio.o(i.GPIOPinTypeCAN) refers to gpio.o(i.GPIODirModeSet) for GPIODirModeSet
    gpio.o(i.GPIOPinTypeCAN) refers to gpio.o(i.GPIOPadConfigSet) for GPIOPadConfigSet
    gpio.o(i.GPIOPinTypeComparator) refers to gpio.o(i.GPIODirModeSet) for GPIODirModeSet
    gpio.o(i.GPIOPinTypeComparator) refers to gpio.o(i.GPIOPadConfigSet) for GPIOPadConfigSet
    gpio.o(i.GPIOPinTypeComparatorOutput) refers to gpio.o(i.GPIODirModeSet) for GPIODirModeSet
    gpio.o(i.GPIOPinTypeComparatorOutput) refers to gpio.o(i.GPIOPadConfigSet) for GPIOPadConfigSet
    gpio.o(i.GPIOPinTypeDIVSCLK) refers to gpio.o(i.GPIODirModeSet) for GPIODirModeSet
    gpio.o(i.GPIOPinTypeDIVSCLK) refers to gpio.o(i.GPIOPadConfigSet) for GPIOPadConfigSet
    gpio.o(i.GPIOPinTypeEPI) refers to gpio.o(i.GPIODirModeSet) for GPIODirModeSet
    gpio.o(i.GPIOPinTypeEPI) refers to gpio.o(i.GPIOPadConfigSet) for GPIOPadConfigSet
    gpio.o(i.GPIOPinTypeEthernetLED) refers to gpio.o(i.GPIODirModeSet) for GPIODirModeSet
    gpio.o(i.GPIOPinTypeEthernetLED) refers to gpio.o(i.GPIOPadConfigSet) for GPIOPadConfigSet
    gpio.o(i.GPIOPinTypeEthernetMII) refers to gpio.o(i.GPIODirModeSet) for GPIODirModeSet
    gpio.o(i.GPIOPinTypeEthernetMII) refers to gpio.o(i.GPIOPadConfigSet) for GPIOPadConfigSet
    gpio.o(i.GPIOPinTypeGPIOInput) refers to gpio.o(i.GPIODirModeSet) for GPIODirModeSet
    gpio.o(i.GPIOPinTypeGPIOInput) refers to gpio.o(i.GPIOPadConfigSet) for GPIOPadConfigSet
    gpio.o(i.GPIOPinTypeGPIOOutput) refers to gpio.o(i.GPIOPadConfigSet) for GPIOPadConfigSet
    gpio.o(i.GPIOPinTypeGPIOOutput) refers to gpio.o(i.GPIODirModeSet) for GPIODirModeSet
    gpio.o(i.GPIOPinTypeGPIOOutputOD) refers to gpio.o(i.GPIOPadConfigSet) for GPIOPadConfigSet
    gpio.o(i.GPIOPinTypeGPIOOutputOD) refers to gpio.o(i.GPIODirModeSet) for GPIODirModeSet
    gpio.o(i.GPIOPinTypeHibernateRTCCLK) refers to gpio.o(i.GPIODirModeSet) for GPIODirModeSet
    gpio.o(i.GPIOPinTypeHibernateRTCCLK) refers to gpio.o(i.GPIOPadConfigSet) for GPIOPadConfigSet
    gpio.o(i.GPIOPinTypeI2C) refers to gpio.o(i.GPIODirModeSet) for GPIODirModeSet
    gpio.o(i.GPIOPinTypeI2C) refers to gpio.o(i.GPIOPadConfigSet) for GPIOPadConfigSet
    gpio.o(i.GPIOPinTypeI2CSCL) refers to gpio.o(i.GPIODirModeSet) for GPIODirModeSet
    gpio.o(i.GPIOPinTypeI2CSCL) refers to gpio.o(i.GPIOPadConfigSet) for GPIOPadConfigSet
    gpio.o(i.GPIOPinTypeLCD) refers to gpio.o(i.GPIODirModeSet) for GPIODirModeSet
    gpio.o(i.GPIOPinTypeLCD) refers to gpio.o(i.GPIOPadConfigSet) for GPIOPadConfigSet
    gpio.o(i.GPIOPinTypeOneWire) refers to gpio.o(i.GPIODirModeSet) for GPIODirModeSet
    gpio.o(i.GPIOPinTypeOneWire) refers to gpio.o(i.GPIOPadConfigSet) for GPIOPadConfigSet
    gpio.o(i.GPIOPinTypePWM) refers to gpio.o(i.GPIODirModeSet) for GPIODirModeSet
    gpio.o(i.GPIOPinTypePWM) refers to gpio.o(i.GPIOPadConfigSet) for GPIOPadConfigSet
    gpio.o(i.GPIOPinTypeQEI) refers to gpio.o(i.GPIODirModeSet) for GPIODirModeSet
    gpio.o(i.GPIOPinTypeQEI) refers to gpio.o(i.GPIOPadConfigSet) for GPIOPadConfigSet
    gpio.o(i.GPIOPinTypeSSI) refers to gpio.o(i.GPIODirModeSet) for GPIODirModeSet
    gpio.o(i.GPIOPinTypeSSI) refers to gpio.o(i.GPIOPadConfigSet) for GPIOPadConfigSet
    gpio.o(i.GPIOPinTypeTimer) refers to gpio.o(i.GPIODirModeSet) for GPIODirModeSet
    gpio.o(i.GPIOPinTypeTimer) refers to gpio.o(i.GPIOPadConfigSet) for GPIOPadConfigSet
    gpio.o(i.GPIOPinTypeTrace) refers to gpio.o(i.GPIODirModeSet) for GPIODirModeSet
    gpio.o(i.GPIOPinTypeTrace) refers to gpio.o(i.GPIOPadConfigSet) for GPIOPadConfigSet
    gpio.o(i.GPIOPinTypeUART) refers to gpio.o(i.GPIODirModeSet) for GPIODirModeSet
    gpio.o(i.GPIOPinTypeUART) refers to gpio.o(i.GPIOPadConfigSet) for GPIOPadConfigSet
    gpio.o(i.GPIOPinTypeUSBAnalog) refers to gpio.o(i.GPIODirModeSet) for GPIODirModeSet
    gpio.o(i.GPIOPinTypeUSBAnalog) refers to gpio.o(i.GPIOPadConfigSet) for GPIOPadConfigSet
    gpio.o(i.GPIOPinTypeUSBDigital) refers to gpio.o(i.GPIODirModeSet) for GPIODirModeSet
    gpio.o(i.GPIOPinTypeUSBDigital) refers to gpio.o(i.GPIOPadConfigSet) for GPIOPadConfigSet
    gpio.o(i.GPIOPinTypeWakeHigh) refers to gpio.o(i.GPIODirModeSet) for GPIODirModeSet
    gpio.o(i.GPIOPinTypeWakeHigh) refers to gpio.o(i.GPIOPadConfigSet) for GPIOPadConfigSet
    gpio.o(i.GPIOPinTypeWakeLow) refers to gpio.o(i.GPIODirModeSet) for GPIODirModeSet
    gpio.o(i.GPIOPinTypeWakeLow) refers to gpio.o(i.GPIOPadConfigSet) for GPIOPadConfigSet
    gpio.o(i._GPIOIntNumberGet) refers to gpio.o(.constdata) for .constdata
    i2c.o(i.I2CIntRegister) refers to interrupt.o(i.IntRegister) for IntRegister
    i2c.o(i.I2CIntRegister) refers to interrupt.o(i.IntEnable) for IntEnable
    i2c.o(i.I2CIntRegister) refers to i2c.o(.constdata) for .constdata
    i2c.o(i.I2CIntUnregister) refers to interrupt.o(i.IntDisable) for IntDisable
    i2c.o(i.I2CIntUnregister) refers to interrupt.o(i.IntUnregister) for IntUnregister
    i2c.o(i.I2CIntUnregister) refers to i2c.o(.constdata) for .constdata
    interrupt.o(i.IntDisable) refers to interrupt.o(.constdata) for .constdata
    interrupt.o(i.IntEnable) refers to interrupt.o(.constdata) for .constdata
    interrupt.o(i.IntIsEnabled) refers to interrupt.o(.constdata) for .constdata
    interrupt.o(i.IntMasterDisable) refers to cpu.o(.emb_text) for CPUcpsid
    interrupt.o(i.IntMasterEnable) refers to cpu.o(.emb_text) for CPUcpsie
    interrupt.o(i.IntPendClear) refers to interrupt.o(.constdata) for .constdata
    interrupt.o(i.IntPendSet) refers to interrupt.o(.constdata) for .constdata
    interrupt.o(i.IntPriorityGet) refers to interrupt.o(.constdata) for .constdata
    interrupt.o(i.IntPriorityGroupingGet) refers to interrupt.o(.constdata) for .constdata
    interrupt.o(i.IntPriorityGroupingSet) refers to interrupt.o(.constdata) for .constdata
    interrupt.o(i.IntPriorityMaskGet) refers to cpu.o(.emb_text) for CPUbasepriGet
    interrupt.o(i.IntPriorityMaskSet) refers to cpu.o(.emb_text) for CPUbasepriSet
    interrupt.o(i.IntPrioritySet) refers to interrupt.o(.constdata) for .constdata
    interrupt.o(i.IntRegister) refers to interrupt.o(vtable) for vtable
    interrupt.o(i.IntUnregister) refers to interrupt.o(i._IntDefaultHandler) for _IntDefaultHandler
    interrupt.o(i.IntUnregister) refers to interrupt.o(vtable) for vtable
    pwm.o(i.PWMFaultIntRegister) refers to interrupt.o(i.IntRegister) for IntRegister
    pwm.o(i.PWMFaultIntRegister) refers to interrupt.o(i.IntEnable) for IntEnable
    pwm.o(i.PWMFaultIntUnregister) refers to interrupt.o(i.IntDisable) for IntDisable
    pwm.o(i.PWMFaultIntUnregister) refers to interrupt.o(i.IntUnregister) for IntUnregister
    pwm.o(i.PWMGenIntRegister) refers to pwm.o(i._PWMGenIntNumberGet) for _PWMGenIntNumberGet
    pwm.o(i.PWMGenIntRegister) refers to interrupt.o(i.IntRegister) for IntRegister
    pwm.o(i.PWMGenIntRegister) refers to interrupt.o(i.IntEnable) for IntEnable
    pwm.o(i.PWMGenIntUnregister) refers to pwm.o(i._PWMGenIntNumberGet) for _PWMGenIntNumberGet
    pwm.o(i.PWMGenIntUnregister) refers to interrupt.o(i.IntDisable) for IntDisable
    pwm.o(i.PWMGenIntUnregister) refers to interrupt.o(i.IntUnregister) for IntUnregister
    sysctl.o(i.SysCtlClockFreqSet) refers to sysctl.o(.constdata) for .constdata
    sysctl.o(i.SysCtlClockGet) refers to sysctl.o(.constdata) for .constdata
    sysctl.o(i.SysCtlClockSet) refers to sysctl.o(.emb_text) for SysCtlDelay
    sysctl.o(i.SysCtlDeepSleep) refers to cpu.o(.emb_text) for CPUwfi
    sysctl.o(i.SysCtlIntRegister) refers to interrupt.o(i.IntRegister) for IntRegister
    sysctl.o(i.SysCtlIntRegister) refers to interrupt.o(i.IntEnable) for IntEnable
    sysctl.o(i.SysCtlIntUnregister) refers to interrupt.o(i.IntDisable) for IntDisable
    sysctl.o(i.SysCtlIntUnregister) refers to interrupt.o(i.IntUnregister) for IntUnregister
    sysctl.o(i.SysCtlSleep) refers to cpu.o(.emb_text) for CPUwfi
    sysctl.o(i.SysCtlVCOGet) refers to sysctl.o(.constdata) for .constdata
    timer.o(i.TimerIntRegister) refers to interrupt.o(i.IntRegister) for IntRegister
    timer.o(i.TimerIntRegister) refers to interrupt.o(i.IntEnable) for IntEnable
    timer.o(i.TimerIntRegister) refers to timer.o(.constdata) for .constdata
    timer.o(i.TimerIntUnregister) refers to interrupt.o(i.IntDisable) for IntDisable
    timer.o(i.TimerIntUnregister) refers to interrupt.o(i.IntUnregister) for IntUnregister
    timer.o(i.TimerIntUnregister) refers to timer.o(.constdata) for .constdata
    context.o(i.GrContextInit) refers to context.o(.data) for .data
    context.o(i.GrContextInit) refers to string.o(i.GrDefaultStringRenderer) for GrDefaultStringRenderer
    context.o(i.GrContextInit) refers to context.o(.constdata) for .constdata
    context.o(i.GrLibInit) refers to context.o(.data) for .data
    context.o(.constdata) refers to charmap.o(i.GrMapISO8859_1_Unicode) for GrMapISO8859_1_Unicode
    fontfixed6x8.o(.constdata) refers to fontfixed6x8.o(.constdata) for g_pui8FontFixed6x8Data
    rectangle.o(i.GrRectDraw) refers to line.o(i.GrLineDrawH) for GrLineDrawH
    rectangle.o(i.GrRectDraw) refers to line.o(i.GrLineDrawV) for GrLineDrawV
    string.o(i.GrCodepageMapTableSet) refers to string.o(i.UpdateContextCharMapping) for UpdateContextCharMapping
    string.o(i.GrContextFontSet) refers to string.o(i.UpdateContextCharMapping) for UpdateContextCharMapping
    string.o(i.GrDefaultStringRenderer) refers to string.o(i.GrFontGlyphDataGet) for GrFontGlyphDataGet
    string.o(i.GrDefaultStringRenderer) refers to string.o(i.GrFontGlyphRender) for GrFontGlyphRender
    string.o(i.GrStringCodepageSet) refers to string.o(i.UpdateContextCharMapping) for UpdateContextCharMapping
    string.o(i.GrStringGet) refers to string.o(.data) for .data
    string.o(i.GrStringLanguageSet) refers to string.o(.data) for .data
    string.o(i.GrStringTableSet) refers to string.o(.data) for .data
    string.o(i.GrStringWidthGet) refers to string.o(i.GrFontGlyphDataGet) for GrFontGlyphDataGet
    rt_cmsis.o(i.isrMessageGet) refers to rt_mailbox.o(i.isr_mbx_receive) for isr_mbx_receive
    rt_cmsis.o(i.isrMessagePut) refers to rt_mailbox.o(i.rt_mbx_check) for rt_mbx_check
    rt_cmsis.o(i.isrMessagePut) refers to rt_mailbox.o(i.isr_mbx_send) for isr_mbx_send
    rt_cmsis.o(i.isrSemaphoreRelease) refers to rt_cmsis.o(i.rt_id2obj) for rt_id2obj
    rt_cmsis.o(i.isrSemaphoreRelease) refers to rt_semaphore.o(i.isr_sem_send) for isr_sem_send
    rt_cmsis.o(i.isrSignalSet) refers to rt_cmsis.o(i.rt_tid2ptcb) for rt_tid2ptcb
    rt_cmsis.o(i.isrSignalSet) refers to rt_event.o(i.isr_evt_set) for isr_evt_set
    rt_cmsis.o(i.osDelay) refers to rt_cmsis.o(i.svcDelay) for svcDelay
    rt_cmsis.o(i.osKernelInitialize) refers to rt_cmsis.o(i.svcKernelInitialize) for svcKernelInitialize
    rt_cmsis.o(i.osKernelRunning) refers to rt_cmsis.o(i.svcKernelRunning) for svcKernelRunning
    rt_cmsis.o(i.osKernelRunning) refers to rt_cmsis.o(.data) for .data
    rt_cmsis.o(i.osKernelStart) refers to rtx_conf_cm.o(.constdata) for os_flags
    rt_cmsis.o(i.osKernelStart) refers to rt_cmsis.o(i.svcKernelStart) for svcKernelStart
    rt_cmsis.o(i.osKernelSysTick) refers to rt_cmsis.o(i.svcKernelSysTick) for svcKernelSysTick
    rt_cmsis.o(i.osMailAlloc) refers to rt_cmsis.o(i.sysMailAlloc) for sysMailAlloc
    rt_cmsis.o(i.osMailCAlloc) refers to rt_cmsis.o(i.sysMailAlloc) for sysMailAlloc
    rt_cmsis.o(i.osMailCAlloc) refers to rt_cmsis.o(i.rt_clr_box) for rt_clr_box
    rt_cmsis.o(i.osMailCreate) refers to rt_cmsis.o(i.svcMailCreate) for svcMailCreate
    rt_cmsis.o(i.osMailCreate) refers to rt_cmsis.o(.data) for .data
    rt_cmsis.o(i.osMailFree) refers to rt_cmsis.o(i.sysMailFree) for sysMailFree
    rt_cmsis.o(i.osMailGet) refers to rt_cmsis.o(i.osMessageGet) for osMessageGet
    rt_cmsis.o(i.osMailPut) refers to rt_cmsis.o(i.osMessagePut) for osMessagePut
    rt_cmsis.o(i.osMessageCreate) refers to rt_cmsis.o(i.svcMessageCreate) for svcMessageCreate
    rt_cmsis.o(i.osMessageCreate) refers to rt_cmsis.o(.data) for .data
    rt_cmsis.o(i.osMessageGet) refers to rt_cmsis.o(i.isrMessageGet) for isrMessageGet
    rt_cmsis.o(i.osMessageGet) refers to rt_cmsis.o(i.svcMessageGet) for svcMessageGet
    rt_cmsis.o(i.osMessagePut) refers to rt_cmsis.o(i.isrMessagePut) for isrMessagePut
    rt_cmsis.o(i.osMessagePut) refers to rt_cmsis.o(i.svcMessagePut) for svcMessagePut
    rt_cmsis.o(i.osMutexCreate) refers to rt_cmsis.o(i.svcMutexCreate) for svcMutexCreate
    rt_cmsis.o(i.osMutexCreate) refers to rt_cmsis.o(.data) for .data
    rt_cmsis.o(i.osMutexDelete) refers to rt_cmsis.o(i.svcMutexDelete) for svcMutexDelete
    rt_cmsis.o(i.osMutexRelease) refers to rt_cmsis.o(i.svcMutexRelease) for svcMutexRelease
    rt_cmsis.o(i.osMutexWait) refers to rt_cmsis.o(i.svcMutexWait) for svcMutexWait
    rt_cmsis.o(i.osPoolAlloc) refers to rt_cmsis.o(i.sysPoolAlloc) for sysPoolAlloc
    rt_cmsis.o(i.osPoolCAlloc) refers to rt_cmsis.o(i.rt_clr_box) for rt_clr_box
    rt_cmsis.o(i.osPoolCAlloc) refers to rt_cmsis.o(i.sysPoolAlloc) for sysPoolAlloc
    rt_cmsis.o(i.osPoolCreate) refers to rt_cmsis.o(i.svcPoolCreate) for svcPoolCreate
    rt_cmsis.o(i.osPoolCreate) refers to rt_cmsis.o(.data) for .data
    rt_cmsis.o(i.osPoolFree) refers to rt_cmsis.o(i.sysPoolFree) for sysPoolFree
    rt_cmsis.o(i.osSemaphoreCreate) refers to rt_cmsis.o(i.svcSemaphoreCreate) for svcSemaphoreCreate
    rt_cmsis.o(i.osSemaphoreCreate) refers to rt_cmsis.o(.data) for .data
    rt_cmsis.o(i.osSemaphoreDelete) refers to rt_cmsis.o(i.svcSemaphoreDelete) for svcSemaphoreDelete
    rt_cmsis.o(i.osSemaphoreRelease) refers to rt_cmsis.o(i.isrSemaphoreRelease) for isrSemaphoreRelease
    rt_cmsis.o(i.osSemaphoreRelease) refers to rt_cmsis.o(i.svcSemaphoreRelease) for svcSemaphoreRelease
    rt_cmsis.o(i.osSemaphoreWait) refers to rt_cmsis.o(i.svcSemaphoreWait) for svcSemaphoreWait
    rt_cmsis.o(i.osSignalClear) refers to rt_cmsis.o(i.svcSignalClear) for svcSignalClear
    rt_cmsis.o(i.osSignalSet) refers to rt_cmsis.o(i.isrSignalSet) for isrSignalSet
    rt_cmsis.o(i.osSignalSet) refers to rt_cmsis.o(i.svcSignalSet) for svcSignalSet
    rt_cmsis.o(i.osSignalWait) refers to rt_cmsis.o(i.svcSignalWait) for svcSignalWait
    rt_cmsis.o(i.osThreadCreate) refers to rt_cmsis.o(i.svcThreadCreate) for svcThreadCreate
    rt_cmsis.o(i.osThreadCreate) refers to rt_cmsis.o(.data) for .data
    rt_cmsis.o(i.osThreadExit) refers to rt_cmsis.o(i.svcThreadGetId) for svcThreadGetId
    rt_cmsis.o(i.osThreadExit) refers to rt_cmsis.o(i.svcThreadTerminate) for svcThreadTerminate
    rt_cmsis.o(i.osThreadGetId) refers to rt_cmsis.o(i.svcThreadGetId) for svcThreadGetId
    rt_cmsis.o(i.osThreadGetPriority) refers to rt_cmsis.o(i.svcThreadGetPriority) for svcThreadGetPriority
    rt_cmsis.o(i.osThreadSetPriority) refers to rt_cmsis.o(i.svcThreadSetPriority) for svcThreadSetPriority
    rt_cmsis.o(i.osThreadTerminate) refers to rt_cmsis.o(i.svcThreadTerminate) for svcThreadTerminate
    rt_cmsis.o(i.osThreadYield) refers to rt_cmsis.o(i.svcThreadYield) for svcThreadYield
    rt_cmsis.o(i.osTimerCall) refers to rt_cmsis.o(i.svcTimerCall) for svcTimerCall
    rt_cmsis.o(i.osTimerCreate) refers to rt_cmsis.o(i.svcTimerCreate) for svcTimerCreate
    rt_cmsis.o(i.osTimerCreate) refers to rt_cmsis.o(.data) for .data
    rt_cmsis.o(i.osTimerDelete) refers to rt_cmsis.o(i.svcTimerDelete) for svcTimerDelete
    rt_cmsis.o(i.osTimerStart) refers to rt_cmsis.o(i.svcTimerStart) for svcTimerStart
    rt_cmsis.o(i.osTimerStop) refers to rt_cmsis.o(i.svcTimerStop) for svcTimerStop
    rt_cmsis.o(i.osTimerThread) refers to rt_cmsis.o(i.osMessageGet) for osMessageGet
    rt_cmsis.o(i.osTimerThread) refers to rt_cmsis.o(i.osTimerCall) for osTimerCall
    rt_cmsis.o(i.osTimerThread) refers to rtx_conf_cm.o(.data) for osMessageQId_osTimerMessageQ
    rt_cmsis.o(i.os_resume) refers to rt_system.o(i.rt_resume) for rt_resume
    rt_cmsis.o(i.os_suspend) refers to rt_system.o(i.rt_suspend) for rt_suspend
    rt_cmsis.o(i.rt_ms2tick) refers to rtx_conf_cm.o(.constdata) for os_clockrate
    rt_cmsis.o(i.rt_timer_insert) refers to rt_cmsis.o(.data) for .data
    rt_cmsis.o(i.rt_timer_remove) refers to rt_cmsis.o(.data) for .data
    rt_cmsis.o(i.svcDelay) refers to rt_cmsis.o(i.rt_ms2tick) for rt_ms2tick
    rt_cmsis.o(i.svcDelay) refers to rt_time.o(i.rt_dly_wait) for rt_dly_wait
    rt_cmsis.o(i.svcKernelInitialize) refers to rt_memory.o(i.rt_init_mem) for rt_init_mem
    rt_cmsis.o(i.svcKernelInitialize) refers to rt_task.o(i.rt_sys_init) for rt_sys_init
    rt_cmsis.o(i.svcKernelInitialize) refers to rt_cmsis.o(i.svcMessageCreate) for svcMessageCreate
    rt_cmsis.o(i.svcKernelInitialize) refers to rt_cmsis.o(i.svcThreadCreate) for svcThreadCreate
    rt_cmsis.o(i.svcKernelInitialize) refers to rt_cmsis.o(.data) for .data
    rt_cmsis.o(i.svcKernelInitialize) refers to rtx_conf_cm.o(.bss) for os_stack_mem
    rt_cmsis.o(i.svcKernelInitialize) refers to rtx_conf_cm.o(.constdata) for os_stack_sz
    rt_cmsis.o(i.svcKernelInitialize) refers to rt_task.o(.data) for os_tsk
    rt_cmsis.o(i.svcKernelInitialize) refers to rtx_conf_cm.o(.data) for osMessageQId_osTimerMessageQ
    rt_cmsis.o(i.svcKernelRunning) refers to rt_cmsis.o(.data) for .data
    rt_cmsis.o(i.svcKernelStart) refers to rt_task.o(i.rt_tsk_prio) for rt_tsk_prio
    rt_cmsis.o(i.svcKernelStart) refers to rt_task.o(i.rt_sys_start) for rt_sys_start
    rt_cmsis.o(i.svcKernelStart) refers to rt_cmsis.o(.data) for .data
    rt_cmsis.o(i.svcKernelStart) refers to rt_task.o(.data) for os_tsk
    rt_cmsis.o(i.svcKernelSysTick) refers to rt_system.o(i.os_tick_val) for os_tick_val
    rt_cmsis.o(i.svcKernelSysTick) refers to rt_system.o(i.os_tick_ovf) for os_tick_ovf
    rt_cmsis.o(i.svcKernelSysTick) refers to rtx_conf_cm.o(.constdata) for os_trv
    rt_cmsis.o(i.svcKernelSysTick) refers to rt_time.o(.data) for os_time
    rt_cmsis.o(i.svcMailCreate) refers to rt_membox.o(i._init_box) for _init_box
    rt_cmsis.o(i.svcMailCreate) refers to rt_mailbox.o(i.rt_mbx_init) for rt_mbx_init
    rt_cmsis.o(i.svcMessageCreate) refers to rt_mailbox.o(i.rt_mbx_init) for rt_mbx_init
    rt_cmsis.o(i.svcMessageGet) refers to rt_cmsis.o(i.rt_ms2tick) for rt_ms2tick
    rt_cmsis.o(i.svcMessageGet) refers to rt_mailbox.o(i.rt_mbx_wait) for rt_mbx_wait
    rt_cmsis.o(i.svcMessagePut) refers to rt_cmsis.o(i.rt_ms2tick) for rt_ms2tick
    rt_cmsis.o(i.svcMessagePut) refers to rt_mailbox.o(i.rt_mbx_send) for rt_mbx_send
    rt_cmsis.o(i.svcMutexCreate) refers to rt_mutex.o(i.rt_mut_init) for rt_mut_init
    rt_cmsis.o(i.svcMutexDelete) refers to rt_cmsis.o(i.rt_id2obj) for rt_id2obj
    rt_cmsis.o(i.svcMutexDelete) refers to rt_mutex.o(i.rt_mut_delete) for rt_mut_delete
    rt_cmsis.o(i.svcMutexRelease) refers to rt_cmsis.o(i.rt_id2obj) for rt_id2obj
    rt_cmsis.o(i.svcMutexRelease) refers to rt_mutex.o(i.rt_mut_release) for rt_mut_release
    rt_cmsis.o(i.svcMutexWait) refers to rt_cmsis.o(i.rt_id2obj) for rt_id2obj
    rt_cmsis.o(i.svcMutexWait) refers to rt_cmsis.o(i.rt_ms2tick) for rt_ms2tick
    rt_cmsis.o(i.svcMutexWait) refers to rt_mutex.o(i.rt_mut_wait) for rt_mut_wait
    rt_cmsis.o(i.svcPoolCreate) refers to rt_membox.o(i._init_box) for _init_box
    rt_cmsis.o(i.svcSemaphoreCreate) refers to rt_semaphore.o(i.rt_sem_init) for rt_sem_init
    rt_cmsis.o(i.svcSemaphoreDelete) refers to rt_cmsis.o(i.rt_id2obj) for rt_id2obj
    rt_cmsis.o(i.svcSemaphoreDelete) refers to rt_semaphore.o(i.rt_sem_delete) for rt_sem_delete
    rt_cmsis.o(i.svcSemaphoreRelease) refers to rt_cmsis.o(i.rt_id2obj) for rt_id2obj
    rt_cmsis.o(i.svcSemaphoreRelease) refers to rt_semaphore.o(i.rt_sem_send) for rt_sem_send
    rt_cmsis.o(i.svcSemaphoreWait) refers to rt_cmsis.o(i.rt_id2obj) for rt_id2obj
    rt_cmsis.o(i.svcSemaphoreWait) refers to rt_cmsis.o(i.rt_ms2tick) for rt_ms2tick
    rt_cmsis.o(i.svcSemaphoreWait) refers to rt_semaphore.o(i.rt_sem_wait) for rt_sem_wait
    rt_cmsis.o(i.svcSignalClear) refers to rt_cmsis.o(i.rt_tid2ptcb) for rt_tid2ptcb
    rt_cmsis.o(i.svcSignalClear) refers to rt_event.o(i.rt_evt_clr) for rt_evt_clr
    rt_cmsis.o(i.svcSignalSet) refers to rt_cmsis.o(i.rt_tid2ptcb) for rt_tid2ptcb
    rt_cmsis.o(i.svcSignalSet) refers to rt_event.o(i.rt_evt_set) for rt_evt_set
    rt_cmsis.o(i.svcSignalWait) refers to rt_cmsis.o(i.rt_ms2tick) for rt_ms2tick
    rt_cmsis.o(i.svcSignalWait) refers to rt_event.o(i.rt_evt_wait) for rt_evt_wait
    rt_cmsis.o(i.svcSignalWait) refers to rt_task.o(.data) for os_tsk
    rt_cmsis.o(i.svcThreadCreate) refers to rt_memory.o(i.rt_alloc_mem) for rt_alloc_mem
    rt_cmsis.o(i.svcThreadCreate) refers to rt_task.o(i.rt_tsk_create) for rt_tsk_create
    rt_cmsis.o(i.svcThreadCreate) refers to rt_memory.o(i.rt_free_mem) for rt_free_mem
    rt_cmsis.o(i.svcThreadCreate) refers to rtx_conf_cm.o(.bss) for os_stack_mem
    rt_cmsis.o(i.svcThreadCreate) refers to rt_cmsis.o(i.osThreadExit) for osThreadExit
    rt_cmsis.o(i.svcThreadGetId) refers to rt_task.o(i.rt_tsk_self) for rt_tsk_self
    rt_cmsis.o(i.svcThreadGetId) refers to rtx_conf_cm.o(.bss) for os_active_TCB
    rt_cmsis.o(i.svcThreadGetPriority) refers to rt_cmsis.o(i.rt_tid2ptcb) for rt_tid2ptcb
    rt_cmsis.o(i.svcThreadSetPriority) refers to rt_cmsis.o(i.rt_tid2ptcb) for rt_tid2ptcb
    rt_cmsis.o(i.svcThreadSetPriority) refers to rt_task.o(i.rt_tsk_prio) for rt_tsk_prio
    rt_cmsis.o(i.svcThreadTerminate) refers to rt_cmsis.o(i.rt_tid2ptcb) for rt_tid2ptcb
    rt_cmsis.o(i.svcThreadTerminate) refers to rt_task.o(i.rt_tsk_delete) for rt_tsk_delete
    rt_cmsis.o(i.svcThreadTerminate) refers to rt_memory.o(i.rt_free_mem) for rt_free_mem
    rt_cmsis.o(i.svcThreadTerminate) refers to rtx_conf_cm.o(.bss) for os_stack_mem
    rt_cmsis.o(i.svcThreadYield) refers to rt_task.o(i.rt_tsk_pass) for rt_tsk_pass
    rt_cmsis.o(i.svcTimerCall) refers to rt_cmsis.o(i.rt_id2obj) for rt_id2obj
    rt_cmsis.o(i.svcTimerCreate) refers to rtx_conf_cm.o(.data) for osThreadId_osTimerThread
    rt_cmsis.o(i.svcTimerDelete) refers to rt_cmsis.o(i.rt_id2obj) for rt_id2obj
    rt_cmsis.o(i.svcTimerDelete) refers to rt_cmsis.o(i.rt_timer_remove) for rt_timer_remove
    rt_cmsis.o(i.svcTimerStart) refers to rt_cmsis.o(i.rt_id2obj) for rt_id2obj
    rt_cmsis.o(i.svcTimerStart) refers to lludivv7m.o(.text) for __aeabi_uldivmod
    rt_cmsis.o(i.svcTimerStart) refers to rt_cmsis.o(i.rt_timer_remove) for rt_timer_remove
    rt_cmsis.o(i.svcTimerStart) refers to rt_cmsis.o(i.rt_timer_insert) for rt_timer_insert
    rt_cmsis.o(i.svcTimerStart) refers to rtx_conf_cm.o(.constdata) for os_clockrate
    rt_cmsis.o(i.svcTimerStop) refers to rt_cmsis.o(i.rt_id2obj) for rt_id2obj
    rt_cmsis.o(i.svcTimerStop) refers to rt_cmsis.o(i.rt_timer_remove) for rt_timer_remove
    rt_cmsis.o(i.sysMailAlloc) refers to rt_membox.o(i.rt_alloc_box) for rt_alloc_box
    rt_cmsis.o(i.sysMailAlloc) refers to rt_list.o(i.rt_put_prio) for rt_put_prio
    rt_cmsis.o(i.sysMailAlloc) refers to rt_cmsis.o(i.rt_ms2tick) for rt_ms2tick
    rt_cmsis.o(i.sysMailAlloc) refers to rt_task.o(i.rt_block) for rt_block
    rt_cmsis.o(i.sysMailAlloc) refers to rt_task.o(.data) for os_tsk
    rt_cmsis.o(i.sysMailFree) refers to rt_membox.o(i.rt_free_box) for rt_free_box
    rt_cmsis.o(i.sysMailFree) refers to rt_list.o(i.rt_psq_enq) for rt_psq_enq
    rt_cmsis.o(i.sysMailFree) refers to rt_system.o(i.rt_psh_req) for rt_psh_req
    rt_cmsis.o(i.sysMailFree) refers to rt_membox.o(i.rt_alloc_box) for rt_alloc_box
    rt_cmsis.o(i.sysMailFree) refers to rt_list.o(i.rt_get_first) for rt_get_first
    rt_cmsis.o(i.sysMailFree) refers to hal_cm.o(i.rt_ret_val) for rt_ret_val
    rt_cmsis.o(i.sysMailFree) refers to rt_list.o(i.rt_rmv_dly) for rt_rmv_dly
    rt_cmsis.o(i.sysMailFree) refers to rt_task.o(i.rt_dispatch) for rt_dispatch
    rt_cmsis.o(i.sysPoolAlloc) refers to rt_membox.o(i.rt_alloc_box) for rt_alloc_box
    rt_cmsis.o(i.sysPoolFree) refers to rt_membox.o(i.rt_free_box) for rt_free_box
    rt_cmsis.o(i.sysTimerTick) refers to rt_cmsis.o(i.isrMessagePut) for isrMessagePut
    rt_cmsis.o(i.sysTimerTick) refers to rtx_conf_cm.o(.text) for os_error
    rt_cmsis.o(i.sysTimerTick) refers to rt_cmsis.o(i.rt_timer_insert) for rt_timer_insert
    rt_cmsis.o(i.sysTimerTick) refers to rt_cmsis.o(.data) for .data
    rt_cmsis.o(i.sysTimerTick) refers to rtx_conf_cm.o(.data) for osMessageQId_osTimerMessageQ
    rt_cmsis.o(i.sysUserTimerUpdate) refers to rt_cmsis.o(i.sysTimerTick) for sysTimerTick
    rt_cmsis.o(i.sysUserTimerUpdate) refers to rt_cmsis.o(.data) for .data
    rt_cmsis.o(i.sysUserTimerWakeupTime) refers to rt_cmsis.o(.data) for .data
    rt_task.o(i.rt_block) refers to rt_list.o(i.rt_put_dly) for rt_put_dly
    rt_task.o(i.rt_block) refers to rt_list.o(i.rt_get_first) for rt_get_first
    rt_task.o(i.rt_block) refers to rt_task.o(i.rt_switch_req) for rt_switch_req
    rt_task.o(i.rt_block) refers to rt_task.o(.data) for .data
    rt_task.o(i.rt_block) refers to rt_list.o(.bss) for os_rdy
    rt_task.o(i.rt_dispatch) refers to rt_list.o(i.rt_put_rdy_first) for rt_put_rdy_first
    rt_task.o(i.rt_dispatch) refers to rt_task.o(i.rt_switch_req) for rt_switch_req
    rt_task.o(i.rt_dispatch) refers to rt_list.o(i.rt_get_first) for rt_get_first
    rt_task.o(i.rt_dispatch) refers to rt_list.o(i.rt_put_prio) for rt_put_prio
    rt_task.o(i.rt_dispatch) refers to rt_task.o(.data) for .data
    rt_task.o(i.rt_dispatch) refers to rt_list.o(.bss) for os_rdy
    rt_task.o(i.rt_init_context) refers to rt_membox.o(i.rt_alloc_box) for rt_alloc_box
    rt_task.o(i.rt_init_context) refers to hal_cm.o(i.rt_init_stack) for rt_init_stack
    rt_task.o(i.rt_init_context) refers to rtx_conf_cm.o(.bss) for mp_stk
    rt_task.o(i.rt_switch_req) refers to hal_cm.o(i.dbg_task_switch) for dbg_task_switch
    rt_task.o(i.rt_switch_req) refers to rt_task.o(.data) for .data
    rt_task.o(i.rt_switch_req) refers to hal_cm.o(.data) for dbg_msg
    rt_task.o(i.rt_sys_init) refers to hal_cm.o(i.dbg_init) for dbg_init
    rt_task.o(i.rt_sys_init) refers to rt_membox.o(i._init_box) for _init_box
    rt_task.o(i.rt_sys_init) refers to rt_task.o(i.rt_init_context) for rt_init_context
    rt_task.o(i.rt_sys_init) refers to rtx_conf_cm.o(.text) for rt_init_robin
    rt_task.o(i.rt_sys_init) refers to rtx_conf_cm.o(.bss) for os_active_TCB
    rt_task.o(i.rt_sys_init) refers to rtx_conf_cm.o(.constdata) for os_maxtaskrun
    rt_task.o(i.rt_sys_init) refers to rtx_conf_cm.o(.data) for m_tmr
    rt_task.o(i.rt_sys_init) refers to rt_task.o(.bss) for .bss
    rt_task.o(i.rt_sys_init) refers to rt_list.o(.bss) for os_rdy
    rt_task.o(i.rt_sys_init) refers to rt_task.o(.data) for .data
    rt_task.o(i.rt_sys_start) refers to rt_system.o(i.os_tick_init) for os_tick_init
    rt_task.o(i.rt_sys_start) refers to rt_system.o(.data) for os_tick_irqn
    rt_task.o(i.rt_tsk_create) refers to rt_membox.o(i.rt_alloc_box) for rt_alloc_box
    rt_task.o(i.rt_tsk_create) refers to rt_task.o(i.rt_init_context) for rt_init_context
    rt_task.o(i.rt_tsk_create) refers to hal_cm.o(i.dbg_task_notify) for dbg_task_notify
    rt_task.o(i.rt_tsk_create) refers to rt_task.o(i.rt_dispatch) for rt_dispatch
    rt_task.o(i.rt_tsk_create) refers to rtx_conf_cm.o(.bss) for mp_tcb
    rt_task.o(i.rt_tsk_create) refers to rtx_conf_cm.o(.constdata) for os_maxtaskrun
    rt_task.o(i.rt_tsk_create) refers to hal_cm.o(.data) for dbg_msg
    rt_task.o(i.rt_tsk_delete) refers to hal_cm4.o(.emb_text) for rt_get_PSP
    rt_task.o(i.rt_tsk_delete) refers to rt_system.o(i.rt_stk_check) for rt_stk_check
    rt_task.o(i.rt_tsk_delete) refers to rt_list.o(i.rt_get_first) for rt_get_first
    rt_task.o(i.rt_tsk_delete) refers to hal_cm.o(i.rt_ret_val) for rt_ret_val
    rt_task.o(i.rt_tsk_delete) refers to rt_list.o(i.rt_rmv_dly) for rt_rmv_dly
    rt_task.o(i.rt_tsk_delete) refers to rt_list.o(i.rt_put_prio) for rt_put_prio
    rt_task.o(i.rt_tsk_delete) refers to rt_membox.o(i.rt_free_box) for rt_free_box
    rt_task.o(i.rt_tsk_delete) refers to hal_cm.o(i.dbg_task_notify) for dbg_task_notify
    rt_task.o(i.rt_tsk_delete) refers to rt_list.o(i.rt_rmv_list) for rt_rmv_list
    rt_task.o(i.rt_tsk_delete) refers to rt_task.o(i.rt_dispatch) for rt_dispatch
    rt_task.o(i.rt_tsk_delete) refers to hal_cm.o(.data) for dbg_msg
    rt_task.o(i.rt_tsk_delete) refers to rtx_conf_cm.o(.bss) for os_active_TCB
    rt_task.o(i.rt_tsk_delete) refers to rt_task.o(.data) for .data
    rt_task.o(i.rt_tsk_delete) refers to rt_list.o(.bss) for os_rdy
    rt_task.o(i.rt_tsk_delete) refers to rtx_conf_cm.o(.constdata) for os_maxtaskrun
    rt_task.o(i.rt_tsk_pass) refers to rt_list.o(i.rt_get_same_rdy_prio) for rt_get_same_rdy_prio
    rt_task.o(i.rt_tsk_pass) refers to rt_list.o(i.rt_put_prio) for rt_put_prio
    rt_task.o(i.rt_tsk_pass) refers to rt_task.o(i.rt_switch_req) for rt_switch_req
    rt_task.o(i.rt_tsk_pass) refers to rt_task.o(.data) for .data
    rt_task.o(i.rt_tsk_pass) refers to rt_list.o(.bss) for os_rdy
    rt_task.o(i.rt_tsk_prio) refers to rt_list.o(i.rt_put_prio) for rt_put_prio
    rt_task.o(i.rt_tsk_prio) refers to rt_list.o(i.rt_resort_prio) for rt_resort_prio
    rt_task.o(i.rt_tsk_prio) refers to rt_list.o(i.rt_get_first) for rt_get_first
    rt_task.o(i.rt_tsk_prio) refers to rt_task.o(i.rt_dispatch) for rt_dispatch
    rt_task.o(i.rt_tsk_prio) refers to rt_task.o(.data) for .data
    rt_task.o(i.rt_tsk_prio) refers to rtx_conf_cm.o(.constdata) for os_maxtaskrun
    rt_task.o(i.rt_tsk_prio) refers to rtx_conf_cm.o(.bss) for os_active_TCB
    rt_task.o(i.rt_tsk_prio) refers to rt_list.o(.bss) for os_rdy
    rt_task.o(i.rt_tsk_self) refers to rt_task.o(.data) for .data
    rt_mutex.o(i.rt_mut_delete) refers to rt_list.o(i.rt_resort_prio) for rt_resort_prio
    rt_mutex.o(i.rt_mut_delete) refers to rt_list.o(i.rt_get_first) for rt_get_first
    rt_mutex.o(i.rt_mut_delete) refers to hal_cm.o(i.rt_ret_val) for rt_ret_val
    rt_mutex.o(i.rt_mut_delete) refers to rt_list.o(i.rt_rmv_dly) for rt_rmv_dly
    rt_mutex.o(i.rt_mut_delete) refers to rt_list.o(i.rt_put_prio) for rt_put_prio
    rt_mutex.o(i.rt_mut_delete) refers to rt_task.o(i.rt_dispatch) for rt_dispatch
    rt_mutex.o(i.rt_mut_delete) refers to rt_task.o(.data) for os_tsk
    rt_mutex.o(i.rt_mut_delete) refers to rt_list.o(.bss) for os_rdy
    rt_mutex.o(i.rt_mut_release) refers to rt_list.o(i.rt_get_first) for rt_get_first
    rt_mutex.o(i.rt_mut_release) refers to hal_cm.o(i.rt_ret_val) for rt_ret_val
    rt_mutex.o(i.rt_mut_release) refers to rt_list.o(i.rt_rmv_dly) for rt_rmv_dly
    rt_mutex.o(i.rt_mut_release) refers to rt_list.o(i.rt_put_prio) for rt_put_prio
    rt_mutex.o(i.rt_mut_release) refers to rt_task.o(i.rt_dispatch) for rt_dispatch
    rt_mutex.o(i.rt_mut_release) refers to rt_task.o(.data) for os_tsk
    rt_mutex.o(i.rt_mut_release) refers to rt_list.o(.bss) for os_rdy
    rt_mutex.o(i.rt_mut_wait) refers to rt_list.o(i.rt_resort_prio) for rt_resort_prio
    rt_mutex.o(i.rt_mut_wait) refers to rt_list.o(i.rt_put_prio) for rt_put_prio
    rt_mutex.o(i.rt_mut_wait) refers to rt_task.o(i.rt_block) for rt_block
    rt_mutex.o(i.rt_mut_wait) refers to rt_task.o(.data) for os_tsk
    charmap.o(i.GrMapISO8859_10_Unicode) refers to charmap.o(.constdata) for .constdata
    charmap.o(i.GrMapISO8859_13_Unicode) refers to charmap.o(.constdata) for .constdata
    charmap.o(i.GrMapISO8859_14_Unicode) refers to charmap.o(.constdata) for .constdata
    charmap.o(i.GrMapISO8859_16_Unicode) refers to charmap.o(.constdata) for .constdata
    charmap.o(i.GrMapISO8859_2_Unicode) refers to charmap.o(.constdata) for .constdata
    charmap.o(i.GrMapISO8859_3_Unicode) refers to charmap.o(.constdata) for .constdata
    charmap.o(i.GrMapISO8859_4_Unicode) refers to charmap.o(.constdata) for .constdata
    charmap.o(i.GrMapISO8859_7_Unicode) refers to charmap.o(.constdata) for .constdata
    charmap.o(i.GrMapUTF16BE_Unicode) refers to charmap.o(i.GrMapUTF16_Unicode) for GrMapUTF16_Unicode
    charmap.o(i.GrMapUTF16LE_Unicode) refers to charmap.o(i.GrMapUTF16_Unicode) for GrMapUTF16_Unicode
    charmap.o(i.GrMapWIN1250_Unicode) refers to charmap.o(.constdata) for .constdata
    charmap.o(i.GrMapWIN1251_Unicode) refers to charmap.o(.constdata) for .constdata
    charmap.o(i.GrMapWIN1252_Unicode) refers to charmap.o(.constdata) for .constdata
    charmap.o(i.GrMapWIN1253_Unicode) refers to charmap.o(.constdata) for .constdata
    charmap.o(i.GrMapWIN1254_Unicode) refers to charmap.o(.constdata) for .constdata
    rt_system.o(i.os_tick_init) refers to rtx_conf_cm.o(.constdata) for os_trv
    rt_system.o(i.os_tick_val) refers to rtx_conf_cm.o(.constdata) for os_trv
    rt_system.o(i.rt_pop_req) refers to rt_list.o(i.rt_put_rdy_first) for rt_put_rdy_first
    rt_system.o(i.rt_pop_req) refers to rt_semaphore.o(i.rt_sem_psh) for rt_sem_psh
    rt_system.o(i.rt_pop_req) refers to rt_list.o(i.rt_get_first) for rt_get_first
    rt_system.o(i.rt_pop_req) refers to rt_task.o(i.rt_switch_req) for rt_switch_req
    rt_system.o(i.rt_pop_req) refers to rt_event.o(i.rt_evt_psh) for rt_evt_psh
    rt_system.o(i.rt_pop_req) refers to rt_mailbox.o(i.rt_mbx_psh) for rt_mbx_psh
    rt_system.o(i.rt_pop_req) refers to rt_task.o(.data) for os_tsk
    rt_system.o(i.rt_pop_req) refers to rtx_conf_cm.o(.bss) for os_fifo
    rt_system.o(i.rt_pop_req) refers to rt_list.o(.bss) for os_rdy
    rt_system.o(i.rt_psh_req) refers to rt_system.o(.data) for .data
    rt_system.o(i.rt_resume) refers to rt_list.o(i.rt_put_rdy_first) for rt_put_rdy_first
    rt_system.o(i.rt_resume) refers to rt_list.o(i.rt_dec_dly) for rt_dec_dly
    rt_system.o(i.rt_resume) refers to rt_cmsis.o(i.sysUserTimerUpdate) for sysUserTimerUpdate
    rt_system.o(i.rt_resume) refers to rt_list.o(i.rt_get_first) for rt_get_first
    rt_system.o(i.rt_resume) refers to rt_task.o(i.rt_switch_req) for rt_switch_req
    rt_system.o(i.rt_resume) refers to rt_system.o(i.rt_tsk_unlock) for rt_tsk_unlock
    rt_system.o(i.rt_resume) refers to rt_task.o(.data) for os_tsk
    rt_system.o(i.rt_resume) refers to rt_robin.o(.data) for os_robin
    rt_system.o(i.rt_resume) refers to rt_list.o(.bss) for os_dly
    rt_system.o(i.rt_resume) refers to rt_time.o(.data) for os_time
    rt_system.o(i.rt_stk_check) refers to rtx_conf_cm.o(.text) for os_error
    rt_system.o(i.rt_stk_check) refers to rt_task.o(.data) for os_tsk
    rt_system.o(i.rt_suspend) refers to rt_system.o(i.rt_tsk_lock) for rt_tsk_lock
    rt_system.o(i.rt_suspend) refers to rt_cmsis.o(i.sysUserTimerWakeupTime) for sysUserTimerWakeupTime
    rt_system.o(i.rt_suspend) refers to rt_list.o(.bss) for os_dly
    rt_system.o(i.rt_systick) refers to rt_list.o(i.rt_put_rdy_first) for rt_put_rdy_first
    rt_system.o(i.rt_systick) refers to rtx_conf_cm.o(.text) for rt_chk_robin
    rt_system.o(i.rt_systick) refers to rt_list.o(i.rt_dec_dly) for rt_dec_dly
    rt_system.o(i.rt_systick) refers to rt_cmsis.o(i.sysTimerTick) for sysTimerTick
    rt_system.o(i.rt_systick) refers to rt_list.o(i.rt_get_first) for rt_get_first
    rt_system.o(i.rt_systick) refers to rt_task.o(i.rt_switch_req) for rt_switch_req
    rt_system.o(i.rt_systick) refers to rt_task.o(.data) for os_tsk
    rt_system.o(i.rt_systick) refers to rt_time.o(.data) for os_time
    rt_system.o(i.rt_systick) refers to rt_list.o(.bss) for os_rdy
    rt_system.o(i.rt_tsk_lock) refers to rt_system.o(.data) for .data
    rt_system.o(i.rt_tsk_unlock) refers to rt_system.o(.data) for .data
    rt_event.o(i.isr_evt_set) refers to rt_list.o(i.rt_psq_enq) for rt_psq_enq
    rt_event.o(i.isr_evt_set) refers to rt_system.o(i.rt_psh_req) for rt_psh_req
    rt_event.o(i.isr_evt_set) refers to rtx_conf_cm.o(.bss) for os_active_TCB
    rt_event.o(i.rt_evt_clr) refers to rtx_conf_cm.o(.bss) for os_active_TCB
    rt_event.o(i.rt_evt_get) refers to rt_task.o(.data) for os_tsk
    rt_event.o(i.rt_evt_psh) refers to rt_list.o(i.rt_rmv_dly) for rt_rmv_dly
    rt_event.o(i.rt_evt_psh) refers to hal_cm.o(i.rt_ret_val2) for rt_ret_val2
    rt_event.o(i.rt_evt_psh) refers to rt_list.o(i.rt_put_prio) for rt_put_prio
    rt_event.o(i.rt_evt_psh) refers to rt_list.o(.bss) for os_rdy
    rt_event.o(i.rt_evt_set) refers to rt_list.o(i.rt_rmv_dly) for rt_rmv_dly
    rt_event.o(i.rt_evt_set) refers to hal_cm.o(i.rt_ret_val2) for rt_ret_val2
    rt_event.o(i.rt_evt_set) refers to rt_task.o(i.rt_dispatch) for rt_dispatch
    rt_event.o(i.rt_evt_set) refers to rtx_conf_cm.o(.bss) for os_active_TCB
    rt_event.o(i.rt_evt_wait) refers to rt_task.o(i.rt_block) for rt_block
    rt_event.o(i.rt_evt_wait) refers to rt_task.o(.data) for os_tsk
    rt_list.o(i.rt_dec_dly) refers to rt_list.o(i.rt_put_prio) for rt_put_prio
    rt_list.o(i.rt_dec_dly) refers to rt_list.o(.bss) for .bss
    rt_list.o(i.rt_dec_dly) refers to rt_time.o(.data) for os_time
    rt_list.o(i.rt_get_same_rdy_prio) refers to rt_list.o(.bss) for .bss
    rt_list.o(i.rt_get_same_rdy_prio) refers to rt_task.o(.data) for os_tsk
    rt_list.o(i.rt_psq_enq) refers to rtx_conf_cm.o(.text) for os_error
    rt_list.o(i.rt_psq_enq) refers to rtx_conf_cm.o(.bss) for os_fifo
    rt_list.o(i.rt_put_dly) refers to rt_list.o(.bss) for .bss
    rt_list.o(i.rt_put_rdy_first) refers to rt_list.o(.bss) for .bss
    rt_list.o(i.rt_resort_prio) refers to rt_list.o(i.rt_rmv_list) for rt_rmv_list
    rt_list.o(i.rt_resort_prio) refers to rt_list.o(i.rt_put_prio) for rt_put_prio
    rt_list.o(i.rt_resort_prio) refers to rt_list.o(.bss) for .bss
    rt_list.o(i.rt_rmv_list) refers to rt_list.o(.bss) for .bss
    rt_mailbox.o(i.isr_mbx_receive) refers to rt_list.o(i.rt_psq_enq) for rt_psq_enq
    rt_mailbox.o(i.isr_mbx_receive) refers to rt_system.o(i.rt_psh_req) for rt_psh_req
    rt_mailbox.o(i.isr_mbx_send) refers to rt_list.o(i.rt_psq_enq) for rt_psq_enq
    rt_mailbox.o(i.isr_mbx_send) refers to rt_system.o(i.rt_psh_req) for rt_psh_req
    rt_mailbox.o(i.rt_mbx_psh) refers to rt_membox.o(i.rt_alloc_box) for rt_alloc_box
    rt_mailbox.o(i.rt_mbx_psh) refers to rt_list.o(i.rt_get_first) for rt_get_first
    rt_mailbox.o(i.rt_mbx_psh) refers to hal_cm.o(i.rt_ret_val) for rt_ret_val
    rt_mailbox.o(i.rt_mbx_psh) refers to rt_list.o(i.rt_rmv_dly) for rt_rmv_dly
    rt_mailbox.o(i.rt_mbx_psh) refers to rt_list.o(i.rt_put_prio) for rt_put_prio
    rt_mailbox.o(i.rt_mbx_psh) refers to hal_cm.o(i.rt_ret_val2) for rt_ret_val2
    rt_mailbox.o(i.rt_mbx_psh) refers to rtx_conf_cm.o(.text) for os_error
    rt_mailbox.o(i.rt_mbx_psh) refers to rt_list.o(.bss) for os_rdy
    rt_mailbox.o(i.rt_mbx_send) refers to rt_list.o(i.rt_put_prio) for rt_put_prio
    rt_mailbox.o(i.rt_mbx_send) refers to rt_list.o(i.rt_get_first) for rt_get_first
    rt_mailbox.o(i.rt_mbx_send) refers to hal_cm.o(i.rt_ret_val2) for rt_ret_val2
    rt_mailbox.o(i.rt_mbx_send) refers to rt_list.o(i.rt_rmv_dly) for rt_rmv_dly
    rt_mailbox.o(i.rt_mbx_send) refers to rt_task.o(i.rt_dispatch) for rt_dispatch
    rt_mailbox.o(i.rt_mbx_send) refers to rt_task.o(i.rt_block) for rt_block
    rt_mailbox.o(i.rt_mbx_send) refers to rt_task.o(.data) for os_tsk
    rt_mailbox.o(i.rt_mbx_wait) refers to rt_list.o(i.rt_get_first) for rt_get_first
    rt_mailbox.o(i.rt_mbx_wait) refers to hal_cm.o(i.rt_ret_val) for rt_ret_val
    rt_mailbox.o(i.rt_mbx_wait) refers to rt_list.o(i.rt_rmv_dly) for rt_rmv_dly
    rt_mailbox.o(i.rt_mbx_wait) refers to rt_task.o(i.rt_dispatch) for rt_dispatch
    rt_mailbox.o(i.rt_mbx_wait) refers to rt_list.o(i.rt_put_prio) for rt_put_prio
    rt_mailbox.o(i.rt_mbx_wait) refers to rt_task.o(i.rt_block) for rt_block
    rt_mailbox.o(i.rt_mbx_wait) refers to rt_task.o(.data) for os_tsk
    rt_semaphore.o(i.isr_sem_send) refers to rt_list.o(i.rt_psq_enq) for rt_psq_enq
    rt_semaphore.o(i.isr_sem_send) refers to rt_system.o(i.rt_psh_req) for rt_psh_req
    rt_semaphore.o(i.rt_sem_delete) refers to rt_list.o(i.rt_get_first) for rt_get_first
    rt_semaphore.o(i.rt_sem_delete) refers to hal_cm.o(i.rt_ret_val) for rt_ret_val
    rt_semaphore.o(i.rt_sem_delete) refers to rt_list.o(i.rt_rmv_dly) for rt_rmv_dly
    rt_semaphore.o(i.rt_sem_delete) refers to rt_list.o(i.rt_put_prio) for rt_put_prio
    rt_semaphore.o(i.rt_sem_delete) refers to rt_task.o(i.rt_dispatch) for rt_dispatch
    rt_semaphore.o(i.rt_sem_delete) refers to rt_list.o(.bss) for os_rdy
    rt_semaphore.o(i.rt_sem_delete) refers to rt_task.o(.data) for os_tsk
    rt_semaphore.o(i.rt_sem_psh) refers to rt_list.o(i.rt_get_first) for rt_get_first
    rt_semaphore.o(i.rt_sem_psh) refers to rt_list.o(i.rt_rmv_dly) for rt_rmv_dly
    rt_semaphore.o(i.rt_sem_psh) refers to hal_cm.o(i.rt_ret_val) for rt_ret_val
    rt_semaphore.o(i.rt_sem_psh) refers to rt_list.o(i.rt_put_prio) for rt_put_prio
    rt_semaphore.o(i.rt_sem_psh) refers to rt_list.o(.bss) for os_rdy
    rt_semaphore.o(i.rt_sem_send) refers to rt_list.o(i.rt_get_first) for rt_get_first
    rt_semaphore.o(i.rt_sem_send) refers to hal_cm.o(i.rt_ret_val) for rt_ret_val
    rt_semaphore.o(i.rt_sem_send) refers to rt_list.o(i.rt_rmv_dly) for rt_rmv_dly
    rt_semaphore.o(i.rt_sem_send) refers to rt_task.o(i.rt_dispatch) for rt_dispatch
    rt_semaphore.o(i.rt_sem_wait) refers to rt_list.o(i.rt_put_prio) for rt_put_prio
    rt_semaphore.o(i.rt_sem_wait) refers to rt_task.o(i.rt_block) for rt_block
    rt_semaphore.o(i.rt_sem_wait) refers to rt_task.o(.data) for os_tsk
    rt_time.o(i.rt_dly_wait) refers to rt_task.o(i.rt_block) for rt_block
    rt_time.o(i.rt_itv_set) refers to rt_task.o(.data) for os_tsk
    rt_time.o(i.rt_itv_set) refers to rt_time.o(.data) for .data
    rt_time.o(i.rt_itv_wait) refers to rt_task.o(i.rt_block) for rt_block
    rt_time.o(i.rt_itv_wait) refers to rt_task.o(.data) for os_tsk
    rt_time.o(i.rt_itv_wait) refers to rt_time.o(.data) for .data
    rt_time.o(i.rt_time_get) refers to rt_time.o(.data) for .data
    rt_membox.o(i._calloc_box) refers to hal_cm4.o(.emb_text) for _alloc_box
    hal_cm.o(i.dbg_init) refers to hal_cm.o(.data) for .data
    hal_cm.o(i.rt_init_stack) refers to rtx_conf_cm.o(.constdata) for os_stackinfo
    hal_cm.o(i.rt_ret_val) refers to hal_cm.o(i.rt_ret_regs) for rt_ret_regs
    hal_cm.o(i.rt_ret_val2) refers to hal_cm.o(i.rt_ret_regs) for rt_ret_regs
    hal_cm4.o(.emb_text) refers to rtx_conf_cm.o(.constdata) for os_flags
    hal_cm4.o(.emb_text) refers to rt_membox.o(i.rt_alloc_box) for rt_alloc_box
    hal_cm4.o(.emb_text) refers to rt_membox.o(i.rt_free_box) for rt_free_box
    hal_cm4.o(.emb_text) refers to rt_system.o(i.rt_stk_check) for rt_stk_check
    hal_cm4.o(.emb_text) refers to rt_task.o(.data) for os_tsk
    hal_cm4.o(.emb_text) refers to svc_table.o(SVC_TABLE) for SVC_Count
    hal_cm4.o(.emb_text) refers to rt_system.o(i.rt_pop_req) for rt_pop_req
    hal_cm4.o(.emb_text) refers to rt_system.o(i.rt_systick) for rt_systick
    hal_cm4.o(.emb_text) refers to rt_system.o(i.os_tick_irqack) for os_tick_irqack
    rt_robin.o(i.rt_chk_robin) refers to rt_list.o(i.rt_get_first) for rt_get_first
    rt_robin.o(i.rt_chk_robin) refers to rt_list.o(i.rt_put_prio) for rt_put_prio
    rt_robin.o(i.rt_chk_robin) refers to rt_robin.o(.data) for .data
    rt_robin.o(i.rt_chk_robin) refers to rt_list.o(.bss) for os_rdy
    rt_robin.o(i.rt_chk_robin) refers to rt_time.o(.data) for os_time
    rt_robin.o(i.rt_init_robin) refers to rt_robin.o(.data) for .data
    rt_robin.o(i.rt_init_robin) refers to rtx_conf_cm.o(.constdata) for os_rrobin
    libspace.o(.text) refers to libspace.o(.bss) for __libspace_start
    llsdiv.o(.text) refers to lludivv7m.o(.text) for __aeabi_uldivmod
    exit.o(.text) refers to rtexit.o(.ARM.Collect$$rtexit$$00000000) for __rt_exit
    __main.o(!!!main) refers to __rtentry.o(.ARM.Collect$$rtentry$$00000000) for __rt_entry
    __rtentry.o(.ARM.Collect$$rtentry$$00000000) refers (Special) to __rtentry2.o(.ARM.Collect$$rtentry$$0000000A) for __rt_entry_li
    __rtentry.o(.ARM.Collect$$rtentry$$00000000) refers (Special) to __rtentry2.o(.ARM.Collect$$rtentry$$0000000D) for __rt_entry_main
    __rtentry.o(.ARM.Collect$$rtentry$$00000000) refers (Special) to __rtentry2.o(.ARM.Collect$$rtentry$$0000000B) for __rt_entry_postli_1
    __rtentry.o(.ARM.Collect$$rtentry$$00000000) refers (Special) to __rtentry2.o(.ARM.Collect$$rtentry$$00000009) for __rt_entry_postsh_1
    __rtentry.o(.ARM.Collect$$rtentry$$00000000) refers (Special) to __rtentry2.o(.ARM.Collect$$rtentry$$00000002) for __rt_entry_presh_1
    __rtentry.o(.ARM.Collect$$rtentry$$00000000) refers (Special) to __rtentry4.o(.ARM.Collect$$rtentry$$00000004) for __rt_entry_sh
    rtexit.o(.ARM.Collect$$rtexit$$00000000) refers (Special) to rtexit2.o(.ARM.Collect$$rtexit$$00000004) for __rt_exit_exit
    rtexit.o(.ARM.Collect$$rtexit$$00000000) refers (Special) to rtexit2.o(.ARM.Collect$$rtexit$$00000003) for __rt_exit_ls
    rtexit.o(.ARM.Collect$$rtexit$$00000000) refers (Special) to rtexit2.o(.ARM.Collect$$rtexit$$00000002) for __rt_exit_prels_1
    rtexit.o(.ARM.exidx) refers (Special) to rtexit2.o(.ARM.Collect$$rtexit$$00000004) for __rt_exit_exit
    rtexit.o(.ARM.exidx) refers (Special) to rtexit2.o(.ARM.Collect$$rtexit$$00000003) for __rt_exit_ls
    rtexit.o(.ARM.exidx) refers (Special) to rtexit2.o(.ARM.Collect$$rtexit$$00000002) for __rt_exit_prels_1
    rtexit.o(.ARM.exidx) refers to rtexit.o(.ARM.Collect$$rtexit$$00000000) for .ARM.Collect$$rtexit$$00000000
    aeabi_ldiv0_sigfpe.o(.text) refers to rt_div0.o(.text) for __rt_div0
    __rtentry2.o(.ARM.Collect$$rtentry$$00000008) refers to boardinit2.o(.text) for _platform_post_stackheap_init
    __rtentry2.o(.ARM.Collect$$rtentry$$0000000A) refers to libinit.o(.ARM.Collect$$libinit$$00000000) for __rt_lib_init
    __rtentry2.o(.ARM.Collect$$rtentry$$0000000B) refers to rtx_conf_cm.o(.emb_text) for _platform_post_lib_init
    __rtentry2.o(.ARM.Collect$$rtentry$$0000000D) refers to blinky.o(.text) for main
    __rtentry2.o(.ARM.Collect$$rtentry$$0000000D) refers to exit.o(.text) for exit
    __rtentry2.o(.ARM.exidx) refers to __rtentry2.o(.ARM.Collect$$rtentry$$00000001) for .ARM.Collect$$rtentry$$00000001
    __rtentry2.o(.ARM.exidx) refers to __rtentry2.o(.ARM.Collect$$rtentry$$00000008) for .ARM.Collect$$rtentry$$00000008
    __rtentry2.o(.ARM.exidx) refers to __rtentry2.o(.ARM.Collect$$rtentry$$0000000A) for .ARM.Collect$$rtentry$$0000000A
    __rtentry2.o(.ARM.exidx) refers to __rtentry2.o(.ARM.Collect$$rtentry$$0000000B) for .ARM.Collect$$rtentry$$0000000B
    __rtentry2.o(.ARM.exidx) refers to __rtentry2.o(.ARM.Collect$$rtentry$$0000000D) for .ARM.Collect$$rtentry$$0000000D
    __rtentry4.o(.ARM.Collect$$rtentry$$00000004) refers to sys_stackheap_outer.o(.text) for __user_setup_stackheap
    __rtentry4.o(.ARM.exidx) refers to __rtentry4.o(.ARM.Collect$$rtentry$$00000004) for .ARM.Collect$$rtentry$$00000004
    rtexit2.o(.ARM.Collect$$rtexit$$00000003) refers to libshutdown.o(.ARM.Collect$$libshutdown$$00000000) for __rt_lib_shutdown
    rtexit2.o(.ARM.Collect$$rtexit$$00000004) refers to sys_exit.o(.text) for _sys_exit
    rtexit2.o(.ARM.exidx) refers to rtexit2.o(.ARM.Collect$$rtexit$$00000001) for .ARM.Collect$$rtexit$$00000001
    rtexit2.o(.ARM.exidx) refers to rtexit2.o(.ARM.Collect$$rtexit$$00000003) for .ARM.Collect$$rtexit$$00000003
    rtexit2.o(.ARM.exidx) refers to rtexit2.o(.ARM.Collect$$rtexit$$00000004) for .ARM.Collect$$rtexit$$00000004
    rt_div0.o(.text) refers to defsig_fpe_outer.o(.text) for __rt_SIGFPE
    sys_exit.o(.text) refers (Special) to use_no_semi.o(.text) for __I$use$semihosting
    sys_exit.o(.text) refers (Special) to indicate_semi.o(.text) for __semihosting_library_function
    sys_stackheap_outer.o(.text) refers to libspace.o(.text) for __user_perproc_libspace
    sys_stackheap_outer.o(.text) refers to startup_tm4c129.o(.text) for __user_initial_stackheap
    defsig_fpe_outer.o(.text) refers to defsig_fpe_inner.o(.text) for __rt_SIGFPE_inner
    defsig_fpe_outer.o(.text) refers to defsig_exit.o(.text) for __sig_exit
    defsig_fpe_formal.o(.text) refers to rt_raise.o(.text) for __rt_raise
    libinit.o(.ARM.Collect$$libinit$$00000000) refers (Special) to libinit2.o(.ARM.Collect$$libinit$$0000002E) for __rt_lib_init_alloca_1
    libinit.o(.ARM.Collect$$libinit$$00000000) refers (Special) to libinit2.o(.ARM.Collect$$libinit$$0000002C) for __rt_lib_init_argv_1
    libinit.o(.ARM.Collect$$libinit$$00000000) refers (Special) to libinit2.o(.ARM.Collect$$libinit$$0000001B) for __rt_lib_init_atexit_1
    libinit.o(.ARM.Collect$$libinit$$00000000) refers (Special) to libinit2.o(.ARM.Collect$$libinit$$00000021) for __rt_lib_init_clock_1
    libinit.o(.ARM.Collect$$libinit$$00000000) refers (Special) to libinit2.o(.ARM.Collect$$libinit$$00000032) for __rt_lib_init_cpp_1
    libinit.o(.ARM.Collect$$libinit$$00000000) refers (Special) to libinit2.o(.ARM.Collect$$libinit$$00000030) for __rt_lib_init_exceptions_1
    libinit.o(.ARM.Collect$$libinit$$00000000) refers (Special) to libinit2.o(.ARM.Collect$$libinit$$00000001) for __rt_lib_init_fp_1
    libinit.o(.ARM.Collect$$libinit$$00000000) refers (Special) to libinit2.o(.ARM.Collect$$libinit$$0000001F) for __rt_lib_init_fp_trap_1
    libinit.o(.ARM.Collect$$libinit$$00000000) refers (Special) to libinit2.o(.ARM.Collect$$libinit$$00000023) for __rt_lib_init_getenv_1
    libinit.o(.ARM.Collect$$libinit$$00000000) refers (Special) to libinit2.o(.ARM.Collect$$libinit$$0000000A) for __rt_lib_init_heap_1
    libinit.o(.ARM.Collect$$libinit$$00000000) refers (Special) to libinit2.o(.ARM.Collect$$libinit$$00000011) for __rt_lib_init_lc_collate_1
    libinit.o(.ARM.Collect$$libinit$$00000000) refers (Special) to libinit2.o(.ARM.Collect$$libinit$$00000013) for __rt_lib_init_lc_ctype_1
    libinit.o(.ARM.Collect$$libinit$$00000000) refers (Special) to libinit2.o(.ARM.Collect$$libinit$$00000015) for __rt_lib_init_lc_monetary_1
    libinit.o(.ARM.Collect$$libinit$$00000000) refers (Special) to libinit2.o(.ARM.Collect$$libinit$$00000017) for __rt_lib_init_lc_numeric_1
    libinit.o(.ARM.Collect$$libinit$$00000000) refers (Special) to libinit2.o(.ARM.Collect$$libinit$$00000019) for __rt_lib_init_lc_time_1
    libinit.o(.ARM.Collect$$libinit$$00000000) refers (Special) to libinit2.o(.ARM.Collect$$libinit$$00000004) for __rt_lib_init_preinit_1
    libinit.o(.ARM.Collect$$libinit$$00000000) refers (Special) to libinit2.o(.ARM.Collect$$libinit$$0000000E) for __rt_lib_init_rand_1
    libinit.o(.ARM.Collect$$libinit$$00000000) refers (Special) to libinit2.o(.ARM.Collect$$libinit$$00000033) for __rt_lib_init_return
    libinit.o(.ARM.Collect$$libinit$$00000000) refers (Special) to libinit2.o(.ARM.Collect$$libinit$$0000001D) for __rt_lib_init_signal_1
    libinit.o(.ARM.Collect$$libinit$$00000000) refers (Special) to libinit2.o(.ARM.Collect$$libinit$$00000025) for __rt_lib_init_stdio_1
    libinit.o(.ARM.Collect$$libinit$$00000000) refers (Special) to libinit2.o(.ARM.Collect$$libinit$$0000000C) for __rt_lib_init_user_alloc_1
    libshutdown.o(.ARM.Collect$$libshutdown$$00000000) refers (Special) to libshutdown2.o(.ARM.Collect$$libshutdown$$00000002) for __rt_lib_shutdown_cpp_1
    libshutdown.o(.ARM.Collect$$libshutdown$$00000000) refers (Special) to libshutdown2.o(.ARM.Collect$$libshutdown$$00000007) for __rt_lib_shutdown_fp_trap_1
    libshutdown.o(.ARM.Collect$$libshutdown$$00000000) refers (Special) to libshutdown2.o(.ARM.Collect$$libshutdown$$0000000F) for __rt_lib_shutdown_heap_1
    libshutdown.o(.ARM.Collect$$libshutdown$$00000000) refers (Special) to libshutdown2.o(.ARM.Collect$$libshutdown$$00000010) for __rt_lib_shutdown_return
    libshutdown.o(.ARM.Collect$$libshutdown$$00000000) refers (Special) to libshutdown2.o(.ARM.Collect$$libshutdown$$0000000A) for __rt_lib_shutdown_signal_1
    libshutdown.o(.ARM.Collect$$libshutdown$$00000000) refers (Special) to libshutdown2.o(.ARM.Collect$$libshutdown$$00000004) for __rt_lib_shutdown_stdio_1
    libshutdown.o(.ARM.Collect$$libshutdown$$00000000) refers (Special) to libshutdown2.o(.ARM.Collect$$libshutdown$$0000000C) for __rt_lib_shutdown_user_alloc_1
    rt_raise.o(.text) refers to __raise.o(.text) for __raise
    rt_raise.o(.text) refers to sys_exit.o(.text) for _sys_exit
    defsig_exit.o(.text) refers to sys_exit.o(.text) for _sys_exit
    defsig_fpe_inner.o(.text) refers to defsig_general.o(.text) for __default_signal_display
    libinit2.o(.ARM.Collect$$libinit$$00000001) refers to fpinit.o(x$fpl$fpinit) for _fp_init
    libinit2.o(.ARM.Collect$$libinit$$00000010) refers to libinit2.o(.ARM.Collect$$libinit$$0000000F) for .ARM.Collect$$libinit$$0000000F
    libinit2.o(.ARM.Collect$$libinit$$00000012) refers to libinit2.o(.ARM.Collect$$libinit$$0000000F) for .ARM.Collect$$libinit$$0000000F
    libinit2.o(.ARM.Collect$$libinit$$00000014) refers to libinit2.o(.ARM.Collect$$libinit$$0000000F) for .ARM.Collect$$libinit$$0000000F
    libinit2.o(.ARM.Collect$$libinit$$00000016) refers to libinit2.o(.ARM.Collect$$libinit$$0000000F) for .ARM.Collect$$libinit$$0000000F
    libinit2.o(.ARM.Collect$$libinit$$00000018) refers to libinit2.o(.ARM.Collect$$libinit$$0000000F) for .ARM.Collect$$libinit$$0000000F
    libinit2.o(.ARM.Collect$$libinit$$00000026) refers to argv_veneer.o(.emb_text) for __ARM_argv_veneer
    libinit2.o(.ARM.Collect$$libinit$$00000027) refers to argv_veneer.o(.emb_text) for __ARM_argv_veneer
    __raise.o(.text) refers to defsig.o(CL$$defsig) for __default_signal_handler
    defsig_general.o(.text) refers to sys_wrch.o(.text) for _ttywrch
    argv_veneer.o(.emb_text) refers to no_argv.o(.text) for __ARM_get_argv
    sys_wrch.o(.text) refers (Special) to use_no_semi.o(.text) for __I$use$semihosting
    sys_wrch.o(.text) refers (Special) to indicate_semi.o(.text) for __semihosting_library_function
    defsig.o(CL$$defsig) refers to defsig_fpe_inner.o(.text) for __rt_SIGFPE_inner
    defsig.o(CL$$defsig) refers to defsig_rtmem_inner.o(.text) for __rt_SIGRTMEM_inner
    _get_argv_nomalloc.o(.text) refers (Special) to hrguard.o(.text) for __heap_region$guard
    _get_argv_nomalloc.o(.text) refers to defsig_rtmem_outer.o(.text) for __rt_SIGRTMEM
    _get_argv_nomalloc.o(.text) refers to sys_command.o(.text) for _sys_command_string
    sys_command.o(.text) refers (Special) to use_no_semi.o(.text) for __I$use$semihosting
    sys_command.o(.text) refers (Special) to indicate_semi.o(.text) for __semihosting_library_function
    defsig_abrt_inner.o(.text) refers to defsig_general.o(.text) for __default_signal_display
    defsig_rtred_inner.o(.text) refers to defsig_general.o(.text) for __default_signal_display
    defsig_rtmem_inner.o(.text) refers to defsig_general.o(.text) for __default_signal_display
    defsig_rtmem_outer.o(.text) refers to defsig_rtmem_inner.o(.text) for __rt_SIGRTMEM_inner
    defsig_rtmem_outer.o(.text) refers to defsig_exit.o(.text) for __sig_exit
    defsig_rtmem_formal.o(.text) refers to rt_raise.o(.text) for __rt_raise
    defsig_stak_inner.o(.text) refers to defsig_general.o(.text) for __default_signal_display
    defsig_pvfn_inner.o(.text) refers to defsig_general.o(.text) for __default_signal_display
    defsig_cppl_inner.o(.text) refers to defsig_general.o(.text) for __default_signal_display
    defsig_segv_inner.o(.text) refers to defsig_general.o(.text) for __default_signal_display
    defsig_other.o(.text) refers to defsig_general.o(.text) for __default_signal_display


==============================================================================

Removing Unused input sections from the image.

    Removing blinky.o(.rev16_text), (4 bytes).
    Removing blinky.o(.revsh_text), (4 bytes).
    Removing blinky.o(.rrx_text), (6 bytes).
    Removing led.o(.rev16_text), (4 bytes).
    Removing led.o(.revsh_text), (4 bytes).
    Removing led.o(.rrx_text), (6 bytes).
    Removing retarget_io.o(.text), (544 bytes).
    Removing retarget_io.o(.constdata), (23 bytes).
    Removing retarget_io.o(.data), (4 bytes).
    Removing system_tm4c129.o(.rev16_text), (4 bytes).
    Removing system_tm4c129.o(.revsh_text), (4 bytes).
    Removing system_tm4c129.o(.rrx_text), (6 bytes).
    Removing adc.o(i.ADCBusy), (8 bytes).
    Removing adc.o(i.ADCClockConfigGet), (32 bytes).
    Removing adc.o(i.ADCClockConfigSet), (28 bytes).
    Removing adc.o(i.ADCComparatorConfigure), (10 bytes).
    Removing adc.o(i.ADCComparatorIntClear), (4 bytes).
    Removing adc.o(i.ADCComparatorIntDisable), (18 bytes).
    Removing adc.o(i.ADCComparatorIntEnable), (16 bytes).
    Removing adc.o(i.ADCComparatorIntStatus), (4 bytes).
    Removing adc.o(i.ADCComparatorRegionSet), (14 bytes).
    Removing adc.o(i.ADCComparatorReset), (40 bytes).
    Removing adc.o(i.ADCHardwareOversampleConfigure), (18 bytes).
    Removing adc.o(i.ADCIntClearEx), (4 bytes).
    Removing adc.o(i.ADCIntDisable), (16 bytes).
    Removing adc.o(i.ADCIntDisableEx), (10 bytes).
    Removing adc.o(i.ADCIntEnable), (16 bytes).
    Removing adc.o(i.ADCIntEnableEx), (8 bytes).
    Removing adc.o(i.ADCIntRegister), (104 bytes).
    Removing adc.o(i.ADCIntStatusEx), (22 bytes).
    Removing adc.o(i.ADCIntUnregister), (108 bytes).
    Removing adc.o(i.ADCPhaseDelayGet), (4 bytes).
    Removing adc.o(i.ADCPhaseDelaySet), (4 bytes).
    Removing adc.o(i.ADCReferenceGet), (8 bytes).
    Removing adc.o(i.ADCReferenceSet), (12 bytes).
    Removing adc.o(i.ADCSequenceDMADisable), (18 bytes).
    Removing adc.o(i.ADCSequenceDMAEnable), (16 bytes).
    Removing adc.o(i.ADCSequenceDisable), (16 bytes).
    Removing adc.o(i.ADCSequenceOverflow), (12 bytes).
    Removing adc.o(i.ADCSequenceOverflowClear), (10 bytes).
    Removing adc.o(i.ADCSequenceUnderflow), (12 bytes).
    Removing adc.o(i.ADCSequenceUnderflowClear), (10 bytes).
    Removing adc.o(i.ADCSoftwareOversampleConfigure), (44 bytes).
    Removing adc.o(i.ADCSoftwareOversampleDataGet), (88 bytes).
    Removing adc.o(i.ADCSoftwareOversampleStepConfigure), (168 bytes).
    Removing adc.o(.data), (6 bytes).
    Removing gpio.o(i.GPIOADCTriggerDisable), (14 bytes).
    Removing gpio.o(i.GPIOADCTriggerEnable), (12 bytes).
    Removing gpio.o(i.GPIODMATriggerDisable), (14 bytes).
    Removing gpio.o(i.GPIODMATriggerEnable), (12 bytes).
    Removing gpio.o(i.GPIODirModeGet), (34 bytes).
    Removing gpio.o(i.GPIOIntClear), (6 bytes).
    Removing gpio.o(i.GPIOIntDisable), (14 bytes).
    Removing gpio.o(i.GPIOIntEnable), (12 bytes).
    Removing gpio.o(i.GPIOIntRegister), (26 bytes).
    Removing gpio.o(i.GPIOIntRegisterPin), (30 bytes).
    Removing gpio.o(i.GPIOIntStatus), (14 bytes).
    Removing gpio.o(i.GPIOIntTypeGet), (68 bytes).
    Removing gpio.o(i.GPIOIntTypeSet), (80 bytes).
    Removing gpio.o(i.GPIOIntUnregister), (22 bytes).
    Removing gpio.o(i.GPIOIntUnregisterPin), (26 bytes).
    Removing gpio.o(i.GPIOPadConfigGet), (204 bytes).
    Removing gpio.o(i.GPIOPinTypeCAN), (28 bytes).
    Removing gpio.o(i.GPIOPinTypeComparator), (28 bytes).
    Removing gpio.o(i.GPIOPinTypeComparatorOutput), (28 bytes).
    Removing gpio.o(i.GPIOPinTypeDIVSCLK), (28 bytes).
    Removing gpio.o(i.GPIOPinTypeEPI), (28 bytes).
    Removing gpio.o(i.GPIOPinTypeEthernetLED), (28 bytes).
    Removing gpio.o(i.GPIOPinTypeEthernetMII), (28 bytes).
    Removing gpio.o(i.GPIOPinTypeGPIOOutput), (28 bytes).
    Removing gpio.o(i.GPIOPinTypeGPIOOutputOD), (28 bytes).
    Removing gpio.o(i.GPIOPinTypeHibernateRTCCLK), (28 bytes).
    Removing gpio.o(i.GPIOPinTypeLCD), (28 bytes).
    Removing gpio.o(i.GPIOPinTypeOneWire), (28 bytes).
    Removing gpio.o(i.GPIOPinTypeQEI), (28 bytes).
    Removing gpio.o(i.GPIOPinTypeSSI), (28 bytes).
    Removing gpio.o(i.GPIOPinTypeTrace), (28 bytes).
    Removing gpio.o(i.GPIOPinTypeUART), (28 bytes).
    Removing gpio.o(i.GPIOPinTypeUSBAnalog), (28 bytes).
    Removing gpio.o(i.GPIOPinTypeUSBDigital), (28 bytes).
    Removing gpio.o(i.GPIOPinTypeWakeHigh), (30 bytes).
    Removing gpio.o(i.GPIOPinTypeWakeLow), (30 bytes).
    Removing gpio.o(i.GPIOPinWakeStatus), (6 bytes).
    Removing gpio.o(i.GPIOPinWrite), (6 bytes).
    Removing gpio.o(i._GPIOIntNumberGet), (80 bytes).
    Removing i2c.o(i.I2CFIFODataGet), (16 bytes).
    Removing i2c.o(i.I2CFIFODataGetNonBlocking), (24 bytes).
    Removing i2c.o(i.I2CFIFODataPut), (16 bytes).
    Removing i2c.o(i.I2CFIFODataPutNonBlocking), (20 bytes).
    Removing i2c.o(i.I2CFIFOStatus), (6 bytes).
    Removing i2c.o(i.I2CIntUnregister), (96 bytes).
    Removing i2c.o(i.I2CLoopbackEnable), (10 bytes).
    Removing i2c.o(i.I2CMasterBurstCountGet), (4 bytes).
    Removing i2c.o(i.I2CMasterDisable), (10 bytes).
    Removing i2c.o(i.I2CMasterIntDisable), (6 bytes).
    Removing i2c.o(i.I2CMasterIntDisableEx), (10 bytes).
    Removing i2c.o(i.I2CMasterIntEnable), (6 bytes).
    Removing i2c.o(i.I2CMasterIntStatus), (24 bytes).
    Removing i2c.o(i.I2CMasterIntStatusEx), (10 bytes).
    Removing i2c.o(i.I2CMasterLineStateGet), (4 bytes).
    Removing i2c.o(i.I2CRxFIFOConfigSet), (22 bytes).
    Removing i2c.o(i.I2CRxFIFOFlush), (14 bytes).
    Removing i2c.o(i.I2CSlaveACKOverride), (22 bytes).
    Removing i2c.o(i.I2CSlaveACKValueSet), (22 bytes).
    Removing i2c.o(i.I2CSlaveAddressSet), (24 bytes).
    Removing i2c.o(i.I2CSlaveDataGet), (6 bytes).
    Removing i2c.o(i.I2CSlaveDataPut), (6 bytes).
    Removing i2c.o(i.I2CSlaveDisable), (16 bytes).
    Removing i2c.o(i.I2CSlaveEnable), (16 bytes).
    Removing i2c.o(i.I2CSlaveFIFODisable), (8 bytes).
    Removing i2c.o(i.I2CSlaveFIFOEnable), (10 bytes).
    Removing i2c.o(i.I2CSlaveInit), (20 bytes).
    Removing i2c.o(i.I2CSlaveIntClear), (8 bytes).
    Removing i2c.o(i.I2CSlaveIntClearEx), (6 bytes).
    Removing i2c.o(i.I2CSlaveIntDisable), (14 bytes).
    Removing i2c.o(i.I2CSlaveIntDisableEx), (14 bytes).
    Removing i2c.o(i.I2CSlaveIntEnable), (14 bytes).
    Removing i2c.o(i.I2CSlaveIntEnableEx), (12 bytes).
    Removing i2c.o(i.I2CSlaveIntStatus), (28 bytes).
    Removing i2c.o(i.I2CSlaveIntStatusEx), (14 bytes).
    Removing i2c.o(i.I2CSlaveStatus), (6 bytes).
    Removing i2c.o(i.I2CTxFIFOConfigSet), (24 bytes).
    Removing i2c.o(i.I2CTxFIFOFlush), (14 bytes).
    Removing interrupt.o(i.IntDisable), (100 bytes).
    Removing interrupt.o(i.IntIsEnabled), (96 bytes).
    Removing interrupt.o(i.IntMasterDisable), (14 bytes).
    Removing interrupt.o(i.IntMasterEnable), (14 bytes).
    Removing interrupt.o(i.IntPendClear), (68 bytes).
    Removing interrupt.o(i.IntPendSet), (84 bytes).
    Removing interrupt.o(i.IntPriorityGet), (28 bytes).
    Removing interrupt.o(i.IntPriorityGroupingGet), (36 bytes).
    Removing interrupt.o(i.IntPriorityGroupingSet), (28 bytes).
    Removing interrupt.o(i.IntPriorityMaskGet), (4 bytes).
    Removing interrupt.o(i.IntPriorityMaskSet), (4 bytes).
    Removing interrupt.o(i.IntPrioritySet), (40 bytes).
    Removing interrupt.o(i.IntTrigger), (12 bytes).
    Removing interrupt.o(i.IntUnregister), (20 bytes).
    Removing interrupt.o(i._IntDefaultHandler), (2 bytes).
    Removing pwm.o(i.PWMClockGet), (26 bytes).
    Removing pwm.o(i.PWMDeadBandDisable), (12 bytes).
    Removing pwm.o(i.PWMDeadBandEnable), (16 bytes).
    Removing pwm.o(i.PWMFaultIntClear), (8 bytes).
    Removing pwm.o(i.PWMFaultIntClearExt), (4 bytes).
    Removing pwm.o(i.PWMFaultIntRegister), (96 bytes).
    Removing pwm.o(i.PWMFaultIntUnregister), (88 bytes).
    Removing pwm.o(i.PWMGenFaultClear), (18 bytes).
    Removing pwm.o(i.PWMGenFaultConfigure), (18 bytes).
    Removing pwm.o(i.PWMGenFaultStatus), (18 bytes).
    Removing pwm.o(i.PWMGenFaultTriggerGet), (12 bytes).
    Removing pwm.o(i.PWMGenFaultTriggerSet), (12 bytes).
    Removing pwm.o(i.PWMGenIntClear), (6 bytes).
    Removing pwm.o(i.PWMGenIntRegister), (26 bytes).
    Removing pwm.o(i.PWMGenIntStatus), (12 bytes).
    Removing pwm.o(i.PWMGenIntTrigDisable), (10 bytes).
    Removing pwm.o(i.PWMGenIntTrigEnable), (10 bytes).
    Removing pwm.o(i.PWMGenIntUnregister), (22 bytes).
    Removing pwm.o(i.PWMIntDisable), (10 bytes).
    Removing pwm.o(i.PWMIntEnable), (8 bytes).
    Removing pwm.o(i.PWMIntStatus), (10 bytes).
    Removing pwm.o(i.PWMOutputFault), (16 bytes).
    Removing pwm.o(i.PWMOutputFaultLevel), (16 bytes).
    Removing pwm.o(i.PWMOutputUpdateMode), (62 bytes).
    Removing pwm.o(i.PWMPulseWidthGet), (32 bytes).
    Removing pwm.o(i.PWMSyncTimeBase), (4 bytes).
    Removing pwm.o(i.PWMSyncUpdate), (4 bytes).
    Removing pwm.o(i._PWMGenIntNumberGet), (224 bytes).
    Removing sysctl.o(i.SysCtlAltClkConfig), (12 bytes).
    Removing sysctl.o(i.SysCtlClockGet), (340 bytes).
    Removing sysctl.o(i.SysCtlClockOutConfig), (20 bytes).
    Removing sysctl.o(i.SysCtlClockSet), (288 bytes).
    Removing sysctl.o(i.SysCtlDeepSleep), (32 bytes).
    Removing sysctl.o(i.SysCtlDeepSleepClockConfigSet), (112 bytes).
    Removing sysctl.o(i.SysCtlDeepSleepClockSet), (12 bytes).
    Removing sysctl.o(i.SysCtlDeepSleepPowerSet), (12 bytes).
    Removing sysctl.o(i.SysCtlFlashSectorSizeGet), (56 bytes).
    Removing sysctl.o(i.SysCtlFlashSizeGet), (56 bytes).
    Removing sysctl.o(i.SysCtlGPIOAHBDisable), (28 bytes).
    Removing sysctl.o(i.SysCtlGPIOAHBEnable), (24 bytes).
    Removing sysctl.o(i.SysCtlIntClear), (12 bytes).
    Removing sysctl.o(i.SysCtlIntDisable), (16 bytes).
    Removing sysctl.o(i.SysCtlIntEnable), (16 bytes).
    Removing sysctl.o(i.SysCtlIntRegister), (20 bytes).
    Removing sysctl.o(i.SysCtlIntStatus), (16 bytes).
    Removing sysctl.o(i.SysCtlIntUnregister), (18 bytes).
    Removing sysctl.o(i.SysCtlLDODeepSleepGet), (12 bytes).
    Removing sysctl.o(i.SysCtlLDODeepSleepSet), (12 bytes).
    Removing sysctl.o(i.SysCtlLDOSleepGet), (12 bytes).
    Removing sysctl.o(i.SysCtlLDOSleepSet), (12 bytes).
    Removing sysctl.o(i.SysCtlMOSCConfigSet), (12 bytes).
    Removing sysctl.o(i.SysCtlNMIClear), (16 bytes).
    Removing sysctl.o(i.SysCtlNMIStatus), (12 bytes).
    Removing sysctl.o(i.SysCtlPIOSCCalibrate), (76 bytes).
    Removing sysctl.o(i.SysCtlPWMClockGet), (24 bytes).
    Removing sysctl.o(i.SysCtlPWMClockSet), (20 bytes).
    Removing sysctl.o(i.SysCtlPeripheralClockGating), (68 bytes).
    Removing sysctl.o(i.SysCtlPeripheralDeepSleepDisable), (40 bytes).
    Removing sysctl.o(i.SysCtlPeripheralDeepSleepEnable), (40 bytes).
    Removing sysctl.o(i.SysCtlPeripheralDisable), (40 bytes).
    Removing sysctl.o(i.SysCtlPeripheralPowerOff), (40 bytes).
    Removing sysctl.o(i.SysCtlPeripheralPowerOn), (40 bytes).
    Removing sysctl.o(i.SysCtlPeripheralPresent), (44 bytes).
    Removing sysctl.o(i.SysCtlPeripheralSleepDisable), (40 bytes).
    Removing sysctl.o(i.SysCtlPeripheralSleepEnable), (40 bytes).
    Removing sysctl.o(i.SysCtlReset), (16 bytes).
    Removing sysctl.o(i.SysCtlResetBehaviorGet), (12 bytes).
    Removing sysctl.o(i.SysCtlResetBehaviorSet), (12 bytes).
    Removing sysctl.o(i.SysCtlResetCauseClear), (16 bytes).
    Removing sysctl.o(i.SysCtlResetCauseGet), (12 bytes).
    Removing sysctl.o(i.SysCtlSRAMSizeGet), (16 bytes).
    Removing sysctl.o(i.SysCtlSleep), (4 bytes).
    Removing sysctl.o(i.SysCtlSleepPowerSet), (12 bytes).
    Removing sysctl.o(i.SysCtlUSBPLLDisable), (16 bytes).
    Removing sysctl.o(i.SysCtlUSBPLLEnable), (16 bytes).
    Removing sysctl.o(i.SysCtlVCOGet), (120 bytes).
    Removing sysctl.o(i.SysCtlVoltageEventClear), (16 bytes).
    Removing sysctl.o(i.SysCtlVoltageEventConfig), (12 bytes).
    Removing sysctl.o(i.SysCtlVoltageEventStatus), (12 bytes).
    Removing timer.o(i.TimerADCEventGet), (4 bytes).
    Removing timer.o(i.TimerADCEventSet), (4 bytes).
    Removing timer.o(i.TimerClockSourceGet), (6 bytes).
    Removing timer.o(i.TimerControlEvent), (18 bytes).
    Removing timer.o(i.TimerControlStall), (22 bytes).
    Removing timer.o(i.TimerControlTrigger), (80 bytes).
    Removing timer.o(i.TimerControlWaitOnTrigger), (48 bytes).
    Removing timer.o(i.TimerDMAEventGet), (4 bytes).
    Removing timer.o(i.TimerDMAEventSet), (4 bytes).
    Removing timer.o(i.TimerDisable), (16 bytes).
    Removing timer.o(i.TimerIntClear), (4 bytes).
    Removing timer.o(i.TimerIntDisable), (10 bytes).
    Removing timer.o(i.TimerIntEnable), (8 bytes).
    Removing timer.o(i.TimerIntRegister), (104 bytes).
    Removing timer.o(i.TimerIntStatus), (10 bytes).
    Removing timer.o(i.TimerIntUnregister), (104 bytes).
    Removing timer.o(i.TimerLoadGet), (10 bytes).
    Removing timer.o(i.TimerLoadGet64), (14 bytes).
    Removing timer.o(i.TimerLoadSet64), (6 bytes).
    Removing timer.o(i.TimerMatchGet), (10 bytes).
    Removing timer.o(i.TimerMatchGet64), (14 bytes).
    Removing timer.o(i.TimerMatchSet64), (6 bytes).
    Removing timer.o(i.TimerPrescaleGet), (10 bytes).
    Removing timer.o(i.TimerPrescaleMatchGet), (10 bytes).
    Removing timer.o(i.TimerPrescaleMatchSet), (18 bytes).
    Removing timer.o(i.TimerRTCDisable), (10 bytes).
    Removing timer.o(i.TimerRTCEnable), (10 bytes).
    Removing timer.o(i.TimerSynchronize), (4 bytes).
    Removing timer.o(i.TimerValueGet), (10 bytes).
    Removing timer.o(i.TimerValueGet64), (14 bytes).
    Removing timer.o(.constdata), (160 bytes).
    Removing context.o(i.GrContextClipRegionSet), (112 bytes).
    Removing context.o(i.GrLibInit), (12 bytes).
    Removing rectangle.o(i.GrRectDraw), (108 bytes).
    Removing rectangle.o(i.GrRectIntersectGet), (140 bytes).
    Removing rectangle.o(i.GrRectOverlapCheck), (56 bytes).
    Removing string.o(i.GrCodepageMapTableSet), (10 bytes).
    Removing string.o(i.GrFontBlockCodepointsGet), (84 bytes).
    Removing string.o(i.GrFontCodepageGet), (32 bytes).
    Removing string.o(i.GrFontHeightGet), (44 bytes).
    Removing string.o(i.GrFontInfoGet), (48 bytes).
    Removing string.o(i.GrFontMaxWidthGet), (44 bytes).
    Removing string.o(i.GrFontNumBlocksGet), (32 bytes).
    Removing string.o(i.GrStringCodepageSet), (6 bytes).
    Removing string.o(i.GrStringGet), (596 bytes).
    Removing string.o(i.GrStringLanguageSet), (48 bytes).
    Removing string.o(i.GrStringNextCharGet), (52 bytes).
    Removing string.o(i.GrStringTableSet), (36 bytes).
    Removing string.o(.data), (20 bytes).
    Removing rt_cmsis.o(.rev16_text), (4 bytes).
    Removing rt_cmsis.o(.revsh_text), (4 bytes).
    Removing rt_cmsis.o(.rrx_text), (6 bytes).
    Removing rt_cmsis.o(i.isrSemaphoreRelease), (40 bytes).
    Removing rt_cmsis.o(i.osKernelRunning), (36 bytes).
    Removing rt_cmsis.o(i.osKernelSysTick), (24 bytes).
    Removing rt_cmsis.o(i.osMailAlloc), (28 bytes).
    Removing rt_cmsis.o(i.osMailCAlloc), (48 bytes).
    Removing rt_cmsis.o(i.osMailCreate), (44 bytes).
    Removing rt_cmsis.o(i.osMailFree), (28 bytes).
    Removing rt_cmsis.o(i.osMailGet), (22 bytes).
    Removing rt_cmsis.o(i.osMailPut), (20 bytes).
    Removing rt_cmsis.o(i.osMessageCreate), (44 bytes).
    Removing rt_cmsis.o(i.osMessagePut), (24 bytes).
    Removing rt_cmsis.o(i.osMutexCreate), (44 bytes).
    Removing rt_cmsis.o(i.osMutexDelete), (24 bytes).
    Removing rt_cmsis.o(i.osMutexRelease), (24 bytes).
    Removing rt_cmsis.o(i.osMutexWait), (24 bytes).
    Removing rt_cmsis.o(i.osPoolAlloc), (32 bytes).
    Removing rt_cmsis.o(i.osPoolCAlloc), (52 bytes).
    Removing rt_cmsis.o(i.osPoolCreate), (44 bytes).
    Removing rt_cmsis.o(i.osPoolFree), (32 bytes).
    Removing rt_cmsis.o(i.osSemaphoreCreate), (44 bytes).
    Removing rt_cmsis.o(i.osSemaphoreDelete), (24 bytes).
    Removing rt_cmsis.o(i.osSemaphoreRelease), (24 bytes).
    Removing rt_cmsis.o(i.osSemaphoreWait), (24 bytes).
    Removing rt_cmsis.o(i.osSignalClear), (24 bytes).
    Removing rt_cmsis.o(i.osThreadGetId), (24 bytes).
    Removing rt_cmsis.o(i.osThreadGetPriority), (24 bytes).
    Removing rt_cmsis.o(i.osThreadSetPriority), (24 bytes).
    Removing rt_cmsis.o(i.osThreadTerminate), (24 bytes).
    Removing rt_cmsis.o(i.osThreadYield), (24 bytes).
    Removing rt_cmsis.o(i.osTimerCreate), (44 bytes).
    Removing rt_cmsis.o(i.osTimerDelete), (24 bytes).
    Removing rt_cmsis.o(i.osTimerStart), (24 bytes).
    Removing rt_cmsis.o(i.osTimerStop), (24 bytes).
    Removing rt_cmsis.o(i.osWait), (4 bytes).
    Removing rt_cmsis.o(i.os_resume), (12 bytes).
    Removing rt_cmsis.o(i.os_suspend), (12 bytes).
    Removing rt_cmsis.o(i.rt_clr_box), (24 bytes).
    Removing rt_cmsis.o(i.rt_timer_remove), (60 bytes).
    Removing rt_cmsis.o(i.svcKernelRunning), (12 bytes).
    Removing rt_cmsis.o(i.svcKernelSysTick), (56 bytes).
    Removing rt_cmsis.o(i.svcMailCreate), (66 bytes).
    Removing rt_cmsis.o(i.svcMessagePut), (54 bytes).
    Removing rt_cmsis.o(i.svcMutexCreate), (28 bytes).
    Removing rt_cmsis.o(i.svcMutexDelete), (26 bytes).
    Removing rt_cmsis.o(i.svcMutexRelease), (34 bytes).
    Removing rt_cmsis.o(i.svcMutexWait), (58 bytes).
    Removing rt_cmsis.o(i.svcPoolCreate), (40 bytes).
    Removing rt_cmsis.o(i.svcSemaphoreCreate), (36 bytes).
    Removing rt_cmsis.o(i.svcSemaphoreDelete), (26 bytes).
    Removing rt_cmsis.o(i.svcSemaphoreRelease), (40 bytes).
    Removing rt_cmsis.o(i.svcSemaphoreWait), (50 bytes).
    Removing rt_cmsis.o(i.svcSignalClear), (36 bytes).
    Removing rt_cmsis.o(i.svcThreadGetPriority), (18 bytes).
    Removing rt_cmsis.o(i.svcThreadSetPriority), (46 bytes).
    Removing rt_cmsis.o(i.svcThreadYield), (10 bytes).
    Removing rt_cmsis.o(i.svcTimerCreate), (56 bytes).
    Removing rt_cmsis.o(i.svcTimerDelete), (40 bytes).
    Removing rt_cmsis.o(i.svcTimerStart), (100 bytes).
    Removing rt_cmsis.o(i.svcTimerStop), (36 bytes).
    Removing rt_cmsis.o(i.sysMailAlloc), (88 bytes).
    Removing rt_cmsis.o(i.sysMailFree), (96 bytes).
    Removing rt_cmsis.o(i.sysPoolAlloc), (10 bytes).
    Removing rt_cmsis.o(i.sysPoolFree), (20 bytes).
    Removing rt_cmsis.o(i.sysUserTimerUpdate), (48 bytes).
    Removing rt_cmsis.o(i.sysUserTimerWakeupTime), (20 bytes).
    Removing rt_task.o(i.rt_tsk_pass), (48 bytes).
    Removing rt_mutex.o(i.rt_mut_delete), (176 bytes).
    Removing cpu.o(.emb_text), (38 bytes).
    Removing charmap.o(i.GrMapISO8859_10_Unicode), (32 bytes).
    Removing charmap.o(i.GrMapISO8859_11_Unicode), (16 bytes).
    Removing charmap.o(i.GrMapISO8859_13_Unicode), (32 bytes).
    Removing charmap.o(i.GrMapISO8859_14_Unicode), (96 bytes).
    Removing charmap.o(i.GrMapISO8859_15_Unicode), (88 bytes).
    Removing charmap.o(i.GrMapISO8859_16_Unicode), (32 bytes).
    Removing charmap.o(i.GrMapISO8859_2_Unicode), (32 bytes).
    Removing charmap.o(i.GrMapISO8859_3_Unicode), (32 bytes).
    Removing charmap.o(i.GrMapISO8859_4_Unicode), (32 bytes).
    Removing charmap.o(i.GrMapISO8859_5_Unicode), (16 bytes).
    Removing charmap.o(i.GrMapISO8859_6_Unicode), (22 bytes).
    Removing charmap.o(i.GrMapISO8859_7_Unicode), (44 bytes).
    Removing charmap.o(i.GrMapISO8859_8_Unicode), (38 bytes).
    Removing charmap.o(i.GrMapISO8859_9_Unicode), (68 bytes).
    Removing charmap.o(i.GrMapUTF16BE_Unicode), (6 bytes).
    Removing charmap.o(i.GrMapUTF16LE_Unicode), (6 bytes).
    Removing charmap.o(i.GrMapUTF16_Unicode), (120 bytes).
    Removing charmap.o(i.GrMapUTF8_Unicode), (146 bytes).
    Removing charmap.o(i.GrMapUnicode_Unicode), (22 bytes).
    Removing charmap.o(i.GrMapWIN1250_Unicode), (32 bytes).
    Removing charmap.o(i.GrMapWIN1251_Unicode), (48 bytes).
    Removing charmap.o(i.GrMapWIN1252_Unicode), (40 bytes).
    Removing charmap.o(i.GrMapWIN1253_Unicode), (48 bytes).
    Removing charmap.o(i.GrMapWIN1254_Unicode), (96 bytes).
    Removing charmap.o(.constdata), (1900 bytes).
    Removing line.o(i.GrLineDraw), (638 bytes).
    Removing line.o(i.GrLineDrawH), (76 bytes).
    Removing line.o(i.GrLineDrawV), (76 bytes).
    Removing rt_system.o(.emb_text), (0 bytes).
    Removing rt_system.o(i.os_tick_ovf), (16 bytes).
    Removing rt_system.o(i.os_tick_val), (20 bytes).
    Removing rt_system.o(i.rt_resume), (136 bytes).
    Removing rt_system.o(i.rt_suspend), (36 bytes).
    Removing rt_system.o(i.rt_tsk_lock), (80 bytes).
    Removing rt_system.o(i.rt_tsk_unlock), (80 bytes).
    Removing rt_event.o(i.rt_evt_clr), (28 bytes).
    Removing rt_event.o(i.rt_evt_get), (12 bytes).
    Removing rt_list.o(i.rt_get_same_rdy_prio), (36 bytes).
    Removing rt_mailbox.o(i.rt_mbx_send), (152 bytes).
    Removing rt_semaphore.o(i.isr_sem_send), (16 bytes).
    Removing rt_semaphore.o(i.rt_sem_delete), (92 bytes).
    Removing rt_semaphore.o(i.rt_sem_init), (12 bytes).
    Removing rt_semaphore.o(i.rt_sem_send), (42 bytes).
    Removing rt_semaphore.o(i.rt_sem_wait), (64 bytes).
    Removing rt_time.o(i.rt_itv_set), (24 bytes).
    Removing rt_time.o(i.rt_itv_wait), (40 bytes).
    Removing rt_time.o(i.rt_time_get), (12 bytes).
    Removing rt_membox.o(i._calloc_box), (30 bytes).
    Removing rt_robin.o(i.rt_chk_robin), (72 bytes).
    Removing rt_robin.o(i.rt_init_robin), (24 bytes).
    Removing rt_robin.o(.data), (8 bytes).

388 unused section(s) (total 16345 bytes) removed from the image.

==============================================================================

Image Symbol Table

    Local Symbols

    Symbol Name                              Value     Ov Type        Size  Object(Section)

    RESET                                    0x00000000   Section      512  startup_tm4c129.o(RESET)
    ../clib/angel/boardlib.s                 0x00000000   Number         0  boardshut.o ABSOLUTE
    ../clib/angel/boardlib.s                 0x00000000   Number         0  boardinit2.o ABSOLUTE
    ../clib/angel/boardlib.s                 0x00000000   Number         0  boardinit1.o ABSOLUTE
    ../clib/angel/dczerorl.s                 0x00000000   Number         0  __dczerorl.o ABSOLUTE
    ../clib/angel/handlers.s                 0x00000000   Number         0  __scatter_zi.o ABSOLUTE
    ../clib/angel/kernel.s                   0x00000000   Number         0  rtexit2.o ABSOLUTE
    ../clib/angel/kernel.s                   0x00000000   Number         0  __rtentry4.o ABSOLUTE
    ../clib/angel/kernel.s                   0x00000000   Number         0  __rtentry2.o ABSOLUTE
    ../clib/angel/kernel.s                   0x00000000   Number         0  rtexit.o ABSOLUTE
    ../clib/angel/kernel.s                   0x00000000   Number         0  __rtentry.o ABSOLUTE
    ../clib/angel/rt.s                       0x00000000   Number         0  rt_raise.o ABSOLUTE
    ../clib/angel/rt.s                       0x00000000   Number         0  aeabi_ldiv0.o ABSOLUTE
    ../clib/angel/rt.s                       0x00000000   Number         0  rt_div0.o ABSOLUTE
    ../clib/angel/rt.s                       0x00000000   Number         0  aeabi_ldiv0_sigfpe.o ABSOLUTE
    ../clib/angel/scatter.s                  0x00000000   Number         0  __scatter.o ABSOLUTE
    ../clib/angel/startup.s                  0x00000000   Number         0  __main.o ABSOLUTE
    ../clib/angel/sys.s                      0x00000000   Number         0  libspace.o ABSOLUTE
    ../clib/angel/sys.s                      0x00000000   Number         0  indicate_semi.o ABSOLUTE
    ../clib/angel/sys.s                      0x00000000   Number         0  sys_stackheap_outer.o ABSOLUTE
    ../clib/angel/sys.s                      0x00000000   Number         0  use_no_semi.o ABSOLUTE
    ../clib/angel/sysapp.c                   0x00000000   Number         0  sys_wrch.o ABSOLUTE
    ../clib/angel/sysapp.c                   0x00000000   Number         0  sys_exit.o ABSOLUTE
    ../clib/angel/sysapp.c                   0x00000000   Number         0  sys_command.o ABSOLUTE
    ../clib/armsys.c                         0x00000000   Number         0  no_argv.o ABSOLUTE
    ../clib/armsys.c                         0x00000000   Number         0  _get_argv_nomalloc.o ABSOLUTE
    ../clib/armsys.c                         0x00000000   Number         0  argv_veneer.o ABSOLUTE
    ../clib/armsys.c                         0x00000000   Number         0  argv_veneer.o ABSOLUTE
    ../clib/heapalloc.c                      0x00000000   Number         0  hrguard.o ABSOLUTE
    ../clib/heapaux.c                        0x00000000   Number         0  heapauxi.o ABSOLUTE
    ../clib/libinit.s                        0x00000000   Number         0  libshutdown2.o ABSOLUTE
    ../clib/libinit.s                        0x00000000   Number         0  libinit2.o ABSOLUTE
    ../clib/libinit.s                        0x00000000   Number         0  libinit.o ABSOLUTE
    ../clib/libinit.s                        0x00000000   Number         0  libshutdown.o ABSOLUTE
    ../clib/longlong.s                       0x00000000   Number         0  lludivv7m.o ABSOLUTE
    ../clib/longlong.s                       0x00000000   Number         0  llsdiv.o ABSOLUTE
    ../clib/memcpset.s                       0x00000000   Number         0  strcmpv7m.o ABSOLUTE
    ../clib/signal.c                         0x00000000   Number         0  defsig_pvfn_inner.o ABSOLUTE
    ../clib/signal.c                         0x00000000   Number         0  defsig_stak_inner.o ABSOLUTE
    ../clib/signal.c                         0x00000000   Number         0  defsig_rtmem_formal.o ABSOLUTE
    ../clib/signal.c                         0x00000000   Number         0  defsig_rtmem_outer.o ABSOLUTE
    ../clib/signal.c                         0x00000000   Number         0  defsig_rtmem_inner.o ABSOLUTE
    ../clib/signal.c                         0x00000000   Number         0  defsig_rtred_inner.o ABSOLUTE
    ../clib/signal.c                         0x00000000   Number         0  defsig_abrt_inner.o ABSOLUTE
    ../clib/signal.c                         0x00000000   Number         0  defsig_fpe_inner.o ABSOLUTE
    ../clib/signal.c                         0x00000000   Number         0  defsig_general.o ABSOLUTE
    ../clib/signal.c                         0x00000000   Number         0  __raise.o ABSOLUTE
    ../clib/signal.c                         0x00000000   Number         0  defsig_exit.o ABSOLUTE
    ../clib/signal.c                         0x00000000   Number         0  defsig_fpe_formal.o ABSOLUTE
    ../clib/signal.c                         0x00000000   Number         0  defsig_fpe_outer.o ABSOLUTE
    ../clib/signal.c                         0x00000000   Number         0  defsig_other.o ABSOLUTE
    ../clib/signal.c                         0x00000000   Number         0  defsig_segv_inner.o ABSOLUTE
    ../clib/signal.c                         0x00000000   Number         0  defsig_cppl_inner.o ABSOLUTE
    ../clib/signal.s                         0x00000000   Number         0  defsig.o ABSOLUTE
    ../clib/stdlib.c                         0x00000000   Number         0  exit.o ABSOLUTE
    ../fplib/fpinit.s                        0x00000000   Number         0  fpinit.o ABSOLUTE
    ..\HAL_CM.c                              0x00000000   Number         0  hal_cm.o ABSOLUTE
    ..\\rt_CMSIS.c                           0x00000000   Number         0  rt_cmsis.o ABSOLUTE
    ..\\rt_System.c                          0x00000000   Number         0  rt_system.o ABSOLUTE
    ..\rt_CMSIS.c                            0x00000000   Number         0  rt_cmsis.o ABSOLUTE
    ..\rt_Event.c                            0x00000000   Number         0  rt_event.o ABSOLUTE
    ..\rt_List.c                             0x00000000   Number         0  rt_list.o ABSOLUTE
    ..\rt_Mailbox.c                          0x00000000   Number         0  rt_mailbox.o ABSOLUTE
    ..\rt_MemBox.c                           0x00000000   Number         0  rt_membox.o ABSOLUTE
    ..\rt_Memory.c                           0x00000000   Number         0  rt_memory.o ABSOLUTE
    ..\rt_Mutex.c                            0x00000000   Number         0  rt_mutex.o ABSOLUTE
    ..\rt_Robin.c                            0x00000000   Number         0  rt_robin.o ABSOLUTE
    ..\rt_Semaphore.c                        0x00000000   Number         0  rt_semaphore.o ABSOLUTE
    ..\rt_System.c                           0x00000000   Number         0  rt_system.o ABSOLUTE
    ..\rt_Task.c                             0x00000000   Number         0  rt_task.o ABSOLUTE
    ..\rt_Time.c                             0x00000000   Number         0  rt_time.o ABSOLUTE
    Blinky.c                                 0x00000000   Number         0  blinky.o ABSOLUTE
    Blinky.c                                 0x00000000   Number         0  blinky.o ABSOLUTE
    C:\Keil_v5\ARM\PACK\Keil\ARM_Compiler\1.3.1\Source\retarget_io.c 0x00000000   Number         0  retarget_io.o ABSOLUTE
    HAL_CM4.c                                0x00000000   Number         0  hal_cm4.o ABSOLUTE
    HAL_CM4.c                                0x00000000   Number         0  hal_cm4.o ABSOLUTE
    RTE\CMSIS\RTX_Conf_CM.c                  0x00000000   Number         0  rtx_conf_cm.o ABSOLUTE
    RTE\Device\TM4C1294NCPDT\startup_TM4C129.s 0x00000000   Number         0  startup_tm4c129.o ABSOLUTE
    RTE\Device\TM4C1294NCPDT\system_TM4C129.c 0x00000000   Number         0  system_tm4c129.o ABSOLUTE
    RTE\\CMSIS\\RTX_Conf_CM.c                0x00000000   Number         0  rtx_conf_cm.o ABSOLUTE
    RTE\\Device\\TM4C1294NCPDT\\system_TM4C129.c 0x00000000   Number         0  system_tm4c129.o ABSOLUTE
    SVC_Table.s                              0x00000000   Number         0  svc_table.o ABSOLUTE
    accel.c                                  0x00000000   Number         0  accel.o ABSOLUTE
    adc.c                                    0x00000000   Number         0  adc.o ABSOLUTE
    buttons.c                                0x00000000   Number         0  buttons.o ABSOLUTE
    buzzer.c                                 0x00000000   Number         0  buzzer.o ABSOLUTE
    cfaf128x128x16.c                         0x00000000   Number         0  cfaf128x128x16.o ABSOLUTE
    charmap.c                                0x00000000   Number         0  charmap.o ABSOLUTE
    context.c                                0x00000000   Number         0  context.o ABSOLUTE
    cpu.c                                    0x00000000   Number         0  cpu.o ABSOLUTE
    cpu.c                                    0x00000000   Number         0  cpu.o ABSOLUTE
    dc.s                                     0x00000000   Number         0  dc.o ABSOLUTE
    fonts\fontfixed6x8.c                     0x00000000   Number         0  fontfixed6x8.o ABSOLUTE
    gpio.c                                   0x00000000   Number         0  gpio.o ABSOLUTE
    i2c.c                                    0x00000000   Number         0  i2c.o ABSOLUTE
    interrupt.c                              0x00000000   Number         0  interrupt.o ABSOLUTE
    joy.c                                    0x00000000   Number         0  joy.o ABSOLUTE
    led.c                                    0x00000000   Number         0  led.o ABSOLUTE
    led.c                                    0x00000000   Number         0  led.o ABSOLUTE
    line.c                                   0x00000000   Number         0  line.o ABSOLUTE
    mic.c                                    0x00000000   Number         0  mic.o ABSOLUTE
    opt.c                                    0x00000000   Number         0  opt.o ABSOLUTE
    pwm.c                                    0x00000000   Number         0  pwm.o ABSOLUTE
    rectangle.c                              0x00000000   Number         0  rectangle.o ABSOLUTE
    rgb.c                                    0x00000000   Number         0  rgb.o ABSOLUTE
    servo.c                                  0x00000000   Number         0  servo.o ABSOLUTE
    string.c                                 0x00000000   Number         0  string.o ABSOLUTE
    sysctl.c                                 0x00000000   Number         0  sysctl.o ABSOLUTE
    sysctl.c                                 0x00000000   Number         0  sysctl.o ABSOLUTE
    temp.c                                   0x00000000   Number         0  temp.o ABSOLUTE
    timer.c                                  0x00000000   Number         0  timer.o ABSOLUTE
    !!!main                                  0x00000200   Section        8  __main.o(!!!main)
    !!!scatter                               0x00000208   Section       52  __scatter.o(!!!scatter)
    !!dczerorl                               0x0000023c   Section       58  __dczerorl.o(!!dczerorl)
    !!handler_zi                             0x00000278   Section       28  __scatter_zi.o(!!handler_zi)
    .ARM.Collect$$libinit$$00000000          0x00000294   Section        2  libinit.o(.ARM.Collect$$libinit$$00000000)
    .ARM.Collect$$libinit$$00000001          0x00000296   Section        4  libinit2.o(.ARM.Collect$$libinit$$00000001)
    .ARM.Collect$$libinit$$00000004          0x0000029a   Section        0  libinit2.o(.ARM.Collect$$libinit$$00000004)
    .ARM.Collect$$libinit$$0000000A          0x0000029a   Section        0  libinit2.o(.ARM.Collect$$libinit$$0000000A)
    .ARM.Collect$$libinit$$0000000C          0x0000029a   Section        0  libinit2.o(.ARM.Collect$$libinit$$0000000C)
    .ARM.Collect$$libinit$$0000000E          0x0000029a   Section        0  libinit2.o(.ARM.Collect$$libinit$$0000000E)
    .ARM.Collect$$libinit$$00000011          0x0000029a   Section        0  libinit2.o(.ARM.Collect$$libinit$$00000011)
    .ARM.Collect$$libinit$$00000013          0x0000029a   Section        0  libinit2.o(.ARM.Collect$$libinit$$00000013)
    .ARM.Collect$$libinit$$00000015          0x0000029a   Section        0  libinit2.o(.ARM.Collect$$libinit$$00000015)
    .ARM.Collect$$libinit$$00000017          0x0000029a   Section        0  libinit2.o(.ARM.Collect$$libinit$$00000017)
    .ARM.Collect$$libinit$$00000019          0x0000029a   Section        0  libinit2.o(.ARM.Collect$$libinit$$00000019)
    .ARM.Collect$$libinit$$0000001B          0x0000029a   Section        0  libinit2.o(.ARM.Collect$$libinit$$0000001B)
    .ARM.Collect$$libinit$$0000001D          0x0000029a   Section        0  libinit2.o(.ARM.Collect$$libinit$$0000001D)
    .ARM.Collect$$libinit$$0000001F          0x0000029a   Section        0  libinit2.o(.ARM.Collect$$libinit$$0000001F)
    .ARM.Collect$$libinit$$00000021          0x0000029a   Section        0  libinit2.o(.ARM.Collect$$libinit$$00000021)
    .ARM.Collect$$libinit$$00000023          0x0000029a   Section        0  libinit2.o(.ARM.Collect$$libinit$$00000023)
    .ARM.Collect$$libinit$$00000025          0x0000029a   Section        0  libinit2.o(.ARM.Collect$$libinit$$00000025)
    .ARM.Collect$$libinit$$0000002C          0x0000029a   Section        0  libinit2.o(.ARM.Collect$$libinit$$0000002C)
    .ARM.Collect$$libinit$$0000002E          0x0000029a   Section        0  libinit2.o(.ARM.Collect$$libinit$$0000002E)
    .ARM.Collect$$libinit$$00000030          0x0000029a   Section        0  libinit2.o(.ARM.Collect$$libinit$$00000030)
    .ARM.Collect$$libinit$$00000032          0x0000029a   Section        0  libinit2.o(.ARM.Collect$$libinit$$00000032)
    .ARM.Collect$$libinit$$00000033          0x0000029a   Section        2  libinit2.o(.ARM.Collect$$libinit$$00000033)
    .ARM.Collect$$libshutdown$$00000000      0x0000029c   Section        2  libshutdown.o(.ARM.Collect$$libshutdown$$00000000)
    .ARM.Collect$$libshutdown$$00000002      0x0000029e   Section        0  libshutdown2.o(.ARM.Collect$$libshutdown$$00000002)
    .ARM.Collect$$libshutdown$$00000004      0x0000029e   Section        0  libshutdown2.o(.ARM.Collect$$libshutdown$$00000004)
    .ARM.Collect$$libshutdown$$00000007      0x0000029e   Section        0  libshutdown2.o(.ARM.Collect$$libshutdown$$00000007)
    .ARM.Collect$$libshutdown$$0000000A      0x0000029e   Section        0  libshutdown2.o(.ARM.Collect$$libshutdown$$0000000A)
    .ARM.Collect$$libshutdown$$0000000C      0x0000029e   Section        0  libshutdown2.o(.ARM.Collect$$libshutdown$$0000000C)
    .ARM.Collect$$libshutdown$$0000000F      0x0000029e   Section        0  libshutdown2.o(.ARM.Collect$$libshutdown$$0000000F)
    .ARM.Collect$$libshutdown$$00000010      0x0000029e   Section        2  libshutdown2.o(.ARM.Collect$$libshutdown$$00000010)
    .ARM.Collect$$rtentry$$00000000          0x000002a0   Section        0  __rtentry.o(.ARM.Collect$$rtentry$$00000000)
    .ARM.Collect$$rtentry$$00000002          0x000002a0   Section        0  __rtentry2.o(.ARM.Collect$$rtentry$$00000002)
    .ARM.Collect$$rtentry$$00000004          0x000002a0   Section        6  __rtentry4.o(.ARM.Collect$$rtentry$$00000004)
    .ARM.Collect$$rtentry$$00000009          0x000002a6   Section        0  __rtentry2.o(.ARM.Collect$$rtentry$$00000009)
    .ARM.Collect$$rtentry$$0000000A          0x000002a6   Section        4  __rtentry2.o(.ARM.Collect$$rtentry$$0000000A)
    .ARM.Collect$$rtentry$$0000000B          0x000002aa   Section        8  __rtentry2.o(.ARM.Collect$$rtentry$$0000000B)
    .ARM.Collect$$rtentry$$0000000D          0x000002b2   Section        8  __rtentry2.o(.ARM.Collect$$rtentry$$0000000D)
    .ARM.Collect$$rtexit$$00000000           0x000002ba   Section        2  rtexit.o(.ARM.Collect$$rtexit$$00000000)
    .ARM.Collect$$rtexit$$00000002           0x000002bc   Section        0  rtexit2.o(.ARM.Collect$$rtexit$$00000002)
    .ARM.Collect$$rtexit$$00000003           0x000002bc   Section        4  rtexit2.o(.ARM.Collect$$rtexit$$00000003)
    .ARM.Collect$$rtexit$$00000004           0x000002c0   Section        6  rtexit2.o(.ARM.Collect$$rtexit$$00000004)
    .emb_text                                0x000002c8   Section       28  rtx_conf_cm.o(.emb_text)
    $v0                                      0x000002c8   Number         0  rtx_conf_cm.o(.emb_text)
    .emb_text                                0x000002e4   Section        6  sysctl.o(.emb_text)
    $v0                                      0x000002e4   Number         0  sysctl.o(.emb_text)
    .emb_text                                0x000002ec   Section      408  hal_cm4.o(.emb_text)
    $v0                                      0x000002ec   Number         0  hal_cm4.o(.emb_text)
    .text                                    0x00000484   Section        0  blinky.o(.text)
    intToString                              0x00000485   Thumb Code   196  blinky.o(.text)
    .text                                    0x00000e64   Section        0  buzzer.o(.text)
    buzzer_div_set                           0x00000e65   Thumb Code   106  buzzer.o(.text)
    .text                                    0x00000fec   Section        0  accel.o(.text)
    analog_read                              0x00000ffd   Thumb Code   106  accel.o(.text)
    .text                                    0x000010a0   Section        0  buttons.o(.text)
    .text                                    0x000010f8   Section        0  cfaf128x128x16.o(.text)
    swap_ui16                                0x000010f9   Thumb Code    10  cfaf128x128x16.o(.text)
    swap_i32                                 0x00001103   Thumb Code    10  cfaf128x128x16.o(.text)
    cfaf128x128x16SsiTransfer                0x0000110d   Thumb Code    56  cfaf128x128x16.o(.text)
    cfaf128x128x16WriteCommand               0x00001145   Thumb Code    60  cfaf128x128x16.o(.text)
    cfaf128x128x16WriteData                  0x00001181   Thumb Code    74  cfaf128x128x16.o(.text)
    cfaf128x128x16WriteRegister              0x000011cb   Thumb Code    20  cfaf128x128x16.o(.text)
    cfaf128x128x16SetWindow                  0x000011df   Thumb Code   206  cfaf128x128x16.o(.text)
    cfaf128x128x16PixelDraw                  0x0000139d   Thumb Code    28  cfaf128x128x16.o(.text)
    cfaf128x128x16PixelDrawMultiple          0x000013b9   Thumb Code   490  cfaf128x128x16.o(.text)
    cfaf128x128x16LineDrawH                  0x000015a3   Thumb Code    48  cfaf128x128x16.o(.text)
    cfaf128x128x16LineDrawV                  0x000015d3   Thumb Code    48  cfaf128x128x16.o(.text)
    cfaf128x128x16RectFill                   0x00001603   Thumb Code   100  cfaf128x128x16.o(.text)
    cfaf128x128x16ColorTranslate             0x00001667   Thumb Code    24  cfaf128x128x16.o(.text)
    cfaf128x128x16Flush                      0x0000167f   Thumb Code     2  cfaf128x128x16.o(.text)
    ssiSetDataMode                           0x000016f9   Thumb Code    22  cfaf128x128x16.o(.text)
    ssiSetClockDivider                       0x0000170f   Thumb Code     6  cfaf128x128x16.o(.text)
    .text                                    0x00001998   Section        0  led.o(.text)
    .text                                    0x00001b1c   Section        0  joy.o(.text)
    analog_read                              0x00001b4b   Thumb Code   106  joy.o(.text)
    .text                                    0x00001bf8   Section        0  mic.o(.text)
    analog_read                              0x00001c09   Thumb Code   106  mic.o(.text)
    .text                                    0x00001c90   Section        0  opt.o(.text)
    send_single                              0x00001c91   Thumb Code   114  opt.o(.text)
    receive_single                           0x00001d03   Thumb Code   128  opt.o(.text)
    send_multiple                            0x00001d83   Thumb Code   402  opt.o(.text)
    receive_multiple                         0x00001f15   Thumb Code   418  opt.o(.text)
    write_reg                                0x000020b7   Thumb Code    42  opt.o(.text)
    read_reg                                 0x000020e1   Thumb Code    54  opt.o(.text)
    temp_int_callback                        0x00002123   Thumb Code    24  opt.o(.text)
    .text                                    0x000022cc   Section        0  rgb.o(.text)
    .text                                    0x00002550   Section        0  servo.o(.text)
    .text                                    0x00002654   Section        0  temp.o(.text)
    send_single                              0x00002655   Thumb Code   114  temp.o(.text)
    receive_single                           0x000026c7   Thumb Code   128  temp.o(.text)
    send_multiple                            0x00002747   Thumb Code   402  temp.o(.text)
    receive_multiple                         0x000028d9   Thumb Code   418  temp.o(.text)
    write_reg                                0x00002a7b   Thumb Code    42  temp.o(.text)
    read_reg                                 0x00002aa5   Thumb Code    54  temp.o(.text)
    temp_int_callback                        0x00002af3   Thumb Code    24  temp.o(.text)
    .text                                    0x00002c2c   Section        0  rtx_conf_cm.o(.text)
    __tagsym$$used                           0x00002c97   Number         0  rtx_conf_cm.o(.text)
    __tagsym$$used                           0x00002cad   Number         0  rtx_conf_cm.o(.text)
    .text                                    0x00002cdc   Section      300  startup_tm4c129.o(.text)
    $v0                                      0x00002cdc   Number         0  startup_tm4c129.o(.text)
    .text                                    0x00002e08   Section        0  system_tm4c129.o(.text)
    .text                                    0x00002e30   Section        8  libspace.o(.text)
    .text                                    0x00002e38   Section      238  lludivv7m.o(.text)
    .text                                    0x00002f26   Section       72  llsdiv.o(.text)
    .text                                    0x00002f6e   Section        0  exit.o(.text)
    .text                                    0x00002f80   Section        0  heapauxi.o(.text)
    .text                                    0x00002f88   Section        0  sys_exit.o(.text)
    .text                                    0x00002f94   Section       74  sys_stackheap_outer.o(.text)
    .text                                    0x00002fde   Section        2  use_no_semi.o(.text)
    .text                                    0x00002fe0   Section        0  indicate_semi.o(.text)
    SVC_TABLE                                0x00002fe0   Section        4  svc_table.o(SVC_TABLE)
    i.ADCIntClear                            0x00002fe4   Section        0  adc.o(i.ADCIntClear)
    i.ADCIntStatus                           0x00002fee   Section        0  adc.o(i.ADCIntStatus)
    i.ADCProcessorTrigger                    0x00003022   Section        0  adc.o(i.ADCProcessorTrigger)
    i.ADCSequenceConfigure                   0x0000303c   Section        0  adc.o(i.ADCSequenceConfigure)
    i.ADCSequenceDataGet                     0x0000309c   Section        0  adc.o(i.ADCSequenceDataGet)
    i.ADCSequenceEnable                      0x000030c0   Section        0  adc.o(i.ADCSequenceEnable)
    i.ADCSequenceStepConfigure               0x000030ce   Section        0  adc.o(i.ADCSequenceStepConfigure)
    i.GPIODirModeSet                         0x00003168   Section        0  gpio.o(i.GPIODirModeSet)
    i.GPIOPadConfigSet                       0x00003190   Section        0  gpio.o(i.GPIOPadConfigSet)
    i.GPIOPinConfigure                       0x000032c8   Section        0  gpio.o(i.GPIOPinConfigure)
    i.GPIOPinRead                            0x0000330c   Section        0  gpio.o(i.GPIOPinRead)
    i.GPIOPinTypeADC                         0x00003312   Section        0  gpio.o(i.GPIOPinTypeADC)
    i.GPIOPinTypeGPIOInput                   0x0000332e   Section        0  gpio.o(i.GPIOPinTypeGPIOInput)
    i.GPIOPinTypeI2C                         0x0000334a   Section        0  gpio.o(i.GPIOPinTypeI2C)
    i.GPIOPinTypeI2CSCL                      0x00003366   Section        0  gpio.o(i.GPIOPinTypeI2CSCL)
    i.GPIOPinTypePWM                         0x00003382   Section        0  gpio.o(i.GPIOPinTypePWM)
    i.GPIOPinTypeTimer                       0x0000339e   Section        0  gpio.o(i.GPIOPinTypeTimer)
    i.GrContextFontSet                       0x000033ba   Section        0  string.o(i.GrContextFontSet)
    i.GrContextInit                          0x000033c0   Section        0  context.o(i.GrContextInit)
    i.GrDefaultStringRenderer                0x00003424   Section        0  string.o(i.GrDefaultStringRenderer)
    i.GrFontBaselineGet                      0x0000353c   Section        0  string.o(i.GrFontBaselineGet)
    i.GrFontGlyphDataGet                     0x00003568   Section        0  string.o(i.GrFontGlyphDataGet)
    i.GrFontGlyphRender                      0x0000360e   Section        0  string.o(i.GrFontGlyphRender)
    i.GrMapISO8859_1_Unicode                 0x00003896   Section        0  charmap.o(i.GrMapISO8859_1_Unicode)
    i.GrRectFill                             0x0000389e   Section        0  rectangle.o(i.GrRectFill)
    i.GrStringDraw                           0x00003952   Section        0  string.o(i.GrStringDraw)
    i.GrStringWidthGet                       0x00003972   Section        0  string.o(i.GrStringWidthGet)
    i.I2CIntRegister                         0x00003a34   Section        0  i2c.o(i.I2CIntRegister)
    i.I2CMasterBurstLengthSet                0x00003a94   Section        0  i2c.o(i.I2CMasterBurstLengthSet)
    i.I2CMasterBusBusy                       0x00003a98   Section        0  i2c.o(i.I2CMasterBusBusy)
    i.I2CMasterBusy                          0x00003aa4   Section        0  i2c.o(i.I2CMasterBusy)
    i.I2CMasterControl                       0x00003ab0   Section        0  i2c.o(i.I2CMasterControl)
    i.I2CMasterDataGet                       0x00003ab4   Section        0  i2c.o(i.I2CMasterDataGet)
    i.I2CMasterDataPut                       0x00003ab8   Section        0  i2c.o(i.I2CMasterDataPut)
    i.I2CMasterEnable                        0x00003abc   Section        0  i2c.o(i.I2CMasterEnable)
    i.I2CMasterErr                           0x00003ac6   Section        0  i2c.o(i.I2CMasterErr)
    i.I2CMasterGlitchFilterConfigSet         0x00003ae0   Section        0  i2c.o(i.I2CMasterGlitchFilterConfigSet)
    i.I2CMasterInitExpClk                    0x00003b34   Section        0  i2c.o(i.I2CMasterInitExpClk)
    i.I2CMasterIntClear                      0x00003b88   Section        0  i2c.o(i.I2CMasterIntClear)
    i.I2CMasterIntClearEx                    0x00003b90   Section        0  i2c.o(i.I2CMasterIntClearEx)
    i.I2CMasterIntEnableEx                   0x00003b94   Section        0  i2c.o(i.I2CMasterIntEnableEx)
    i.I2CMasterSlaveAddrSet                  0x00003b9c   Section        0  i2c.o(i.I2CMasterSlaveAddrSet)
    i.I2CMasterTimeoutSet                    0x00003ba4   Section        0  i2c.o(i.I2CMasterTimeoutSet)
    i.IntEnable                              0x00003ba8   Section        0  interrupt.o(i.IntEnable)
    i.IntRegister                            0x00003c0c   Section        0  interrupt.o(i.IntRegister)
    i.PWMClockSet                            0x00003c40   Section        0  pwm.o(i.PWMClockSet)
    i.PWMGenConfigure                        0x00003c54   Section        0  pwm.o(i.PWMGenConfigure)
    i.PWMGenDisable                          0x00003c7a   Section        0  pwm.o(i.PWMGenDisable)
    i.PWMGenEnable                           0x00003c84   Section        0  pwm.o(i.PWMGenEnable)
    i.PWMGenPeriodGet                        0x00003c8e   Section        0  pwm.o(i.PWMGenPeriodGet)
    i.PWMGenPeriodSet                        0x00003ca0   Section        0  pwm.o(i.PWMGenPeriodSet)
    i.PWMOutputInvert                        0x00003cb2   Section        0  pwm.o(i.PWMOutputInvert)
    i.PWMOutputState                         0x00003cc2   Section        0  pwm.o(i.PWMOutputState)
    i.PWMPulseWidthSet                       0x00003cd2   Section        0  pwm.o(i.PWMPulseWidthSet)
    i.SysCtlClockFreqSet                     0x00003cf4   Section        0  sysctl.o(i.SysCtlClockFreqSet)
    i.SysCtlPeripheralEnable                 0x00003fe0   Section        0  sysctl.o(i.SysCtlPeripheralEnable)
    i.SysCtlPeripheralReady                  0x00004008   Section        0  sysctl.o(i.SysCtlPeripheralReady)
    i.SysCtlPeripheralReset                  0x00004034   Section        0  sysctl.o(i.SysCtlPeripheralReset)
    i.TimerClockSourceSet                    0x00004070   Section        0  timer.o(i.TimerClockSourceSet)
    i.TimerConfigure                         0x00004078   Section        0  timer.o(i.TimerConfigure)
    i.TimerControlLevel                      0x000040d8   Section        0  timer.o(i.TimerControlLevel)
    i.TimerEnable                            0x000040ee   Section        0  timer.o(i.TimerEnable)
    i.TimerLoadSet                           0x000040fc   Section        0  timer.o(i.TimerLoadSet)
    i.TimerMatchSet                          0x0000410e   Section        0  timer.o(i.TimerMatchSet)
    i.TimerPrescaleSet                       0x00004120   Section        0  timer.o(i.TimerPrescaleSet)
    i.TimerUpdateMode                        0x00004132   Section        0  timer.o(i.TimerUpdateMode)
    i.UpdateContextCharMapping               0x0000415c   Section        0  string.o(i.UpdateContextCharMapping)
    UpdateContextCharMapping                 0x0000415d   Thumb Code   108  string.o(i.UpdateContextCharMapping)
    i._init_box                              0x000041c8   Section        0  rt_membox.o(i._init_box)
    i.dbg_init                               0x00004210   Section        0  hal_cm.o(i.dbg_init)
    i.dbg_task_notify                        0x00004240   Section        0  hal_cm.o(i.dbg_task_notify)
    i.dbg_task_switch                        0x00004260   Section        0  hal_cm.o(i.dbg_task_switch)
    i.isrMessageGet                          0x00004270   Section        0  rt_cmsis.o(i.isrMessageGet)
    i.isrMessagePut                          0x0000429a   Section        0  rt_cmsis.o(i.isrMessagePut)
    i.isrSignalSet                           0x000042c6   Section        0  rt_cmsis.o(i.isrSignalSet)
    i.isr_evt_set                            0x000042ec   Section        0  rt_event.o(i.isr_evt_set)
    i.isr_mbx_receive                        0x00004314   Section        0  rt_mailbox.o(i.isr_mbx_receive)
    i.isr_mbx_send                           0x0000436a   Section        0  rt_mailbox.o(i.isr_mbx_send)
    i.osDelay                                0x00004378   Section        0  rt_cmsis.o(i.osDelay)
    i.osKernelInitialize                     0x00004390   Section        0  rt_cmsis.o(i.osKernelInitialize)
    i.osKernelStart                          0x000043b4   Section        0  rt_cmsis.o(i.osKernelStart)
    i.osMessageGet                           0x00004420   Section        0  rt_cmsis.o(i.osMessageGet)
    i.osSignalSet                            0x00004438   Section        0  rt_cmsis.o(i.osSignalSet)
    i.osSignalWait                           0x00004450   Section        0  rt_cmsis.o(i.osSignalWait)
    i.osThreadCreate                         0x00004468   Section        0  rt_cmsis.o(i.osThreadCreate)
    i.osThreadExit                           0x00004494   Section        0  rt_cmsis.o(i.osThreadExit)
    i.osTimerCall                            0x000044ac   Section        0  rt_cmsis.o(i.osTimerCall)
    i.osTimerThread                          0x000044b8   Section        0  rt_cmsis.o(i.osTimerThread)
    i.os_tick_init                           0x000044e4   Section        0  rt_system.o(i.os_tick_init)
    i.os_tick_irqack                         0x0000450c   Section        0  rt_system.o(i.os_tick_irqack)
    i.rt_alloc_box                           0x0000450e   Section        0  rt_membox.o(i.rt_alloc_box)
    i.rt_alloc_mem                           0x00004528   Section        0  rt_memory.o(i.rt_alloc_mem)
    i.rt_block                               0x00004568   Section        0  rt_task.o(i.rt_block)
    i.rt_dec_dly                             0x000045a0   Section        0  rt_list.o(i.rt_dec_dly)
    i.rt_dispatch                            0x00004610   Section        0  rt_task.o(i.rt_dispatch)
    i.rt_dly_wait                            0x00004654   Section        0  rt_time.o(i.rt_dly_wait)
    i.rt_evt_psh                             0x0000465c   Section        0  rt_event.o(i.rt_evt_psh)
    i.rt_evt_set                             0x000046ac   Section        0  rt_event.o(i.rt_evt_set)
    i.rt_evt_wait                            0x00004708   Section        0  rt_event.o(i.rt_evt_wait)
    i.rt_free_box                            0x00004744   Section        0  rt_membox.o(i.rt_free_box)
    i.rt_free_mem                            0x00004770   Section        0  rt_memory.o(i.rt_free_mem)
    i.rt_get_first                           0x00004798   Section        0  rt_list.o(i.rt_get_first)
    i.rt_id2obj                              0x000047c0   Section        0  rt_cmsis.o(i.rt_id2obj)
    rt_id2obj                                0x000047c1   Thumb Code     8  rt_cmsis.o(i.rt_id2obj)
    i.rt_init_context                        0x000047c8   Section        0  rt_task.o(i.rt_init_context)
    rt_init_context                          0x000047c9   Thumb Code    66  rt_task.o(i.rt_init_context)
    i.rt_init_mem                            0x00004810   Section        0  rt_memory.o(i.rt_init_mem)
    i.rt_init_stack                          0x0000482c   Section        0  hal_cm.o(i.rt_init_stack)
    i.rt_mbx_check                           0x000048ac   Section        0  rt_mailbox.o(i.rt_mbx_check)
    i.rt_mbx_init                            0x000048b4   Section        0  rt_mailbox.o(i.rt_mbx_init)
    i.rt_mbx_psh                             0x000048d0   Section        0  rt_mailbox.o(i.rt_mbx_psh)
    i.rt_mbx_wait                            0x000049c0   Section        0  rt_mailbox.o(i.rt_mbx_wait)
    i.rt_ms2tick                             0x00004a74   Section        0  rt_cmsis.o(i.rt_ms2tick)
    rt_ms2tick                               0x00004a75   Thumb Code    58  rt_cmsis.o(i.rt_ms2tick)
    i.rt_mut_init                            0x00004ab8   Section        0  rt_mutex.o(i.rt_mut_init)
    i.rt_mut_release                         0x00004ac8   Section        0  rt_mutex.o(i.rt_mut_release)
    i.rt_mut_wait                            0x00004ba0   Section        0  rt_mutex.o(i.rt_mut_wait)
    i.rt_pop_req                             0x00004c18   Section        0  rt_system.o(i.rt_pop_req)
    i.rt_psh_req                             0x00004c94   Section        0  rt_system.o(i.rt_psh_req)
    i.rt_psq_enq                             0x00004cb4   Section        0  rt_list.o(i.rt_psq_enq)
    i.rt_put_dly                             0x00004d10   Section        0  rt_list.o(i.rt_put_dly)
    i.rt_put_prio                            0x00004d58   Section        0  rt_list.o(i.rt_put_prio)
    i.rt_put_rdy_first                       0x00004d90   Section        0  rt_list.o(i.rt_put_rdy_first)
    i.rt_resort_prio                         0x00004da4   Section        0  rt_list.o(i.rt_resort_prio)
    i.rt_ret_regs                            0x00004dd8   Section        0  hal_cm.o(i.rt_ret_regs)
    rt_ret_regs                              0x00004dd9   Thumb Code    16  hal_cm.o(i.rt_ret_regs)
    i.rt_ret_val                             0x00004de8   Section        0  hal_cm.o(i.rt_ret_val)
    i.rt_ret_val2                            0x00004df4   Section        0  hal_cm.o(i.rt_ret_val2)
    i.rt_rmv_dly                             0x00004e04   Section        0  rt_list.o(i.rt_rmv_dly)
    i.rt_rmv_list                            0x00004e2c   Section        0  rt_list.o(i.rt_rmv_list)
    i.rt_sem_psh                             0x00004e5c   Section        0  rt_semaphore.o(i.rt_sem_psh)
    i.rt_stk_check                           0x00004e90   Section        0  rt_system.o(i.rt_stk_check)
    i.rt_switch_req                          0x00004eb4   Section        0  rt_task.o(i.rt_switch_req)
    i.rt_sys_init                            0x00004edc   Section        0  rt_task.o(i.rt_sys_init)
    i.rt_sys_start                           0x00004fa8   Section        0  rt_task.o(i.rt_sys_start)
    i.rt_systick                             0x00005020   Section        0  rt_system.o(i.rt_systick)
    i.rt_tid2ptcb                            0x00005060   Section        0  rt_cmsis.o(i.rt_tid2ptcb)
    rt_tid2ptcb                              0x00005061   Thumb Code    18  rt_cmsis.o(i.rt_tid2ptcb)
    i.rt_timer_insert                        0x00005074   Section        0  rt_cmsis.o(i.rt_timer_insert)
    rt_timer_insert                          0x00005075   Thumb Code    48  rt_cmsis.o(i.rt_timer_insert)
    i.rt_tsk_create                          0x000050a8   Section        0  rt_task.o(i.rt_tsk_create)
    i.rt_tsk_delete                          0x00005130   Section        0  rt_task.o(i.rt_tsk_delete)
    i.rt_tsk_prio                            0x000052ac   Section        0  rt_task.o(i.rt_tsk_prio)
    i.rt_tsk_self                            0x00005328   Section        0  rt_task.o(i.rt_tsk_self)
    i.svcDelay                               0x00005338   Section        0  rt_cmsis.o(i.svcDelay)
    i.svcKernelInitialize                    0x0000534c   Section        0  rt_cmsis.o(i.svcKernelInitialize)
    i.svcKernelStart                         0x000053bc   Section        0  rt_cmsis.o(i.svcKernelStart)
    i.svcMessageCreate                       0x00005404   Section        0  rt_cmsis.o(i.svcMessageCreate)
    i.svcMessageGet                          0x00005428   Section        0  rt_cmsis.o(i.svcMessageGet)
    i.svcSignalSet                           0x00005462   Section        0  rt_cmsis.o(i.svcSignalSet)
    i.svcSignalWait                          0x00005488   Section        0  rt_cmsis.o(i.svcSignalWait)
    i.svcThreadCreate                        0x000054dc   Section        0  rt_cmsis.o(i.svcThreadCreate)
    i.svcThreadGetId                         0x00005548   Section        0  rt_cmsis.o(i.svcThreadGetId)
    i.svcThreadTerminate                     0x00005564   Section        0  rt_cmsis.o(i.svcThreadTerminate)
    i.svcTimerCall                           0x0000559c   Section        0  rt_cmsis.o(i.svcTimerCall)
    i.sysTimerTick                           0x000055b4   Section        0  rt_cmsis.o(i.sysTimerTick)
    x$fpl$fpinit                             0x00005610   Section       10  fpinit.o(x$fpl$fpinit)
    $v0                                      0x00005610   Number         0  fpinit.o(x$fpl$fpinit)
    .constdata                               0x0000561c   Section      112  blinky.o(.constdata)
    .constdata                               0x0000568c   Section       64  cfaf128x128x16.o(.constdata)
    .constdata                               0x000056cc   Section       16  led.o(.constdata)
    .constdata                               0x000056dc   Section      104  rtx_conf_cm.o(.constdata)
    __tagsym$$used                           0x000056f8   Number         0  rtx_conf_cm.o(.constdata)
    __tagsym$$used                           0x000056fc   Number         0  rtx_conf_cm.o(.constdata)
    __tagsym$$used                           0x00005700   Number         0  rtx_conf_cm.o(.constdata)
    __tagsym$$used                           0x00005704   Number         0  rtx_conf_cm.o(.constdata)
    .constdata                               0x00005744   Section      552  gpio.o(.constdata)
    g_ppui32GPIOIntMapBlizzard               0x00005744   Data         192  gpio.o(.constdata)
    g_ppui32GPIOIntMapSnowflake              0x00005804   Data         216  gpio.o(.constdata)
    g_pui32GPIOBaseAddrs                     0x000058dc   Data         144  gpio.o(.constdata)
    .constdata                               0x0000596c   Section      128  i2c.o(.constdata)
    g_ppui32I2CIntMap                        0x0000596c   Data          48  i2c.o(.constdata)
    g_ppui32I2CIntMapSnowflake               0x0000599c   Data          80  i2c.o(.constdata)
    .constdata                               0x000059ec   Section      268  interrupt.o(.constdata)
    g_pui32Priority                          0x000059ec   Data          32  interrupt.o(.constdata)
    g_pui32Regs                              0x00005a0c   Data         156  interrupt.o(.constdata)
    g_pui32EnRegs                            0x00005aa8   Data          20  interrupt.o(.constdata)
    g_pui32Dii16Regs                         0x00005abc   Data          20  interrupt.o(.constdata)
    g_pui32PendRegs                          0x00005ad0   Data          20  interrupt.o(.constdata)
    g_pui32UnpendRegs                        0x00005ae4   Data          20  interrupt.o(.constdata)
    .constdata                               0x00005af8   Section      596  sysctl.o(.constdata)
    g_pui32VCOFrequencies                    0x00005af8   Data           8  sysctl.o(.constdata)
    g_pui32Xtals                             0x00005b00   Data         108  sysctl.o(.constdata)
    g_pppui32XTALtoVCO                       0x00005b6c   Data         432  sysctl.o(.constdata)
    g_sXTALtoMEMTIM                          0x00005d1c   Data          48  sysctl.o(.constdata)
    .constdata                               0x00005d4c   Section       16  context.o(.constdata)
    .constdata                               0x00005d5c   Section      760  fontfixed6x8.o(.constdata)
    g_pui8FontFixed6x8Data                   0x00005d5c   Data         760  fontfixed6x8.o(.constdata)
    .constdata                               0x00006054   Section      200  fontfixed6x8.o(.constdata)
    .conststring                             0x0000611c   Section       37  blinky.o(.conststring)
    .data                                    0x20000000   Section       52  blinky.o(.data)
    S01                                      0x20000020   Data           8  blinky.o(.data)
    pAscii                                   0x20000030   Data           4  blinky.o(.data)
    .data                                    0x20000034   Section       11  buzzer.o(.data)
    g_ui32SysClock                           0x20000034   Data           4  buzzer.o(.data)
    g_current_vol                            0x20000038   Data           4  buzzer.o(.data)
    g_current_per                            0x2000003c   Data           2  buzzer.o(.data)
    g_current_state                          0x2000003e   Data           1  buzzer.o(.data)
    .data                                    0x20000040   Section        5  cfaf128x128x16.o(.data)
    g_ui32SysClock                           0x20000040   Data           4  cfaf128x128x16.o(.data)
    _orientation                             0x20000044   Data           1  cfaf128x128x16.o(.data)
    .data                                    0x20000048   Section       15  opt.o(.data)
    g_ui32SysClock                           0x20000048   Data           4  opt.o(.data)
    mid                                      0x2000004c   Data           2  opt.o(.data)
    did                                      0x2000004e   Data           2  opt.o(.data)
    g_mid                                    0x20000050   Data           2  opt.o(.data)
    g_did                                    0x20000052   Data           2  opt.o(.data)
    g_timeout_count                          0x20000054   Data           2  opt.o(.data)
    g_sentFlag                               0x20000056   Data           1  opt.o(.data)
    .data                                    0x20000058   Section        7  rgb.o(.data)
    g_ui32SysClock                           0x20000058   Data           4  rgb.o(.data)
    enabled                                  0x2000005c   Data           1  rgb.o(.data)
    enabled                                  0x2000005d   Data           1  rgb.o(.data)
    enabled                                  0x2000005e   Data           1  rgb.o(.data)
    .data                                    0x20000060   Section        8  servo.o(.data)
    g_ui32SysClock                           0x20000060   Data           4  servo.o(.data)
    g_ui16Period                             0x20000064   Data           2  servo.o(.data)
    g_ui16perMin                             0x20000066   Data           2  servo.o(.data)
    .data                                    0x20000068   Section       11  temp.o(.data)
    g_ui32SysClock                           0x20000068   Data           4  temp.o(.data)
    g_mid                                    0x2000006c   Data           2  temp.o(.data)
    g_did                                    0x2000006e   Data           2  temp.o(.data)
    g_timeout_count                          0x20000070   Data           2  temp.o(.data)
    g_sentFlag                               0x20000072   Data           1  temp.o(.data)
    .data                                    0x20000074   Section       20  rtx_conf_cm.o(.data)
    nr_mutex                                 0x20000084   Data           4  rtx_conf_cm.o(.data)
    .data                                    0x20000088   Section        4  system_tm4c129.o(.data)
    .data                                    0x2000008c   Section        4  context.o(.data)
    g_psGrLibDefaults                        0x2000008c   Data           4  context.o(.data)
    .data                                    0x20000090   Section        8  rt_cmsis.o(.data)
    .data                                    0x20000098   Section        8  rt_task.o(.data)
    .data                                    0x200000a0   Section        8  rt_system.o(.data)
    os_lock                                  0x200000a0   Data           1  rt_system.o(.data)
    os_psh_flag                              0x200000a1   Data           1  rt_system.o(.data)
    pend_flags                               0x200000a2   Data           1  rt_system.o(.data)
    .data                                    0x200000a8   Section        4  rt_time.o(.data)
    .data                                    0x200000ac   Section        1  hal_cm.o(.data)
    vtable                                   0x20000400   Section      620  interrupt.o(vtable)
    g_pfnRAMVectors                          0x20000400   Data         620  interrupt.o(vtable)
    .bss                                     0x2000066c   Section       54  blinky.o(.bss)
    .bss                                     0x200006a8   Section     9120  rtx_conf_cm.o(.bss)
    std_libspace                             0x20002668   Data         864  rtx_conf_cm.o(.bss)
    std_libmutex                             0x200029c8   Data         128  rtx_conf_cm.o(.bss)
    .bss                                     0x20002a48   Section       52  rt_task.o(.bss)
    .bss                                     0x20002a7c   Section       48  rt_list.o(.bss)
    .bss                                     0x20002aac   Section       96  libspace.o(.bss)
    HEAP                                     0x20002b10   Section        0  startup_tm4c129.o(HEAP)
    STACK                                    0x20002b10   Section      512  startup_tm4c129.o(STACK)
    Heap_Mem                                 0x20002b10   Data           0  startup_tm4c129.o(HEAP)
    Stack_Mem                                0x20002b10   Data         512  startup_tm4c129.o(STACK)
    __initial_sp                             0x20002d10   Data           0  startup_tm4c129.o(STACK)

    Global Symbols

    Symbol Name                              Value     Ov Type        Size  Object(Section)

    BuildAttributes$$THM_ISAv4$E$P$D$K$B$S$7EM$VFPi3$EXTD16$VFPS$VFMA$PE$A:L22UL41UL21$X:L11$S22US41US21$IEEE1$IW$USESV6$~STKCKD$USESV7$~SHL$OTIME$ROPI$EBA8$UX$STANDARDLIB$REQ8$PRES8$EABIv2 0x00000000   Number         0  anon$$obj.o ABSOLUTE
    __ARM_use_no_argv                        0x00000000   Number         0  blinky.o ABSOLUTE
    __Vectors                                0x00000000   Data           4  startup_tm4c129.o(RESET)
    __ARM_exceptions_init                     - Undefined Weak Reference
    __alloca_initialize                       - Undefined Weak Reference
    __arm_preinit_                            - Undefined Weak Reference
    __cpp_initialize__aeabi_                  - Undefined Weak Reference
    __cxa_finalize                            - Undefined Weak Reference
    __rt_locale                               - Undefined Weak Reference
    __sigvec_lookup                           - Undefined Weak Reference
    _atexit_init                              - Undefined Weak Reference
    _call_atexit_fns                          - Undefined Weak Reference
    _clock_init                               - Undefined Weak Reference
    _fp_trap_init                             - Undefined Weak Reference
    _fp_trap_shutdown                         - Undefined Weak Reference
    _get_lc_collate                           - Undefined Weak Reference
    _get_lc_ctype                             - Undefined Weak Reference
    _get_lc_monetary                          - Undefined Weak Reference
    _get_lc_numeric                           - Undefined Weak Reference
    _get_lc_time                              - Undefined Weak Reference
    _getenv_init                              - Undefined Weak Reference
    _handle_redirection                       - Undefined Weak Reference
    _init_alloc                               - Undefined Weak Reference
    _init_user_alloc                          - Undefined Weak Reference
    _initio                                   - Undefined Weak Reference
    _rand_init                                - Undefined Weak Reference
    _signal_finish                            - Undefined Weak Reference
    _signal_init                              - Undefined Weak Reference
    _terminate_alloc                          - Undefined Weak Reference
    _terminate_user_alloc                     - Undefined Weak Reference
    _terminateio                              - Undefined Weak Reference
    __Vectors_End                            0x00000200   Data           0  startup_tm4c129.o(RESET)
    __Vectors_Size                           0x00000200   Number         0  startup_tm4c129.o ABSOLUTE
    __main                                   0x00000201   Thumb Code     8  __main.o(!!!main)
    __scatterload                            0x00000209   Thumb Code     0  __scatter.o(!!!scatter)
    __scatterload_rt2                        0x00000209   Thumb Code    44  __scatter.o(!!!scatter)
    __scatterload_rt2_thumb_only             0x00000209   Thumb Code     0  __scatter.o(!!!scatter)
    __scatterload_null                       0x00000217   Thumb Code     0  __scatter.o(!!!scatter)
    __decompress                             0x0000023d   Thumb Code    58  __dczerorl.o(!!dczerorl)
    __decompress0                            0x0000023d   Thumb Code     0  __dczerorl.o(!!dczerorl)
    __scatterload_zeroinit                   0x00000279   Thumb Code    28  __scatter_zi.o(!!handler_zi)
    __rt_lib_init                            0x00000295   Thumb Code     0  libinit.o(.ARM.Collect$$libinit$$00000000)
    __rt_lib_init_fp_1                       0x00000297   Thumb Code     0  libinit2.o(.ARM.Collect$$libinit$$00000001)
    __rt_lib_init_alloca_1                   0x0000029b   Thumb Code     0  libinit2.o(.ARM.Collect$$libinit$$0000002E)
    __rt_lib_init_argv_1                     0x0000029b   Thumb Code     0  libinit2.o(.ARM.Collect$$libinit$$0000002C)
    __rt_lib_init_atexit_1                   0x0000029b   Thumb Code     0  libinit2.o(.ARM.Collect$$libinit$$0000001B)
    __rt_lib_init_clock_1                    0x0000029b   Thumb Code     0  libinit2.o(.ARM.Collect$$libinit$$00000021)
    __rt_lib_init_cpp_1                      0x0000029b   Thumb Code     0  libinit2.o(.ARM.Collect$$libinit$$00000032)
    __rt_lib_init_exceptions_1               0x0000029b   Thumb Code     0  libinit2.o(.ARM.Collect$$libinit$$00000030)
    __rt_lib_init_fp_trap_1                  0x0000029b   Thumb Code     0  libinit2.o(.ARM.Collect$$libinit$$0000001F)
    __rt_lib_init_getenv_1                   0x0000029b   Thumb Code     0  libinit2.o(.ARM.Collect$$libinit$$00000023)
    __rt_lib_init_heap_1                     0x0000029b   Thumb Code     0  libinit2.o(.ARM.Collect$$libinit$$0000000A)
    __rt_lib_init_lc_collate_1               0x0000029b   Thumb Code     0  libinit2.o(.ARM.Collect$$libinit$$00000011)
    __rt_lib_init_lc_ctype_1                 0x0000029b   Thumb Code     0  libinit2.o(.ARM.Collect$$libinit$$00000013)
    __rt_lib_init_lc_monetary_1              0x0000029b   Thumb Code     0  libinit2.o(.ARM.Collect$$libinit$$00000015)
    __rt_lib_init_lc_numeric_1               0x0000029b   Thumb Code     0  libinit2.o(.ARM.Collect$$libinit$$00000017)
    __rt_lib_init_lc_time_1                  0x0000029b   Thumb Code     0  libinit2.o(.ARM.Collect$$libinit$$00000019)
    __rt_lib_init_preinit_1                  0x0000029b   Thumb Code     0  libinit2.o(.ARM.Collect$$libinit$$00000004)
    __rt_lib_init_rand_1                     0x0000029b   Thumb Code     0  libinit2.o(.ARM.Collect$$libinit$$0000000E)
    __rt_lib_init_return                     0x0000029b   Thumb Code     0  libinit2.o(.ARM.Collect$$libinit$$00000033)
    __rt_lib_init_signal_1                   0x0000029b   Thumb Code     0  libinit2.o(.ARM.Collect$$libinit$$0000001D)
    __rt_lib_init_stdio_1                    0x0000029b   Thumb Code     0  libinit2.o(.ARM.Collect$$libinit$$00000025)
    __rt_lib_init_user_alloc_1               0x0000029b   Thumb Code     0  libinit2.o(.ARM.Collect$$libinit$$0000000C)
    __rt_lib_shutdown                        0x0000029d   Thumb Code     0  libshutdown.o(.ARM.Collect$$libshutdown$$00000000)
    __rt_lib_shutdown_cpp_1                  0x0000029f   Thumb Code     0  libshutdown2.o(.ARM.Collect$$libshutdown$$00000002)
    __rt_lib_shutdown_fp_trap_1              0x0000029f   Thumb Code     0  libshutdown2.o(.ARM.Collect$$libshutdown$$00000007)
    __rt_lib_shutdown_heap_1                 0x0000029f   Thumb Code     0  libshutdown2.o(.ARM.Collect$$libshutdown$$0000000F)
    __rt_lib_shutdown_return                 0x0000029f   Thumb Code     0  libshutdown2.o(.ARM.Collect$$libshutdown$$00000010)
    __rt_lib_shutdown_signal_1               0x0000029f   Thumb Code     0  libshutdown2.o(.ARM.Collect$$libshutdown$$0000000A)
    __rt_lib_shutdown_stdio_1                0x0000029f   Thumb Code     0  libshutdown2.o(.ARM.Collect$$libshutdown$$00000004)
    __rt_lib_shutdown_user_alloc_1           0x0000029f   Thumb Code     0  libshutdown2.o(.ARM.Collect$$libshutdown$$0000000C)
    __rt_entry                               0x000002a1   Thumb Code     0  __rtentry.o(.ARM.Collect$$rtentry$$00000000)
    __rt_entry_presh_1                       0x000002a1   Thumb Code     0  __rtentry2.o(.ARM.Collect$$rtentry$$00000002)
    __rt_entry_sh                            0x000002a1   Thumb Code     0  __rtentry4.o(.ARM.Collect$$rtentry$$00000004)
    __rt_entry_li                            0x000002a7   Thumb Code     0  __rtentry2.o(.ARM.Collect$$rtentry$$0000000A)
    __rt_entry_postsh_1                      0x000002a7   Thumb Code     0  __rtentry2.o(.ARM.Collect$$rtentry$$00000009)
    __rt_entry_postli_1                      0x000002ab   Thumb Code     0  __rtentry2.o(.ARM.Collect$$rtentry$$0000000B)
    __rt_entry_main                          0x000002b3   Thumb Code     0  __rtentry2.o(.ARM.Collect$$rtentry$$0000000D)
    __rt_exit                                0x000002bb   Thumb Code     0  rtexit.o(.ARM.Collect$$rtexit$$00000000)
    __rt_exit_ls                             0x000002bd   Thumb Code     0  rtexit2.o(.ARM.Collect$$rtexit$$00000003)
    __rt_exit_prels_1                        0x000002bd   Thumb Code     0  rtexit2.o(.ARM.Collect$$rtexit$$00000002)
    __rt_exit_exit                           0x000002c1   Thumb Code     0  rtexit2.o(.ARM.Collect$$rtexit$$00000004)
    _platform_post_lib_init                  0x000002c9   Thumb Code    24  rtx_conf_cm.o(.emb_text)
    SysCtlDelay                              0x000002e5   Thumb Code     6  sysctl.o(.emb_text)
    rt_set_PSP                               0x000002ed   Thumb Code     6  hal_cm4.o(.emb_text)
    rt_get_PSP                               0x000002f3   Thumb Code     6  hal_cm4.o(.emb_text)
    os_set_env                               0x000002f9   Thumb Code    24  hal_cm4.o(.emb_text)
    _alloc_box                               0x00000315   Thumb Code    28  hal_cm4.o(.emb_text)
    _free_box                                0x00000335   Thumb Code    28  hal_cm4.o(.emb_text)
    SVC_Handler                              0x00000355   Thumb Code   168  hal_cm4.o(.emb_text)
    PendSV_Handler                           0x0000040d   Thumb Code    96  hal_cm4.o(.emb_text)
    SysTick_Handler                          0x00000471   Thumb Code     8  hal_cm4.o(.emb_text)
    OS_Tick_Handler                          0x00000479   Thumb Code    12  hal_cm4.o(.emb_text)
    __RL_RTX_VER                             0x00000482   Number         0  rt_system.o ABSOLUTE
    init_all                                 0x00000549   Thumb Code    48  blinky.o(.text)
    init_sidelong_menu                       0x00000579   Thumb Code   626  blinky.o(.text)
    Switch_On                                0x000007eb   Thumb Code    16  blinky.o(.text)
    Switch_Off                               0x000007fb   Thumb Code    16  blinky.o(.text)
    signal_func                              0x0000080b   Thumb Code    14  blinky.o(.text)
    thread_status                            0x00000819   Thumb Code     2  blinky.o(.text)
    t_buzzer                                 0x0000081b   Thumb Code   118  blinky.o(.text)
    t_rgb                                    0x00000891   Thumb Code    28  blinky.o(.text)
    t_mic                                    0x000008ad   Thumb Code   308  blinky.o(.text)
    t_light                                  0x000009e1   Thumb Code   218  blinky.o(.text)
    t_temp                                   0x00000abb   Thumb Code   226  blinky.o(.text)
    t_servo                                  0x00000b9d   Thumb Code    74  blinky.o(.text)
    t_accel                                  0x00000be7   Thumb Code   458  blinky.o(.text)
    main                                     0x00000db1   Thumb Code   124  blinky.o(.text)
    buzzer_write                             0x00000ecf   Thumb Code    20  buzzer.o(.text)
    buzzer_vol_set                           0x00000ee3   Thumb Code    58  buzzer.o(.text)
    buzzer_per_set                           0x00000f1d   Thumb Code    52  buzzer.o(.text)
    buzzer_init                              0x00000f51   Thumb Code   116  buzzer.o(.text)
    accel_init                               0x00000fed   Thumb Code    16  accel.o(.text)
    accel_read_x                             0x00001067   Thumb Code    14  accel.o(.text)
    accel_read_y                             0x00001075   Thumb Code    14  accel.o(.text)
    accel_read_z                             0x00001083   Thumb Code    14  accel.o(.text)
    button_init                              0x000010a1   Thumb Code    38  buttons.o(.text)
    button_read_s1                           0x000010c7   Thumb Code    20  buttons.o(.text)
    button_read_s2                           0x000010db   Thumb Code    20  buttons.o(.text)
    cfaf128x128x16Rect                       0x000012ad   Thumb Code   134  cfaf128x128x16.o(.text)
    cfaf128x128x16LineVer                    0x00001333   Thumb Code    38  cfaf128x128x16.o(.text)
    cfaf128x128x16LineHor                    0x00001359   Thumb Code    38  cfaf128x128x16.o(.text)
    cfaf128x128x16Dot                        0x0000137f   Thumb Code    30  cfaf128x128x16.o(.text)
    cfaf128x128x16SetOrientation             0x00001681   Thumb Code    74  cfaf128x128x16.o(.text)
    cfaf128x128x16ClearColor                 0x000016cb   Thumb Code    36  cfaf128x128x16.o(.text)
    cfaf128x128x16Clear                      0x000016ef   Thumb Code    10  cfaf128x128x16.o(.text)
    InitSSICom                               0x00001715   Thumb Code   178  cfaf128x128x16.o(.text)
    cfaf128x128x16Init                       0x000017c7   Thumb Code   384  cfaf128x128x16.o(.text)
    led_init                                 0x00001999   Thumb Code    94  led.o(.text)
    led_on                                   0x000019f7   Thumb Code   112  led.o(.text)
    led_off                                  0x00001a67   Thumb Code   112  led.o(.text)
    led_write                                0x00001ad7   Thumb Code    38  led.o(.text)
    joy_init                                 0x00001b1d   Thumb Code    46  joy.o(.text)
    joy_read_center                          0x00001bb5   Thumb Code    20  joy.o(.text)
    joy_read_x                               0x00001bc9   Thumb Code    14  joy.o(.text)
    joy_read_y                               0x00001bd7   Thumb Code    14  joy.o(.text)
    mic_init                                 0x00001bf9   Thumb Code    16  mic.o(.text)
    mic_read                                 0x00001c73   Thumb Code    14  mic.o(.text)
    opt_read                                 0x00002117   Thumb Code    12  opt.o(.text)
    opt_get_lux                              0x0000213b   Thumb Code    96  opt.o(.text)
    opt_init                                 0x0000219b   Thumb Code   240  opt.o(.text)
    rgb_write_r                              0x000022cd   Thumb Code    80  rgb.o(.text)
    rgb_write_g                              0x0000231d   Thumb Code    80  rgb.o(.text)
    rgb_write_b                              0x0000236d   Thumb Code    80  rgb.o(.text)
    rgb_write                                0x000023bd   Thumb Code    28  rgb.o(.text)
    rgb_write_color                          0x000023d9   Thumb Code    20  rgb.o(.text)
    rgb_init                                 0x000023ed   Thumb Code   302  rgb.o(.text)
    servo_write                              0x00002551   Thumb Code    38  servo.o(.text)
    servo_init                               0x00002577   Thumb Code   178  servo.o(.text)
    temp_read                                0x00002adb   Thumb Code    12  temp.o(.text)
    temp_read_voltage                        0x00002ae7   Thumb Code    12  temp.o(.text)
    temp_init                                0x00002b0b   Thumb Code   226  temp.o(.text)
    os_idle_demon                            0x00002c2d   Thumb Code     4  rtx_conf_cm.o(.text)
    os_error                                 0x00002c31   Thumb Code    32  rtx_conf_cm.o(.text)
    rt_init_robin                            0x00002c51   Thumb Code     2  rtx_conf_cm.o(.text)
    rt_chk_robin                             0x00002c53   Thumb Code     2  rtx_conf_cm.o(.text)
    __user_perthread_libspace                0x00002c55   Thumb Code    32  rtx_conf_cm.o(.text)
    _mutex_initialize                        0x00002c75   Thumb Code    34  rtx_conf_cm.o(.text)
    _mutex_acquire                           0x00002c97   Thumb Code    22  rtx_conf_cm.o(.text)
    _mutex_release                           0x00002cad   Thumb Code    18  rtx_conf_cm.o(.text)
    Reset_Handler                            0x00002cdd   Thumb Code     8  startup_tm4c129.o(.text)
    NMI_Handler                              0x00002ce5   Thumb Code     2  startup_tm4c129.o(.text)
    HardFault_Handler                        0x00002ce7   Thumb Code     2  startup_tm4c129.o(.text)
    MemManage_Handler                        0x00002ce9   Thumb Code     2  startup_tm4c129.o(.text)
    BusFault_Handler                         0x00002ceb   Thumb Code     2  startup_tm4c129.o(.text)
    UsageFault_Handler                       0x00002ced   Thumb Code     2  startup_tm4c129.o(.text)
    DebugMon_Handler                         0x00002cf1   Thumb Code     2  startup_tm4c129.o(.text)
    GPIOA_Handler                            0x00002cf7   Thumb Code     2  startup_tm4c129.o(.text)
    GPIOB_Handler                            0x00002cf9   Thumb Code     2  startup_tm4c129.o(.text)
    GPIOC_Handler                            0x00002cfb   Thumb Code     2  startup_tm4c129.o(.text)
    GPIOD_Handler                            0x00002cfd   Thumb Code     2  startup_tm4c129.o(.text)
    GPIOE_Handler                            0x00002cff   Thumb Code     2  startup_tm4c129.o(.text)
    UART0_Handler                            0x00002d01   Thumb Code     2  startup_tm4c129.o(.text)
    UART1_Handler                            0x00002d03   Thumb Code     2  startup_tm4c129.o(.text)
    SSI0_Handler                             0x00002d05   Thumb Code     2  startup_tm4c129.o(.text)
    I2C0_Handler                             0x00002d07   Thumb Code     2  startup_tm4c129.o(.text)
    PMW0_FAULT_Handler                       0x00002d09   Thumb Code     2  startup_tm4c129.o(.text)
    PWM0_0_Handler                           0x00002d0b   Thumb Code     2  startup_tm4c129.o(.text)
    PWM0_1_Handler                           0x00002d0d   Thumb Code     2  startup_tm4c129.o(.text)
    PWM0_2_Handler                           0x00002d0f   Thumb Code     2  startup_tm4c129.o(.text)
    QEI0_Handler                             0x00002d11   Thumb Code     2  startup_tm4c129.o(.text)
    ADC0SS0_Handler                          0x00002d13   Thumb Code     2  startup_tm4c129.o(.text)
    ADC0SS1_Handler                          0x00002d15   Thumb Code     2  startup_tm4c129.o(.text)
    ADC0SS2_Handler                          0x00002d17   Thumb Code     2  startup_tm4c129.o(.text)
    ADC0SS3_Handler                          0x00002d19   Thumb Code     2  startup_tm4c129.o(.text)
    WDT0_Handler                             0x00002d1b   Thumb Code     2  startup_tm4c129.o(.text)
    TIMER0A_Handler                          0x00002d1d   Thumb Code     2  startup_tm4c129.o(.text)
    TIMER0B_Handler                          0x00002d1f   Thumb Code     2  startup_tm4c129.o(.text)
    TIMER1A_Handler                          0x00002d21   Thumb Code     2  startup_tm4c129.o(.text)
    TIMER1B_Handler                          0x00002d23   Thumb Code     2  startup_tm4c129.o(.text)
    TIMER2A_Handler                          0x00002d25   Thumb Code     2  startup_tm4c129.o(.text)
    TIMER2B_Handler                          0x00002d27   Thumb Code     2  startup_tm4c129.o(.text)
    COMP0_Handler                            0x00002d29   Thumb Code     2  startup_tm4c129.o(.text)
    COMP1_Handler                            0x00002d2b   Thumb Code     2  startup_tm4c129.o(.text)
    COMP2_Handler                            0x00002d2d   Thumb Code     2  startup_tm4c129.o(.text)
    SYSCTL_Handler                           0x00002d2f   Thumb Code     2  startup_tm4c129.o(.text)
    FLASH_Handler                            0x00002d31   Thumb Code     2  startup_tm4c129.o(.text)
    GPIOF_Handler                            0x00002d33   Thumb Code     2  startup_tm4c129.o(.text)
    GPIOG_Handler                            0x00002d35   Thumb Code     2  startup_tm4c129.o(.text)
    GPIOH_Handler                            0x00002d37   Thumb Code     2  startup_tm4c129.o(.text)
    UART2_Handler                            0x00002d39   Thumb Code     2  startup_tm4c129.o(.text)
    SSI1_Handler                             0x00002d3b   Thumb Code     2  startup_tm4c129.o(.text)
    TIMER3A_Handler                          0x00002d3d   Thumb Code     2  startup_tm4c129.o(.text)
    TIMER3B_Handler                          0x00002d3f   Thumb Code     2  startup_tm4c129.o(.text)
    I2C1_Handler                             0x00002d41   Thumb Code     2  startup_tm4c129.o(.text)
    CAN0_Handler                             0x00002d43   Thumb Code     2  startup_tm4c129.o(.text)
    CAN1_Handler                             0x00002d45   Thumb Code     2  startup_tm4c129.o(.text)
    ETH_Handler                              0x00002d47   Thumb Code     2  startup_tm4c129.o(.text)
    HIB_Handler                              0x00002d49   Thumb Code     2  startup_tm4c129.o(.text)
    USB0_Handler                             0x00002d4b   Thumb Code     2  startup_tm4c129.o(.text)
    PWM0_3_Handler                           0x00002d4d   Thumb Code     2  startup_tm4c129.o(.text)
    UDMA_Handler                             0x00002d4f   Thumb Code     2  startup_tm4c129.o(.text)
    UDMAERR_Handler                          0x00002d51   Thumb Code     2  startup_tm4c129.o(.text)
    ADC1SS0_Handler                          0x00002d53   Thumb Code     2  startup_tm4c129.o(.text)
    ADC1SS1_Handler                          0x00002d55   Thumb Code     2  startup_tm4c129.o(.text)
    ADC1SS2_Handler                          0x00002d57   Thumb Code     2  startup_tm4c129.o(.text)
    ADC1SS3_Handler                          0x00002d59   Thumb Code     2  startup_tm4c129.o(.text)
    EBI0_Handler                             0x00002d5b   Thumb Code     2  startup_tm4c129.o(.text)
    GPIOJ_Handler                            0x00002d5d   Thumb Code     2  startup_tm4c129.o(.text)
    GPIOK_Handler                            0x00002d5f   Thumb Code     2  startup_tm4c129.o(.text)
    GPIOL_Handler                            0x00002d61   Thumb Code     2  startup_tm4c129.o(.text)
    SSI2_Handler                             0x00002d63   Thumb Code     2  startup_tm4c129.o(.text)
    SSI3_Handler                             0x00002d65   Thumb Code     2  startup_tm4c129.o(.text)
    UART3_Handler                            0x00002d67   Thumb Code     2  startup_tm4c129.o(.text)
    UART4_Handler                            0x00002d69   Thumb Code     2  startup_tm4c129.o(.text)
    UART5_Handler                            0x00002d6b   Thumb Code     2  startup_tm4c129.o(.text)
    UART6_Handler                            0x00002d6d   Thumb Code     2  startup_tm4c129.o(.text)
    UART7_Handler                            0x00002d6f   Thumb Code     2  startup_tm4c129.o(.text)
    I2C2_Handler                             0x00002d71   Thumb Code     2  startup_tm4c129.o(.text)
    I2C3_Handler                             0x00002d73   Thumb Code     2  startup_tm4c129.o(.text)
    TIMER4A_Handler                          0x00002d75   Thumb Code     2  startup_tm4c129.o(.text)
    TIMER4B_Handler                          0x00002d77   Thumb Code     2  startup_tm4c129.o(.text)
    TIMER5A_Handler                          0x00002d79   Thumb Code     2  startup_tm4c129.o(.text)
    TIMER5B_Handler                          0x00002d7b   Thumb Code     2  startup_tm4c129.o(.text)
    WTIMER0A_Handler                         0x00002d7d   Thumb Code     2  startup_tm4c129.o(.text)
    WTIMER0B_Handler                         0x00002d7f   Thumb Code     2  startup_tm4c129.o(.text)
    WTIMER1A_Handler                         0x00002d81   Thumb Code     2  startup_tm4c129.o(.text)
    WTIMER1B_Handler                         0x00002d83   Thumb Code     2  startup_tm4c129.o(.text)
    WTIMER2A_Handler                         0x00002d85   Thumb Code     2  startup_tm4c129.o(.text)
    WTIMER2B_Handler                         0x00002d87   Thumb Code     2  startup_tm4c129.o(.text)
    WTIMER3A_Handler                         0x00002d89   Thumb Code     2  startup_tm4c129.o(.text)
    WTIMER3B_Handler                         0x00002d8b   Thumb Code     2  startup_tm4c129.o(.text)
    WTIMER4A_Handler                         0x00002d8d   Thumb Code     2  startup_tm4c129.o(.text)
    WTIMER4B_Handler                         0x00002d8f   Thumb Code     2  startup_tm4c129.o(.text)
    WTIMER5A_Handler                         0x00002d91   Thumb Code     2  startup_tm4c129.o(.text)
    WTIMER5B_Handler                         0x00002d93   Thumb Code     2  startup_tm4c129.o(.text)
    FPU_Handler                              0x00002d95   Thumb Code     2  startup_tm4c129.o(.text)
    I2C4_Handler                             0x00002d97   Thumb Code     2  startup_tm4c129.o(.text)
    I2C5_Handler                             0x00002d99   Thumb Code     2  startup_tm4c129.o(.text)
    GPIOM_Handler                            0x00002d9b   Thumb Code     2  startup_tm4c129.o(.text)
    GPION_Handler                            0x00002d9d   Thumb Code     2  startup_tm4c129.o(.text)
    TAMPER_Handler                           0x00002d9f   Thumb Code     2  startup_tm4c129.o(.text)
    GPIOP0_Handler                           0x00002da1   Thumb Code     2  startup_tm4c129.o(.text)
    GPIOP1_Handler                           0x00002da3   Thumb Code     2  startup_tm4c129.o(.text)
    GPIOP2_Handler                           0x00002da5   Thumb Code     2  startup_tm4c129.o(.text)
    GPIOP3_Handler                           0x00002da7   Thumb Code     2  startup_tm4c129.o(.text)
    GPIOP4_Handler                           0x00002da9   Thumb Code     2  startup_tm4c129.o(.text)
    GPIOP5_Handler                           0x00002dab   Thumb Code     2  startup_tm4c129.o(.text)
    GPIOP6_Handler                           0x00002dad   Thumb Code     2  startup_tm4c129.o(.text)
    GPIOP7_Handler                           0x00002daf   Thumb Code     2  startup_tm4c129.o(.text)
    GPIOQ0_Handler                           0x00002db1   Thumb Code     2  startup_tm4c129.o(.text)
    GPIOQ1_Handler                           0x00002db3   Thumb Code     2  startup_tm4c129.o(.text)
    GPIOQ2_Handler                           0x00002db5   Thumb Code     2  startup_tm4c129.o(.text)
    GPIOQ3_Handler                           0x00002db7   Thumb Code     2  startup_tm4c129.o(.text)
    GPIOQ4_Handler                           0x00002db9   Thumb Code     2  startup_tm4c129.o(.text)
    GPIOQ5_Handler                           0x00002dbb   Thumb Code     2  startup_tm4c129.o(.text)
    GPIOQ6_Handler                           0x00002dbd   Thumb Code     2  startup_tm4c129.o(.text)
    GPIOQ7_Handler                           0x00002dbf   Thumb Code     2  startup_tm4c129.o(.text)
    GPIOR_Handler                            0x00002dc1   Thumb Code     2  startup_tm4c129.o(.text)
    GPIOS_Handler                            0x00002dc3   Thumb Code     2  startup_tm4c129.o(.text)
    SHAMD5_Handler                           0x00002dc5   Thumb Code     2  startup_tm4c129.o(.text)
    AES_Handler                              0x00002dc7   Thumb Code     2  startup_tm4c129.o(.text)
    DES3DES_Handler                          0x00002dc9   Thumb Code     2  startup_tm4c129.o(.text)
    LCDCONTROLLER_Handler                    0x00002dcb   Thumb Code     2  startup_tm4c129.o(.text)
    TIMER6A_Handler                          0x00002dcd   Thumb Code     2  startup_tm4c129.o(.text)
    TIMER6B_Handler                          0x00002dcf   Thumb Code     2  startup_tm4c129.o(.text)
    TIMER7A_Handler                          0x00002dd1   Thumb Code     2  startup_tm4c129.o(.text)
    TIMER7B_Handler                          0x00002dd3   Thumb Code     2  startup_tm4c129.o(.text)
    I2C6_Handler                             0x00002dd5   Thumb Code     2  startup_tm4c129.o(.text)
    I2C7_Handler                             0x00002dd7   Thumb Code     2  startup_tm4c129.o(.text)
    HIMSCANKEYBOARD_Handler                  0x00002dd9   Thumb Code     2  startup_tm4c129.o(.text)
    ONEWIRE_Handler                          0x00002ddb   Thumb Code     2  startup_tm4c129.o(.text)
    HIMPS2_Handler                           0x00002ddd   Thumb Code     2  startup_tm4c129.o(.text)
    HIMLEDSEQUENCER_Handler                  0x00002ddf   Thumb Code     2  startup_tm4c129.o(.text)
    HIMCONSUMERIR_Handler                    0x00002de1   Thumb Code     2  startup_tm4c129.o(.text)
    I2C8_Handler                             0x00002de3   Thumb Code     2  startup_tm4c129.o(.text)
    I2C9_Handler                             0x00002de5   Thumb Code     2  startup_tm4c129.o(.text)
    GPIOT_Handler                            0x00002de7   Thumb Code     2  startup_tm4c129.o(.text)
    __user_initial_stackheap                 0x00002de9   Thumb Code     0  startup_tm4c129.o(.text)
    SystemCoreClockUpdate                    0x00002e09   Thumb Code     8  system_tm4c129.o(.text)
    SystemInit                               0x00002e11   Thumb Code    20  system_tm4c129.o(.text)
    __user_libspace                          0x00002e31   Thumb Code     8  libspace.o(.text)
    __user_perproc_libspace                  0x00002e31   Thumb Code     0  libspace.o(.text)
    __aeabi_uldivmod                         0x00002e39   Thumb Code     0  lludivv7m.o(.text)
    _ll_udiv                                 0x00002e39   Thumb Code   238  lludivv7m.o(.text)
    __aeabi_ldivmod                          0x00002f27   Thumb Code     0  llsdiv.o(.text)
    _ll_sdiv                                 0x00002f27   Thumb Code    72  llsdiv.o(.text)
    exit                                     0x00002f6f   Thumb Code    18  exit.o(.text)
    __use_two_region_memory                  0x00002f81   Thumb Code     2  heapauxi.o(.text)
    __rt_heap_escrow$2region                 0x00002f83   Thumb Code     2  heapauxi.o(.text)
    __rt_heap_expand$2region                 0x00002f85   Thumb Code     2  heapauxi.o(.text)
    _sys_exit                                0x00002f89   Thumb Code     8  sys_exit.o(.text)
    __user_setup_stackheap                   0x00002f95   Thumb Code    74  sys_stackheap_outer.o(.text)
    __I$use$semihosting                      0x00002fdf   Thumb Code     0  use_no_semi.o(.text)
    __use_no_semihosting_swi                 0x00002fdf   Thumb Code     2  use_no_semi.o(.text)
    SVC_Count                                0x00002fe0   Data           4  svc_table.o(SVC_TABLE)
    __semihosting_library_function           0x00002fe1   Thumb Code     0  indicate_semi.o(.text)
    ADCIntClear                              0x00002fe5   Thumb Code    10  adc.o(i.ADCIntClear)
    SVC_Table                                0x00002fe4   Data           0  svc_table.o(SVC_TABLE)
    ADCIntStatus                             0x00002fef   Thumb Code    52  adc.o(i.ADCIntStatus)
    ADCProcessorTrigger                      0x00003023   Thumb Code    26  adc.o(i.ADCProcessorTrigger)
    ADCSequenceConfigure                     0x0000303d   Thumb Code    96  adc.o(i.ADCSequenceConfigure)
    ADCSequenceDataGet                       0x0000309d   Thumb Code    36  adc.o(i.ADCSequenceDataGet)
    ADCSequenceEnable                        0x000030c1   Thumb Code    14  adc.o(i.ADCSequenceEnable)
    ADCSequenceStepConfigure                 0x000030cf   Thumb Code   154  adc.o(i.ADCSequenceStepConfigure)
    GPIODirModeSet                           0x00003169   Thumb Code    40  gpio.o(i.GPIODirModeSet)
    GPIOPadConfigSet                         0x00003191   Thumb Code   312  gpio.o(i.GPIOPadConfigSet)
    GPIOPinConfigure                         0x000032c9   Thumb Code    60  gpio.o(i.GPIOPinConfigure)
    GPIOPinRead                              0x0000330d   Thumb Code     6  gpio.o(i.GPIOPinRead)
    GPIOPinTypeADC                           0x00003313   Thumb Code    28  gpio.o(i.GPIOPinTypeADC)
    GPIOPinTypeGPIOInput                     0x0000332f   Thumb Code    28  gpio.o(i.GPIOPinTypeGPIOInput)
    GPIOPinTypeI2C                           0x0000334b   Thumb Code    28  gpio.o(i.GPIOPinTypeI2C)
    GPIOPinTypeI2CSCL                        0x00003367   Thumb Code    28  gpio.o(i.GPIOPinTypeI2CSCL)
    GPIOPinTypePWM                           0x00003383   Thumb Code    28  gpio.o(i.GPIOPinTypePWM)
    GPIOPinTypeTimer                         0x0000339f   Thumb Code    28  gpio.o(i.GPIOPinTypeTimer)
    GrContextFontSet                         0x000033bb   Thumb Code     6  string.o(i.GrContextFontSet)
    GrContextInit                            0x000033c1   Thumb Code    88  context.o(i.GrContextInit)
    GrDefaultStringRenderer                  0x00003425   Thumb Code   280  string.o(i.GrDefaultStringRenderer)
    GrFontBaselineGet                        0x0000353d   Thumb Code    44  string.o(i.GrFontBaselineGet)
    GrFontGlyphDataGet                       0x00003569   Thumb Code   166  string.o(i.GrFontGlyphDataGet)
    GrFontGlyphRender                        0x0000360f   Thumb Code   648  string.o(i.GrFontGlyphRender)
    GrMapISO8859_1_Unicode                   0x00003897   Thumb Code     8  charmap.o(i.GrMapISO8859_1_Unicode)
    GrRectFill                               0x0000389f   Thumb Code   180  rectangle.o(i.GrRectFill)
    GrStringDraw                             0x00003953   Thumb Code    32  string.o(i.GrStringDraw)
    GrStringWidthGet                         0x00003973   Thumb Code   192  string.o(i.GrStringWidthGet)
    I2CIntRegister                           0x00003a35   Thumb Code    80  i2c.o(i.I2CIntRegister)
    I2CMasterBurstLengthSet                  0x00003a95   Thumb Code     4  i2c.o(i.I2CMasterBurstLengthSet)
    I2CMasterBusBusy                         0x00003a99   Thumb Code    12  i2c.o(i.I2CMasterBusBusy)
    I2CMasterBusy                            0x00003aa5   Thumb Code    12  i2c.o(i.I2CMasterBusy)
    I2CMasterControl                         0x00003ab1   Thumb Code     4  i2c.o(i.I2CMasterControl)
    I2CMasterDataGet                         0x00003ab5   Thumb Code     4  i2c.o(i.I2CMasterDataGet)
    I2CMasterDataPut                         0x00003ab9   Thumb Code     4  i2c.o(i.I2CMasterDataPut)
    I2CMasterEnable                          0x00003abd   Thumb Code    10  i2c.o(i.I2CMasterEnable)
    I2CMasterErr                             0x00003ac7   Thumb Code    24  i2c.o(i.I2CMasterErr)
    I2CMasterGlitchFilterConfigSet           0x00003ae1   Thumb Code    74  i2c.o(i.I2CMasterGlitchFilterConfigSet)
    I2CMasterInitExpClk                      0x00003b35   Thumb Code    72  i2c.o(i.I2CMasterInitExpClk)
    I2CMasterIntClear                        0x00003b89   Thumb Code     8  i2c.o(i.I2CMasterIntClear)
    I2CMasterIntClearEx                      0x00003b91   Thumb Code     4  i2c.o(i.I2CMasterIntClearEx)
    I2CMasterIntEnableEx                     0x00003b95   Thumb Code     8  i2c.o(i.I2CMasterIntEnableEx)
    I2CMasterSlaveAddrSet                    0x00003b9d   Thumb Code     8  i2c.o(i.I2CMasterSlaveAddrSet)
    I2CMasterTimeoutSet                      0x00003ba5   Thumb Code     4  i2c.o(i.I2CMasterTimeoutSet)
    IntEnable                                0x00003ba9   Thumb Code    92  interrupt.o(i.IntEnable)
    IntRegister                              0x00003c0d   Thumb Code    44  interrupt.o(i.IntRegister)
    PWMClockSet                              0x00003c41   Thumb Code    20  pwm.o(i.PWMClockSet)
    PWMGenConfigure                          0x00003c55   Thumb Code    38  pwm.o(i.PWMGenConfigure)
    PWMGenDisable                            0x00003c7b   Thumb Code    10  pwm.o(i.PWMGenDisable)
    PWMGenEnable                             0x00003c85   Thumb Code    10  pwm.o(i.PWMGenEnable)
    PWMGenPeriodGet                          0x00003c8f   Thumb Code    18  pwm.o(i.PWMGenPeriodGet)
    PWMGenPeriodSet                          0x00003ca1   Thumb Code    18  pwm.o(i.PWMGenPeriodSet)
    PWMOutputInvert                          0x00003cb3   Thumb Code    16  pwm.o(i.PWMOutputInvert)
    PWMOutputState                           0x00003cc3   Thumb Code    16  pwm.o(i.PWMOutputState)
    PWMPulseWidthSet                         0x00003cd3   Thumb Code    32  pwm.o(i.PWMPulseWidthSet)
    SysCtlClockFreqSet                       0x00003cf5   Thumb Code   706  sysctl.o(i.SysCtlClockFreqSet)
    SysCtlPeripheralEnable                   0x00003fe1   Thumb Code    36  sysctl.o(i.SysCtlPeripheralEnable)
    SysCtlPeripheralReady                    0x00004009   Thumb Code    40  sysctl.o(i.SysCtlPeripheralReady)
    SysCtlPeripheralReset                    0x00004035   Thumb Code    56  sysctl.o(i.SysCtlPeripheralReset)
    TimerClockSourceSet                      0x00004071   Thumb Code     6  timer.o(i.TimerClockSourceSet)
    TimerConfigure                           0x00004079   Thumb Code    88  timer.o(i.TimerConfigure)
    TimerControlLevel                        0x000040d9   Thumb Code    22  timer.o(i.TimerControlLevel)
    TimerEnable                              0x000040ef   Thumb Code    14  timer.o(i.TimerEnable)
    TimerLoadSet                             0x000040fd   Thumb Code    18  timer.o(i.TimerLoadSet)
    TimerMatchSet                            0x0000410f   Thumb Code    18  timer.o(i.TimerMatchSet)
    TimerPrescaleSet                         0x00004121   Thumb Code    18  timer.o(i.TimerPrescaleSet)
    TimerUpdateMode                          0x00004133   Thumb Code    42  timer.o(i.TimerUpdateMode)
    _init_box                                0x000041c9   Thumb Code    70  rt_membox.o(i._init_box)
    dbg_init                                 0x00004211   Thumb Code    34  hal_cm.o(i.dbg_init)
    dbg_task_notify                          0x00004241   Thumb Code    32  hal_cm.o(i.dbg_task_notify)
    dbg_task_switch                          0x00004261   Thumb Code    16  hal_cm.o(i.dbg_task_switch)
    isrMessageGet                            0x00004271   Thumb Code    42  rt_cmsis.o(i.isrMessageGet)
    isrMessagePut                            0x0000429b   Thumb Code    44  rt_cmsis.o(i.isrMessagePut)
    isrSignalSet                             0x000042c7   Thumb Code    36  rt_cmsis.o(i.isrSignalSet)
    isr_evt_set                              0x000042ed   Thumb Code    34  rt_event.o(i.isr_evt_set)
    isr_mbx_receive                          0x00004315   Thumb Code    86  rt_mailbox.o(i.isr_mbx_receive)
    isr_mbx_send                             0x0000436b   Thumb Code    14  rt_mailbox.o(i.isr_mbx_send)
    osDelay                                  0x00004379   Thumb Code    18  rt_cmsis.o(i.osDelay)
    osKernelInitialize                       0x00004391   Thumb Code    30  rt_cmsis.o(i.osKernelInitialize)
    osKernelStart                            0x000043b5   Thumb Code    98  rt_cmsis.o(i.osKernelStart)
    osMessageGet                             0x00004421   Thumb Code    18  rt_cmsis.o(i.osMessageGet)
    osSignalSet                              0x00004439   Thumb Code    18  rt_cmsis.o(i.osSignalSet)
    osSignalWait                             0x00004451   Thumb Code    18  rt_cmsis.o(i.osSignalWait)
    osThreadCreate                           0x00004469   Thumb Code    36  rt_cmsis.o(i.osThreadCreate)
    osThreadExit                             0x00004495   Thumb Code    14  rt_cmsis.o(i.osThreadExit)
    osTimerCall                              0x000044ad   Thumb Code     8  rt_cmsis.o(i.osTimerCall)
    osTimerThread                            0x000044b9   Thumb Code    38  rt_cmsis.o(i.osTimerThread)
    os_tick_init                             0x000044e5   Thumb Code    32  rt_system.o(i.os_tick_init)
    os_tick_irqack                           0x0000450d   Thumb Code     2  rt_system.o(i.os_tick_irqack)
    rt_alloc_box                             0x0000450f   Thumb Code    26  rt_membox.o(i.rt_alloc_box)
    rt_alloc_mem                             0x00004529   Thumb Code    62  rt_memory.o(i.rt_alloc_mem)
    rt_block                                 0x00004569   Thumb Code    48  rt_task.o(i.rt_block)
    rt_dec_dly                               0x000045a1   Thumb Code   102  rt_list.o(i.rt_dec_dly)
    rt_dispatch                              0x00004611   Thumb Code    60  rt_task.o(i.rt_dispatch)
    rt_dly_wait                              0x00004655   Thumb Code     6  rt_time.o(i.rt_dly_wait)
    rt_evt_psh                               0x0000465d   Thumb Code    76  rt_event.o(i.rt_evt_psh)
    rt_evt_set                               0x000046ad   Thumb Code    88  rt_event.o(i.rt_evt_set)
    rt_evt_wait                              0x00004709   Thumb Code    56  rt_event.o(i.rt_evt_wait)
    rt_free_box                              0x00004745   Thumb Code    44  rt_membox.o(i.rt_free_box)
    rt_free_mem                              0x00004771   Thumb Code    40  rt_memory.o(i.rt_free_mem)
    rt_get_first                             0x00004799   Thumb Code    40  rt_list.o(i.rt_get_first)
    rt_init_mem                              0x00004811   Thumb Code    26  rt_memory.o(i.rt_init_mem)
    rt_init_stack                            0x0000482d   Thumb Code   118  hal_cm.o(i.rt_init_stack)
    rt_mbx_check                             0x000048ad   Thumb Code     8  rt_mailbox.o(i.rt_mbx_check)
    rt_mbx_init                              0x000048b5   Thumb Code    26  rt_mailbox.o(i.rt_mbx_init)
    rt_mbx_psh                               0x000048d1   Thumb Code   236  rt_mailbox.o(i.rt_mbx_psh)
    rt_mbx_wait                              0x000049c1   Thumb Code   174  rt_mailbox.o(i.rt_mbx_wait)
    rt_mut_init                              0x00004ab9   Thumb Code    16  rt_mutex.o(i.rt_mut_init)
    rt_mut_release                           0x00004ac9   Thumb Code   208  rt_mutex.o(i.rt_mut_release)
    rt_mut_wait                              0x00004ba1   Thumb Code   114  rt_mutex.o(i.rt_mut_wait)
    rt_pop_req                               0x00004c19   Thumb Code   112  rt_system.o(i.rt_pop_req)
    rt_psh_req                               0x00004c95   Thumb Code    22  rt_system.o(i.rt_psh_req)
    rt_psq_enq                               0x00004cb5   Thumb Code    88  rt_list.o(i.rt_psq_enq)
    rt_put_dly                               0x00004d11   Thumb Code    68  rt_list.o(i.rt_put_dly)
    rt_put_prio                              0x00004d59   Thumb Code    54  rt_list.o(i.rt_put_prio)
    rt_put_rdy_first                         0x00004d91   Thumb Code    14  rt_list.o(i.rt_put_rdy_first)
    rt_resort_prio                           0x00004da5   Thumb Code    46  rt_list.o(i.rt_resort_prio)
    rt_ret_val                               0x00004de9   Thumb Code    12  hal_cm.o(i.rt_ret_val)
    rt_ret_val2                              0x00004df5   Thumb Code    16  hal_cm.o(i.rt_ret_val2)
    rt_rmv_dly                               0x00004e05   Thumb Code    40  rt_list.o(i.rt_rmv_dly)
    rt_rmv_list                              0x00004e2d   Thumb Code    44  rt_list.o(i.rt_rmv_list)
    rt_sem_psh                               0x00004e5d   Thumb Code    48  rt_semaphore.o(i.rt_sem_psh)
    rt_stk_check                             0x00004e91   Thumb Code    28  rt_system.o(i.rt_stk_check)
    rt_switch_req                            0x00004eb5   Thumb Code    30  rt_task.o(i.rt_switch_req)
    rt_sys_init                              0x00004edd   Thumb Code   138  rt_task.o(i.rt_sys_init)
    rt_sys_start                             0x00004fa9   Thumb Code   110  rt_task.o(i.rt_sys_start)
    rt_systick                               0x00005021   Thumb Code    50  rt_system.o(i.rt_systick)
    rt_tsk_create                            0x000050a9   Thumb Code   118  rt_task.o(i.rt_tsk_create)
    rt_tsk_delete                            0x00005131   Thumb Code   352  rt_task.o(i.rt_tsk_delete)
    rt_tsk_prio                              0x000052ad   Thumb Code   108  rt_task.o(i.rt_tsk_prio)
    rt_tsk_self                              0x00005329   Thumb Code    12  rt_task.o(i.rt_tsk_self)
    svcDelay                                 0x00005339   Thumb Code    18  rt_cmsis.o(i.svcDelay)
    svcKernelInitialize                      0x0000534d   Thumb Code    80  rt_cmsis.o(i.svcKernelInitialize)
    svcKernelStart                           0x000053bd   Thumb Code    62  rt_cmsis.o(i.svcKernelStart)
    svcMessageCreate                         0x00005405   Thumb Code    36  rt_cmsis.o(i.svcMessageCreate)
    svcMessageGet                            0x00005429   Thumb Code    58  rt_cmsis.o(i.svcMessageGet)
    svcSignalSet                             0x00005463   Thumb Code    36  rt_cmsis.o(i.svcSignalSet)
    svcSignalWait                            0x00005489   Thumb Code    80  rt_cmsis.o(i.svcSignalWait)
    svcThreadCreate                          0x000054dd   Thumb Code    96  rt_cmsis.o(i.svcThreadCreate)
    svcThreadGetId                           0x00005549   Thumb Code    22  rt_cmsis.o(i.svcThreadGetId)
    svcThreadTerminate                       0x00005565   Thumb Code    50  rt_cmsis.o(i.svcThreadTerminate)
    svcTimerCall                             0x0000559d   Thumb Code    24  rt_cmsis.o(i.svcTimerCall)
    sysTimerTick                             0x000055b5   Thumb Code    84  rt_cmsis.o(i.sysTimerTick)
    _fp_init                                 0x00005611   Thumb Code    10  fpinit.o(x$fpl$fpinit)
    __fplib_config_fpu_vfp                   0x00005619   Thumb Code     0  fpinit.o(x$fpl$fpinit)
    __fplib_config_pureend_doubles           0x00005619   Thumb Code     0  fpinit.o(x$fpl$fpinit)
    os_thread_def_t_buzzer                   0x0000561c   Data          16  blinky.o(.constdata)
    os_thread_def_t_rgb                      0x0000562c   Data          16  blinky.o(.constdata)
    os_thread_def_t_mic                      0x0000563c   Data          16  blinky.o(.constdata)
    os_thread_def_t_light                    0x0000564c   Data          16  blinky.o(.constdata)
    os_thread_def_t_temp                     0x0000565c   Data          16  blinky.o(.constdata)
    os_thread_def_t_servo                    0x0000566c   Data          16  blinky.o(.constdata)
    os_thread_def_t_accel                    0x0000567c   Data          16  blinky.o(.constdata)
    blackColor                               0x0000568c   Data           2  cfaf128x128x16.o(.constdata)
    whiteColor                               0x0000568e   Data           2  cfaf128x128x16.o(.constdata)
    redColor                                 0x00005690   Data           2  cfaf128x128x16.o(.constdata)
    greenColor                               0x00005692   Data           2  cfaf128x128x16.o(.constdata)
    blueColor                                0x00005694   Data           2  cfaf128x128x16.o(.constdata)
    yellowColor                              0x00005696   Data           2  cfaf128x128x16.o(.constdata)
    cyanColor                                0x00005698   Data           2  cfaf128x128x16.o(.constdata)
    orangeColor                              0x0000569a   Data           2  cfaf128x128x16.o(.constdata)
    magentaColor                             0x0000569c   Data           2  cfaf128x128x16.o(.constdata)
    violetColor                              0x0000569e   Data           2  cfaf128x128x16.o(.constdata)
    grayColor                                0x000056a0   Data           2  cfaf128x128x16.o(.constdata)
    darkGrayColor                            0x000056a2   Data           2  cfaf128x128x16.o(.constdata)
    g_sCfaf128x128x16                        0x000056a4   Data          40  cfaf128x128x16.o(.constdata)
    led_mask                                 0x000056cc   Data          16  led.o(.constdata)
    os_maxtaskrun                            0x000056dc   Data           2  rtx_conf_cm.o(.constdata)
    os_stackinfo                             0x000056e0   Data           4  rtx_conf_cm.o(.constdata)
    os_rrobin                                0x000056e4   Data           4  rtx_conf_cm.o(.constdata)
    os_tickfreq                              0x000056e8   Data           4  rtx_conf_cm.o(.constdata)
    os_tickus_i                              0x000056ec   Data           2  rtx_conf_cm.o(.constdata)
    os_tickus_f                              0x000056ee   Data           2  rtx_conf_cm.o(.constdata)
    os_trv                                   0x000056f0   Data           4  rtx_conf_cm.o(.constdata)
    os_flags                                 0x000056f4   Data           1  rtx_conf_cm.o(.constdata)
    CMSIS_RTOS_API_Version                   0x000056f8   Data           4  rtx_conf_cm.o(.constdata)
    CMSIS_RTOS_RTX_Version                   0x000056fc   Data           4  rtx_conf_cm.o(.constdata)
    os_clockrate                             0x00005700   Data           4  rtx_conf_cm.o(.constdata)
    os_timernum                              0x00005704   Data           4  rtx_conf_cm.o(.constdata)
    mp_tcb_size                              0x00005708   Data           2  rtx_conf_cm.o(.constdata)
    mp_stk_size                              0x0000570c   Data           4  rtx_conf_cm.o(.constdata)
    os_stack_sz                              0x00005710   Data           4  rtx_conf_cm.o(.constdata)
    os_fifo_size                             0x00005714   Data           1  rtx_conf_cm.o(.constdata)
    os_thread_def_osTimerThread              0x00005718   Data          16  rtx_conf_cm.o(.constdata)
    os_messageQ_def_osTimerMessageQ          0x00005728   Data           8  rtx_conf_cm.o(.constdata)
    mp_tmr_size                              0x00005730   Data           2  rtx_conf_cm.o(.constdata)
    os_thread_def_main                       0x00005734   Data          16  rtx_conf_cm.o(.constdata)
    g_psDefaultCodePointMapTable             0x00005d4c   Data          16  context.o(.constdata)
    g_sFontFixed6x8                          0x00006054   Data         200  fontfixed6x8.o(.constdata)
    Region$$Table$$Base                      0x00006144   Number         0  anon$$obj.o(Region$$Table)
    Region$$Table$$Limit                     0x00006164   Number         0  anon$$obj.o(Region$$Table)
    tid_buzzer                               0x20000000   Data           4  blinky.o(.data)
    tid_servo                                0x20000004   Data           4  blinky.o(.data)
    tid_rgb                                  0x20000008   Data           4  blinky.o(.data)
    tid_accel                                0x2000000c   Data           4  blinky.o(.data)
    tid_temp                                 0x20000010   Data           4  blinky.o(.data)
    tid_light                                0x20000014   Data           4  blinky.o(.data)
    tid_mic                                  0x20000018   Data           4  blinky.o(.data)
    sRect                                    0x20000028   Data           8  blinky.o(.data)
    osThreadId_osTimerThread                 0x20000074   Data           4  rtx_conf_cm.o(.data)
    osMessageQId_osTimerMessageQ             0x20000078   Data           4  rtx_conf_cm.o(.data)
    os_tmr                                   0x2000007c   Data           4  rtx_conf_cm.o(.data)
    m_tmr                                    0x20000080   Data           4  rtx_conf_cm.o(.data)
    SystemCoreClock                          0x20000088   Data           4  system_tm4c129.o(.data)
    os_initialized                           0x20000090   Data           1  rt_cmsis.o(.data)
    os_running                               0x20000091   Data           1  rt_cmsis.o(.data)
    os_timer_head                            0x20000094   Data           4  rt_cmsis.o(.data)
    os_tsk                                   0x20000098   Data           8  rt_task.o(.data)
    os_tick_irqn                             0x200000a4   Data           4  rt_system.o(.data)
    os_time                                  0x200000a8   Data           4  rt_time.o(.data)
    dbg_msg                                  0x200000ac   Data           1  hal_cm.o(.data)
    sContext                                 0x2000066c   Data          44  blinky.o(.bss)
    pbuf                                     0x20000698   Data          10  blinky.o(.bss)
    mp_tcb                                   0x200006a8   Data         480  rtx_conf_cm.o(.bss)
    mp_stk                                   0x20000888   Data        6416  rtx_conf_cm.o(.bss)
    os_stack_mem                             0x20002198   Data        1032  rtx_conf_cm.o(.bss)
    os_fifo                                  0x200025a0   Data         132  rtx_conf_cm.o(.bss)
    os_active_TCB                            0x20002624   Data          36  rtx_conf_cm.o(.bss)
    os_messageQ_q_osTimerMessageQ            0x20002648   Data          32  rtx_conf_cm.o(.bss)
    os_idle_TCB                              0x20002a48   Data          52  rt_task.o(.bss)
    os_rdy                                   0x20002a7c   Data          24  rt_list.o(.bss)
    os_dly                                   0x20002a94   Data          24  rt_list.o(.bss)
    __libspace_start                         0x20002aac   Data          96  libspace.o(.bss)
    __temporary_stack_top$libspace           0x20002b0c   Data           0  libspace.o(.bss)



==============================================================================

Memory Map of the image

  Image Entry point : 0x00000201

  Load Region LR_IROM1 (Base: 0x00000000, Size: 0x000067d0, Max: 0x00100000, ABSOLUTE, COMPRESSED[0x0000617c])

    Execution Region ER_IROM1 (Exec base: 0x00000000, Load base: 0x00000000, Size: 0x00006164, Max: 0x00100000, ABSOLUTE)

    Exec Addr    Load Addr    Size         Type   Attr      Idx    E Section Name        Object

    0x00000000   0x00000000   0x00000200   Data   RO          404    RESET               startup_tm4c129.o
    0x00000200   0x00000200   0x00000008   Code   RO         3926  * !!!main             c_w.l(__main.o)
    0x00000208   0x00000208   0x00000034   Code   RO         4089    !!!scatter          c_w.l(__scatter.o)
    0x0000023c   0x0000023c   0x0000003a   Code   RO         4087    !!dczerorl          c_w.l(__dczerorl.o)
    0x00000276   0x00000276   0x00000002   PAD
    0x00000278   0x00000278   0x0000001c   Code   RO         4091    !!handler_zi        c_w.l(__scatter_zi.o)
    0x00000294   0x00000294   0x00000002   Code   RO         3973    .ARM.Collect$$libinit$$00000000  c_w.l(libinit.o)
    0x00000296   0x00000296   0x00000004   Code   RO         3984    .ARM.Collect$$libinit$$00000001  c_w.l(libinit2.o)
    0x0000029a   0x0000029a   0x00000000   Code   RO         3987    .ARM.Collect$$libinit$$00000004  c_w.l(libinit2.o)
    0x0000029a   0x0000029a   0x00000000   Code   RO         3990    .ARM.Collect$$libinit$$0000000A  c_w.l(libinit2.o)
    0x0000029a   0x0000029a   0x00000000   Code   RO         3992    .ARM.Collect$$libinit$$0000000C  c_w.l(libinit2.o)
    0x0000029a   0x0000029a   0x00000000   Code   RO         3994    .ARM.Collect$$libinit$$0000000E  c_w.l(libinit2.o)
    0x0000029a   0x0000029a   0x00000000   Code   RO         3997    .ARM.Collect$$libinit$$00000011  c_w.l(libinit2.o)
    0x0000029a   0x0000029a   0x00000000   Code   RO         3999    .ARM.Collect$$libinit$$00000013  c_w.l(libinit2.o)
    0x0000029a   0x0000029a   0x00000000   Code   RO         4001    .ARM.Collect$$libinit$$00000015  c_w.l(libinit2.o)
    0x0000029a   0x0000029a   0x00000000   Code   RO         4003    .ARM.Collect$$libinit$$00000017  c_w.l(libinit2.o)
    0x0000029a   0x0000029a   0x00000000   Code   RO         4005    .ARM.Collect$$libinit$$00000019  c_w.l(libinit2.o)
    0x0000029a   0x0000029a   0x00000000   Code   RO         4007    .ARM.Collect$$libinit$$0000001B  c_w.l(libinit2.o)
    0x0000029a   0x0000029a   0x00000000   Code   RO         4009    .ARM.Collect$$libinit$$0000001D  c_w.l(libinit2.o)
    0x0000029a   0x0000029a   0x00000000   Code   RO         4011    .ARM.Collect$$libinit$$0000001F  c_w.l(libinit2.o)
    0x0000029a   0x0000029a   0x00000000   Code   RO         4013    .ARM.Collect$$libinit$$00000021  c_w.l(libinit2.o)
    0x0000029a   0x0000029a   0x00000000   Code   RO         4015    .ARM.Collect$$libinit$$00000023  c_w.l(libinit2.o)
    0x0000029a   0x0000029a   0x00000000   Code   RO         4017    .ARM.Collect$$libinit$$00000025  c_w.l(libinit2.o)
    0x0000029a   0x0000029a   0x00000000   Code   RO         4021    .ARM.Collect$$libinit$$0000002C  c_w.l(libinit2.o)
    0x0000029a   0x0000029a   0x00000000   Code   RO         4023    .ARM.Collect$$libinit$$0000002E  c_w.l(libinit2.o)
    0x0000029a   0x0000029a   0x00000000   Code   RO         4025    .ARM.Collect$$libinit$$00000030  c_w.l(libinit2.o)
    0x0000029a   0x0000029a   0x00000000   Code   RO         4027    .ARM.Collect$$libinit$$00000032  c_w.l(libinit2.o)
    0x0000029a   0x0000029a   0x00000002   Code   RO         4028    .ARM.Collect$$libinit$$00000033  c_w.l(libinit2.o)
    0x0000029c   0x0000029c   0x00000002   Code   RO         3974    .ARM.Collect$$libshutdown$$00000000  c_w.l(libshutdown.o)
    0x0000029e   0x0000029e   0x00000000   Code   RO         4030    .ARM.Collect$$libshutdown$$00000002  c_w.l(libshutdown2.o)
    0x0000029e   0x0000029e   0x00000000   Code   RO         4032    .ARM.Collect$$libshutdown$$00000004  c_w.l(libshutdown2.o)
    0x0000029e   0x0000029e   0x00000000   Code   RO         4035    .ARM.Collect$$libshutdown$$00000007  c_w.l(libshutdown2.o)
    0x0000029e   0x0000029e   0x00000000   Code   RO         4038    .ARM.Collect$$libshutdown$$0000000A  c_w.l(libshutdown2.o)
    0x0000029e   0x0000029e   0x00000000   Code   RO         4040    .ARM.Collect$$libshutdown$$0000000C  c_w.l(libshutdown2.o)
    0x0000029e   0x0000029e   0x00000000   Code   RO         4043    .ARM.Collect$$libshutdown$$0000000F  c_w.l(libshutdown2.o)
    0x0000029e   0x0000029e   0x00000002   Code   RO         4044    .ARM.Collect$$libshutdown$$00000010  c_w.l(libshutdown2.o)
    0x000002a0   0x000002a0   0x00000000   Code   RO         3928    .ARM.Collect$$rtentry$$00000000  c_w.l(__rtentry.o)
    0x000002a0   0x000002a0   0x00000000   Code   RO         3936    .ARM.Collect$$rtentry$$00000002  c_w.l(__rtentry2.o)
    0x000002a0   0x000002a0   0x00000006   Code   RO         3948    .ARM.Collect$$rtentry$$00000004  c_w.l(__rtentry4.o)
    0x000002a6   0x000002a6   0x00000000   Code   RO         3938    .ARM.Collect$$rtentry$$00000009  c_w.l(__rtentry2.o)
    0x000002a6   0x000002a6   0x00000004   Code   RO         3939    .ARM.Collect$$rtentry$$0000000A  c_w.l(__rtentry2.o)
    0x000002aa   0x000002aa   0x00000008   Code   RO         3940    .ARM.Collect$$rtentry$$0000000B  c_w.l(__rtentry2.o)
    0x000002b2   0x000002b2   0x00000008   Code   RO         3942    .ARM.Collect$$rtentry$$0000000D  c_w.l(__rtentry2.o)
    0x000002ba   0x000002ba   0x00000002   Code   RO         3929    .ARM.Collect$$rtexit$$00000000  c_w.l(rtexit.o)
    0x000002bc   0x000002bc   0x00000000   Code   RO         3951    .ARM.Collect$$rtexit$$00000002  c_w.l(rtexit2.o)
    0x000002bc   0x000002bc   0x00000004   Code   RO         3952    .ARM.Collect$$rtexit$$00000003  c_w.l(rtexit2.o)
    0x000002c0   0x000002c0   0x00000006   Code   RO         3953    .ARM.Collect$$rtexit$$00000004  c_w.l(rtexit2.o)
    0x000002c6   0x000002c6   0x00000002   PAD
    0x000002c8   0x000002c8   0x0000001c   Code   RO          339    .emb_text           rtx_conf_cm.o
    0x000002e4   0x000002e4   0x00000006   Code   RO         1710    .emb_text           driverlib.lib(sysctl.o)
    0x000002ea   0x000002ea   0x00000002   PAD
    0x000002ec   0x000002ec   0x00000198   Code   RO         3877    .emb_text           RTX_CM4.lib(hal_cm4.o)
    0x00000484   0x00000484   0x000009e0   Code   RO            4    .text               blinky.o
    0x00000e64   0x00000e64   0x00000188   Code   RO          121    .text               buzzer.o
    0x00000fec   0x00000fec   0x000000b4   Code   RO          156    .text               accel.o
    0x000010a0   0x000010a0   0x00000058   Code   RO          174    .text               buttons.o
    0x000010f8   0x000010f8   0x000008a0   Code   RO          186    .text               cfaf128x128x16.o
    0x00001998   0x00001998   0x00000184   Code   RO          211    .text               led.o
    0x00001b1c   0x00001b1c   0x000000dc   Code   RO          241    .text               joy.o
    0x00001bf8   0x00001bf8   0x00000098   Code   RO          253    .text               mic.o
    0x00001c90   0x00001c90   0x0000063c   Code   RO          265    .text               opt.o
    0x000022cc   0x000022cc   0x00000284   Code   RO          294    .text               rgb.o
    0x00002550   0x00002550   0x00000104   Code   RO          308    .text               servo.o
    0x00002654   0x00002654   0x000005d8   Code   RO          325    .text               temp.o
    0x00002c2c   0x00002c2c   0x000000b0   Code   RO          340    .text               rtx_conf_cm.o
    0x00002cdc   0x00002cdc   0x0000012c   Code   RO          405    .text               startup_tm4c129.o
    0x00002e08   0x00002e08   0x00000028   Code   RO          412    .text               system_tm4c129.o
    0x00002e30   0x00002e30   0x00000008   Code   RO         3913    .text               c_w.l(libspace.o)
    0x00002e38   0x00002e38   0x000000ee   Code   RO         3916    .text               c_w.l(lludivv7m.o)
    0x00002f26   0x00002f26   0x00000048   Code   RO         3918    .text               c_w.l(llsdiv.o)
    0x00002f6e   0x00002f6e   0x00000012   Code   RO         3920    .text               c_w.l(exit.o)
    0x00002f80   0x00002f80   0x00000006   Code   RO         3924    .text               c_w.l(heapauxi.o)
    0x00002f86   0x00002f86   0x00000002   PAD
    0x00002f88   0x00002f88   0x0000000c   Code   RO         3959    .text               c_w.l(sys_exit.o)
    0x00002f94   0x00002f94   0x0000004a   Code   RO         3961    .text               c_w.l(sys_stackheap_outer.o)
    0x00002fde   0x00002fde   0x00000002   Code   RO         3975    .text               c_w.l(use_no_semi.o)
    0x00002fe0   0x00002fe0   0x00000000   Code   RO         3977    .text               c_w.l(indicate_semi.o)
    0x00002fe0   0x00002fe0   0x00000004   Code   RO         3908    SVC_TABLE           RTX_CM4.lib(svc_table.o)
    0x00002fe4   0x00002fe4   0x0000000a   Code   RO          450    i.ADCIntClear       driverlib.lib(adc.o)
    0x00002fee   0x00002fee   0x00000034   Code   RO          457    i.ADCIntStatus      driverlib.lib(adc.o)
    0x00003022   0x00003022   0x0000001a   Code   RO          462    i.ADCProcessorTrigger  driverlib.lib(adc.o)
    0x0000303c   0x0000303c   0x00000060   Code   RO          465    i.ADCSequenceConfigure  driverlib.lib(adc.o)
    0x0000309c   0x0000309c   0x00000024   Code   RO          468    i.ADCSequenceDataGet  driverlib.lib(adc.o)
    0x000030c0   0x000030c0   0x0000000e   Code   RO          470    i.ADCSequenceEnable  driverlib.lib(adc.o)
    0x000030ce   0x000030ce   0x0000009a   Code   RO          473    i.ADCSequenceStepConfigure  driverlib.lib(adc.o)
    0x00003168   0x00003168   0x00000028   Code   RO          722    i.GPIODirModeSet    driverlib.lib(gpio.o)
    0x00003190   0x00003190   0x00000138   Code   RO          734    i.GPIOPadConfigSet  driverlib.lib(gpio.o)
    0x000032c8   0x000032c8   0x00000044   Code   RO          735    i.GPIOPinConfigure  driverlib.lib(gpio.o)
    0x0000330c   0x0000330c   0x00000006   Code   RO          736    i.GPIOPinRead       driverlib.lib(gpio.o)
    0x00003312   0x00003312   0x0000001c   Code   RO          737    i.GPIOPinTypeADC    driverlib.lib(gpio.o)
    0x0000332e   0x0000332e   0x0000001c   Code   RO          745    i.GPIOPinTypeGPIOInput  driverlib.lib(gpio.o)
    0x0000334a   0x0000334a   0x0000001c   Code   RO          749    i.GPIOPinTypeI2C    driverlib.lib(gpio.o)
    0x00003366   0x00003366   0x0000001c   Code   RO          750    i.GPIOPinTypeI2CSCL  driverlib.lib(gpio.o)
    0x00003382   0x00003382   0x0000001c   Code   RO          753    i.GPIOPinTypePWM    driverlib.lib(gpio.o)
    0x0000339e   0x0000339e   0x0000001c   Code   RO          756    i.GPIOPinTypeTimer  driverlib.lib(gpio.o)
    0x000033ba   0x000033ba   0x00000006   Code   RO         2380    i.GrContextFontSet  grlib.lib(string.o)
    0x000033c0   0x000033c0   0x00000064   Code   RO         2301    i.GrContextInit     grlib.lib(context.o)
    0x00003424   0x00003424   0x00000118   Code   RO         2381    i.GrDefaultStringRenderer  grlib.lib(string.o)
    0x0000353c   0x0000353c   0x0000002c   Code   RO         2382    i.GrFontBaselineGet  grlib.lib(string.o)
    0x00003568   0x00003568   0x000000a6   Code   RO         2385    i.GrFontGlyphDataGet  grlib.lib(string.o)
    0x0000360e   0x0000360e   0x00000288   Code   RO         2386    i.GrFontGlyphRender  grlib.lib(string.o)
    0x00003896   0x00003896   0x00000008   Code   RO         3263    i.GrMapISO8859_1_Unicode  grlib.lib(charmap.o)
    0x0000389e   0x0000389e   0x000000b4   Code   RO         2350    i.GrRectFill        grlib.lib(rectangle.o)
    0x00003952   0x00003952   0x00000020   Code   RO         2392    i.GrStringDraw      grlib.lib(string.o)
    0x00003972   0x00003972   0x000000c0   Code   RO         2397    i.GrStringWidthGet  grlib.lib(string.o)
    0x00003a32   0x00003a32   0x00000002   PAD
    0x00003a34   0x00003a34   0x00000060   Code   RO         1029    i.I2CIntRegister    driverlib.lib(i2c.o)
    0x00003a94   0x00003a94   0x00000004   Code   RO         1033    i.I2CMasterBurstLengthSet  driverlib.lib(i2c.o)
    0x00003a98   0x00003a98   0x0000000c   Code   RO         1034    i.I2CMasterBusBusy  driverlib.lib(i2c.o)
    0x00003aa4   0x00003aa4   0x0000000c   Code   RO         1035    i.I2CMasterBusy     driverlib.lib(i2c.o)
    0x00003ab0   0x00003ab0   0x00000004   Code   RO         1036    i.I2CMasterControl  driverlib.lib(i2c.o)
    0x00003ab4   0x00003ab4   0x00000004   Code   RO         1037    i.I2CMasterDataGet  driverlib.lib(i2c.o)
    0x00003ab8   0x00003ab8   0x00000004   Code   RO         1038    i.I2CMasterDataPut  driverlib.lib(i2c.o)
    0x00003abc   0x00003abc   0x0000000a   Code   RO         1040    i.I2CMasterEnable   driverlib.lib(i2c.o)
    0x00003ac6   0x00003ac6   0x00000018   Code   RO         1041    i.I2CMasterErr      driverlib.lib(i2c.o)
    0x00003ade   0x00003ade   0x00000002   PAD
    0x00003ae0   0x00003ae0   0x00000054   Code   RO         1042    i.I2CMasterGlitchFilterConfigSet  driverlib.lib(i2c.o)
    0x00003b34   0x00003b34   0x00000054   Code   RO         1043    i.I2CMasterInitExpClk  driverlib.lib(i2c.o)
    0x00003b88   0x00003b88   0x00000008   Code   RO         1044    i.I2CMasterIntClear  driverlib.lib(i2c.o)
    0x00003b90   0x00003b90   0x00000004   Code   RO         1045    i.I2CMasterIntClearEx  driverlib.lib(i2c.o)
    0x00003b94   0x00003b94   0x00000008   Code   RO         1049    i.I2CMasterIntEnableEx  driverlib.lib(i2c.o)
    0x00003b9c   0x00003b9c   0x00000008   Code   RO         1053    i.I2CMasterSlaveAddrSet  driverlib.lib(i2c.o)
    0x00003ba4   0x00003ba4   0x00000004   Code   RO         1054    i.I2CMasterTimeoutSet  driverlib.lib(i2c.o)
    0x00003ba8   0x00003ba8   0x00000064   Code   RO         1362    i.IntEnable         driverlib.lib(interrupt.o)
    0x00003c0c   0x00003c0c   0x00000034   Code   RO         1374    i.IntRegister       driverlib.lib(interrupt.o)
    0x00003c40   0x00003c40   0x00000014   Code   RO         1478    i.PWMClockSet       driverlib.lib(pwm.o)
    0x00003c54   0x00003c54   0x00000026   Code   RO         1485    i.PWMGenConfigure   driverlib.lib(pwm.o)
    0x00003c7a   0x00003c7a   0x0000000a   Code   RO         1486    i.PWMGenDisable     driverlib.lib(pwm.o)
    0x00003c84   0x00003c84   0x0000000a   Code   RO         1487    i.PWMGenEnable      driverlib.lib(pwm.o)
    0x00003c8e   0x00003c8e   0x00000012   Code   RO         1499    i.PWMGenPeriodGet   driverlib.lib(pwm.o)
    0x00003ca0   0x00003ca0   0x00000012   Code   RO         1500    i.PWMGenPeriodSet   driverlib.lib(pwm.o)
    0x00003cb2   0x00003cb2   0x00000010   Code   RO         1506    i.PWMOutputInvert   driverlib.lib(pwm.o)
    0x00003cc2   0x00003cc2   0x00000010   Code   RO         1507    i.PWMOutputState    driverlib.lib(pwm.o)
    0x00003cd2   0x00003cd2   0x00000020   Code   RO         1510    i.PWMPulseWidthSet  driverlib.lib(pwm.o)
    0x00003cf2   0x00003cf2   0x00000002   PAD
    0x00003cf4   0x00003cf4   0x000002ec   Code   RO         1712    i.SysCtlClockFreqSet  driverlib.lib(sysctl.o)
    0x00003fe0   0x00003fe0   0x00000028   Code   RO         1744    i.SysCtlPeripheralEnable  driverlib.lib(sysctl.o)
    0x00004008   0x00004008   0x0000002c   Code   RO         1748    i.SysCtlPeripheralReady  driverlib.lib(sysctl.o)
    0x00004034   0x00004034   0x0000003c   Code   RO         1749    i.SysCtlPeripheralReset  driverlib.lib(sysctl.o)
    0x00004070   0x00004070   0x00000006   Code   RO         2061    i.TimerClockSourceSet  driverlib.lib(timer.o)
    0x00004076   0x00004076   0x00000002   PAD
    0x00004078   0x00004078   0x00000060   Code   RO         2062    i.TimerConfigure    driverlib.lib(timer.o)
    0x000040d8   0x000040d8   0x00000016   Code   RO         2064    i.TimerControlLevel  driverlib.lib(timer.o)
    0x000040ee   0x000040ee   0x0000000e   Code   RO         2071    i.TimerEnable       driverlib.lib(timer.o)
    0x000040fc   0x000040fc   0x00000012   Code   RO         2080    i.TimerLoadSet      driverlib.lib(timer.o)
    0x0000410e   0x0000410e   0x00000012   Code   RO         2084    i.TimerMatchSet     driverlib.lib(timer.o)
    0x00004120   0x00004120   0x00000012   Code   RO         2089    i.TimerPrescaleSet  driverlib.lib(timer.o)
    0x00004132   0x00004132   0x0000002a   Code   RO         2093    i.TimerUpdateMode   driverlib.lib(timer.o)
    0x0000415c   0x0000415c   0x0000006c   Code   RO         2398    i.UpdateContextCharMapping  grlib.lib(string.o)
    0x000041c8   0x000041c8   0x00000046   Code   RO         3771    i._init_box         RTX_CM4.lib(rt_membox.o)
    0x0000420e   0x0000420e   0x00000002   PAD
    0x00004210   0x00004210   0x00000030   Code   RO         3824    i.dbg_init          RTX_CM4.lib(hal_cm.o)
    0x00004240   0x00004240   0x00000020   Code   RO         3825    i.dbg_task_notify   RTX_CM4.lib(hal_cm.o)
    0x00004260   0x00004260   0x00000010   Code   RO         3826    i.dbg_task_switch   RTX_CM4.lib(hal_cm.o)
    0x00004270   0x00004270   0x0000002a   Code   RO         2510    i.isrMessageGet     RTX_CM4.lib(rt_cmsis.o)
    0x0000429a   0x0000429a   0x0000002c   Code   RO         2511    i.isrMessagePut     RTX_CM4.lib(rt_cmsis.o)
    0x000042c6   0x000042c6   0x00000024   Code   RO         2513    i.isrSignalSet      RTX_CM4.lib(rt_cmsis.o)
    0x000042ea   0x000042ea   0x00000002   PAD
    0x000042ec   0x000042ec   0x00000028   Code   RO         3529    i.isr_evt_set       RTX_CM4.lib(rt_event.o)
    0x00004314   0x00004314   0x00000056   Code   RO         3647    i.isr_mbx_receive   RTX_CM4.lib(rt_mailbox.o)
    0x0000436a   0x0000436a   0x0000000e   Code   RO         3648    i.isr_mbx_send      RTX_CM4.lib(rt_mailbox.o)
    0x00004378   0x00004378   0x00000018   Code   RO         2514    i.osDelay           RTX_CM4.lib(rt_cmsis.o)
    0x00004390   0x00004390   0x00000024   Code   RO         2515    i.osKernelInitialize  RTX_CM4.lib(rt_cmsis.o)
    0x000043b4   0x000043b4   0x0000006c   Code   RO         2517    i.osKernelStart     RTX_CM4.lib(rt_cmsis.o)
    0x00004420   0x00004420   0x00000018   Code   RO         2526    i.osMessageGet      RTX_CM4.lib(rt_cmsis.o)
    0x00004438   0x00004438   0x00000018   Code   RO         2541    i.osSignalSet       RTX_CM4.lib(rt_cmsis.o)
    0x00004450   0x00004450   0x00000018   Code   RO         2542    i.osSignalWait      RTX_CM4.lib(rt_cmsis.o)
    0x00004468   0x00004468   0x0000002c   Code   RO         2543    i.osThreadCreate    RTX_CM4.lib(rt_cmsis.o)
    0x00004494   0x00004494   0x00000018   Code   RO         2544    i.osThreadExit      RTX_CM4.lib(rt_cmsis.o)
    0x000044ac   0x000044ac   0x0000000c   Code   RO         2550    i.osTimerCall       RTX_CM4.lib(rt_cmsis.o)
    0x000044b8   0x000044b8   0x0000002c   Code   RO         2555    i.osTimerThread     RTX_CM4.lib(rt_cmsis.o)
    0x000044e4   0x000044e4   0x00000028   Code   RO         3439    i.os_tick_init      RTX_CM4.lib(rt_system.o)
    0x0000450c   0x0000450c   0x00000002   Code   RO         3440    i.os_tick_irqack    RTX_CM4.lib(rt_system.o)
    0x0000450e   0x0000450e   0x0000001a   Code   RO         3772    i.rt_alloc_box      RTX_CM4.lib(rt_membox.o)
    0x00004528   0x00004528   0x0000003e   Code   RO         3800    i.rt_alloc_mem      RTX_CM4.lib(rt_memory.o)
    0x00004566   0x00004566   0x00000002   PAD
    0x00004568   0x00004568   0x00000038   Code   RO         3129    i.rt_block          RTX_CM4.lib(rt_task.o)
    0x000045a0   0x000045a0   0x00000070   Code   RO         3571    i.rt_dec_dly        RTX_CM4.lib(rt_list.o)
    0x00004610   0x00004610   0x00000044   Code   RO         3130    i.rt_dispatch       RTX_CM4.lib(rt_task.o)
    0x00004654   0x00004654   0x00000006   Code   RO         3737    i.rt_dly_wait       RTX_CM4.lib(rt_time.o)
    0x0000465a   0x0000465a   0x00000002   PAD
    0x0000465c   0x0000465c   0x00000050   Code   RO         3532    i.rt_evt_psh        RTX_CM4.lib(rt_event.o)
    0x000046ac   0x000046ac   0x0000005c   Code   RO         3533    i.rt_evt_set        RTX_CM4.lib(rt_event.o)
    0x00004708   0x00004708   0x0000003c   Code   RO         3534    i.rt_evt_wait       RTX_CM4.lib(rt_event.o)
    0x00004744   0x00004744   0x0000002c   Code   RO         3773    i.rt_free_box       RTX_CM4.lib(rt_membox.o)
    0x00004770   0x00004770   0x00000028   Code   RO         3801    i.rt_free_mem       RTX_CM4.lib(rt_memory.o)
    0x00004798   0x00004798   0x00000028   Code   RO         3572    i.rt_get_first      RTX_CM4.lib(rt_list.o)
    0x000047c0   0x000047c0   0x00000008   Code   RO         2560    i.rt_id2obj         RTX_CM4.lib(rt_cmsis.o)
    0x000047c8   0x000047c8   0x00000048   Code   RO         3131    i.rt_init_context   RTX_CM4.lib(rt_task.o)
    0x00004810   0x00004810   0x0000001a   Code   RO         3802    i.rt_init_mem       RTX_CM4.lib(rt_memory.o)
    0x0000482a   0x0000482a   0x00000002   PAD
    0x0000482c   0x0000482c   0x00000080   Code   RO         3827    i.rt_init_stack     RTX_CM4.lib(hal_cm.o)
    0x000048ac   0x000048ac   0x00000008   Code   RO         3649    i.rt_mbx_check      RTX_CM4.lib(rt_mailbox.o)
    0x000048b4   0x000048b4   0x0000001a   Code   RO         3650    i.rt_mbx_init       RTX_CM4.lib(rt_mailbox.o)
    0x000048ce   0x000048ce   0x00000002   PAD
    0x000048d0   0x000048d0   0x000000f0   Code   RO         3651    i.rt_mbx_psh        RTX_CM4.lib(rt_mailbox.o)
    0x000049c0   0x000049c0   0x000000b4   Code   RO         3653    i.rt_mbx_wait       RTX_CM4.lib(rt_mailbox.o)
    0x00004a74   0x00004a74   0x00000044   Code   RO         2561    i.rt_ms2tick        RTX_CM4.lib(rt_cmsis.o)
    0x00004ab8   0x00004ab8   0x00000010   Code   RO         3214    i.rt_mut_init       RTX_CM4.lib(rt_mutex.o)
    0x00004ac8   0x00004ac8   0x000000d8   Code   RO         3215    i.rt_mut_release    RTX_CM4.lib(rt_mutex.o)
    0x00004ba0   0x00004ba0   0x00000078   Code   RO         3216    i.rt_mut_wait       RTX_CM4.lib(rt_mutex.o)
    0x00004c18   0x00004c18   0x0000007c   Code   RO         3443    i.rt_pop_req        RTX_CM4.lib(rt_system.o)
    0x00004c94   0x00004c94   0x00000020   Code   RO         3444    i.rt_psh_req        RTX_CM4.lib(rt_system.o)
    0x00004cb4   0x00004cb4   0x0000005c   Code   RO         3574    i.rt_psq_enq        RTX_CM4.lib(rt_list.o)
    0x00004d10   0x00004d10   0x00000048   Code   RO         3575    i.rt_put_dly        RTX_CM4.lib(rt_list.o)
    0x00004d58   0x00004d58   0x00000036   Code   RO         3576    i.rt_put_prio       RTX_CM4.lib(rt_list.o)
    0x00004d8e   0x00004d8e   0x00000002   PAD
    0x00004d90   0x00004d90   0x00000014   Code   RO         3577    i.rt_put_rdy_first  RTX_CM4.lib(rt_list.o)
    0x00004da4   0x00004da4   0x00000034   Code   RO         3578    i.rt_resort_prio    RTX_CM4.lib(rt_list.o)
    0x00004dd8   0x00004dd8   0x00000010   Code   RO         3828    i.rt_ret_regs       RTX_CM4.lib(hal_cm.o)
    0x00004de8   0x00004de8   0x0000000c   Code   RO         3829    i.rt_ret_val        RTX_CM4.lib(hal_cm.o)
    0x00004df4   0x00004df4   0x00000010   Code   RO         3830    i.rt_ret_val2       RTX_CM4.lib(hal_cm.o)
    0x00004e04   0x00004e04   0x00000028   Code   RO         3579    i.rt_rmv_dly        RTX_CM4.lib(rt_list.o)
    0x00004e2c   0x00004e2c   0x00000030   Code   RO         3580    i.rt_rmv_list       RTX_CM4.lib(rt_list.o)
    0x00004e5c   0x00004e5c   0x00000034   Code   RO         3698    i.rt_sem_psh        RTX_CM4.lib(rt_semaphore.o)
    0x00004e90   0x00004e90   0x00000024   Code   RO         3446    i.rt_stk_check      RTX_CM4.lib(rt_system.o)
    0x00004eb4   0x00004eb4   0x00000028   Code   RO         3132    i.rt_switch_req     RTX_CM4.lib(rt_task.o)
    0x00004edc   0x00004edc   0x000000cc   Code   RO         3133    i.rt_sys_init       RTX_CM4.lib(rt_task.o)
    0x00004fa8   0x00004fa8   0x00000078   Code   RO         3134    i.rt_sys_start      RTX_CM4.lib(rt_task.o)
    0x00005020   0x00005020   0x00000040   Code   RO         3448    i.rt_systick        RTX_CM4.lib(rt_system.o)
    0x00005060   0x00005060   0x00000012   Code   RO         2562    i.rt_tid2ptcb       RTX_CM4.lib(rt_cmsis.o)
    0x00005072   0x00005072   0x00000002   PAD
    0x00005074   0x00005074   0x00000034   Code   RO         2563    i.rt_timer_insert   RTX_CM4.lib(rt_cmsis.o)
    0x000050a8   0x000050a8   0x00000088   Code   RO         3135    i.rt_tsk_create     RTX_CM4.lib(rt_task.o)
    0x00005130   0x00005130   0x0000017c   Code   RO         3136    i.rt_tsk_delete     RTX_CM4.lib(rt_task.o)
    0x000052ac   0x000052ac   0x0000007c   Code   RO         3138    i.rt_tsk_prio       RTX_CM4.lib(rt_task.o)
    0x00005328   0x00005328   0x00000010   Code   RO         3139    i.rt_tsk_self       RTX_CM4.lib(rt_task.o)
    0x00005338   0x00005338   0x00000012   Code   RO         2565    i.svcDelay          RTX_CM4.lib(rt_cmsis.o)
    0x0000534a   0x0000534a   0x00000002   PAD
    0x0000534c   0x0000534c   0x00000070   Code   RO         2566    i.svcKernelInitialize  RTX_CM4.lib(rt_cmsis.o)
    0x000053bc   0x000053bc   0x00000048   Code   RO         2568    i.svcKernelStart    RTX_CM4.lib(rt_cmsis.o)
    0x00005404   0x00005404   0x00000024   Code   RO         2571    i.svcMessageCreate  RTX_CM4.lib(rt_cmsis.o)
    0x00005428   0x00005428   0x0000003a   Code   RO         2572    i.svcMessageGet     RTX_CM4.lib(rt_cmsis.o)
    0x00005462   0x00005462   0x00000024   Code   RO         2584    i.svcSignalSet      RTX_CM4.lib(rt_cmsis.o)
    0x00005486   0x00005486   0x00000002   PAD
    0x00005488   0x00005488   0x00000054   Code   RO         2585    i.svcSignalWait     RTX_CM4.lib(rt_cmsis.o)
    0x000054dc   0x000054dc   0x0000006c   Code   RO         2586    i.svcThreadCreate   RTX_CM4.lib(rt_cmsis.o)
    0x00005548   0x00005548   0x0000001c   Code   RO         2587    i.svcThreadGetId    RTX_CM4.lib(rt_cmsis.o)
    0x00005564   0x00005564   0x00000038   Code   RO         2590    i.svcThreadTerminate  RTX_CM4.lib(rt_cmsis.o)
    0x0000559c   0x0000559c   0x00000018   Code   RO         2592    i.svcTimerCall      RTX_CM4.lib(rt_cmsis.o)
    0x000055b4   0x000055b4   0x0000005c   Code   RO         2601    i.sysTimerTick      RTX_CM4.lib(rt_cmsis.o)
    0x00005610   0x00005610   0x0000000a   Code   RO         4051    x$fpl$fpinit        fz_wm.l(fpinit.o)
    0x0000561a   0x0000561a   0x00000002   PAD
    0x0000561c   0x0000561c   0x00000070   Data   RO            6    .constdata          blinky.o
    0x0000568c   0x0000568c   0x00000040   Data   RO          187    .constdata          cfaf128x128x16.o
    0x000056cc   0x000056cc   0x00000010   Data   RO          212    .constdata          led.o
    0x000056dc   0x000056dc   0x00000068   Data   RO          342    .constdata          rtx_conf_cm.o
    0x00005744   0x00005744   0x00000228   Data   RO          766    .constdata          driverlib.lib(gpio.o)
    0x0000596c   0x0000596c   0x00000080   Data   RO         1078    .constdata          driverlib.lib(i2c.o)
    0x000059ec   0x000059ec   0x0000010c   Data   RO         1378    .constdata          driverlib.lib(interrupt.o)
    0x00005af8   0x00005af8   0x00000254   Data   RO         1766    .constdata          driverlib.lib(sysctl.o)
    0x00005d4c   0x00005d4c   0x00000010   Data   RO         2303    .constdata          grlib.lib(context.o)
    0x00005d5c   0x00005d5c   0x000002f8   Data   RO         2335    .constdata          grlib.lib(fontfixed6x8.o)
    0x00006054   0x00006054   0x000000c8   Data   RO         2336    .constdata          grlib.lib(fontfixed6x8.o)
    0x0000611c   0x0000611c   0x00000025   Data   RO            7    .conststring        blinky.o
    0x00006141   0x00006141   0x00000003   PAD
    0x00006144   0x00006144   0x00000020   Data   RO         4085    Region$$Table       anon$$obj.o


    Execution Region RW_IRAM1 (Exec base: 0x20000000, Load base: 0x00006164, Size: 0x00002d10, Max: 0x00040000, ABSOLUTE, COMPRESSED[0x00000018])

    Exec Addr    Load Addr    Size         Type   Attr      Idx    E Section Name        Object

    0x20000000   COMPRESSED   0x00000034   Data   RW            8    .data               blinky.o
    0x20000034   COMPRESSED   0x0000000b   Data   RW          122    .data               buzzer.o
    0x2000003f   COMPRESSED   0x00000001   PAD
    0x20000040   COMPRESSED   0x00000005   Data   RW          188    .data               cfaf128x128x16.o
    0x20000045   COMPRESSED   0x00000003   PAD
    0x20000048   COMPRESSED   0x0000000f   Data   RW          266    .data               opt.o
    0x20000057   COMPRESSED   0x00000001   PAD
    0x20000058   COMPRESSED   0x00000007   Data   RW          295    .data               rgb.o
    0x2000005f   COMPRESSED   0x00000001   PAD
    0x20000060   COMPRESSED   0x00000008   Data   RW          309    .data               servo.o
    0x20000068   COMPRESSED   0x0000000b   Data   RW          326    .data               temp.o
    0x20000073   COMPRESSED   0x00000001   PAD
    0x20000074   COMPRESSED   0x00000014   Data   RW          343    .data               rtx_conf_cm.o
    0x20000088   COMPRESSED   0x00000004   Data   RW          413    .data               system_tm4c129.o
    0x2000008c   COMPRESSED   0x00000004   Data   RW         2304    .data               grlib.lib(context.o)
    0x20000090   COMPRESSED   0x00000008   Data   RW         2604    .data               RTX_CM4.lib(rt_cmsis.o)
    0x20000098   COMPRESSED   0x00000008   Data   RW         3141    .data               RTX_CM4.lib(rt_task.o)
    0x200000a0   COMPRESSED   0x00000008   Data   RW         3451    .data               RTX_CM4.lib(rt_system.o)
    0x200000a8   COMPRESSED   0x00000004   Data   RW         3741    .data               RTX_CM4.lib(rt_time.o)
    0x200000ac   COMPRESSED   0x00000001   Data   RW         3831    .data               RTX_CM4.lib(hal_cm.o)
    0x200000ad   COMPRESSED   0x00000353   PAD
    0x20000400   COMPRESSED   0x0000026c   Data   RW         1379    vtable              driverlib.lib(interrupt.o)
    0x2000066c        -       0x00000036   Zero   RW            5    .bss                blinky.o
    0x200006a2   COMPRESSED   0x00000006   PAD
    0x200006a8        -       0x000023a0   Zero   RW          341    .bss                rtx_conf_cm.o
    0x20002a48        -       0x00000034   Zero   RW         3140    .bss                RTX_CM4.lib(rt_task.o)
    0x20002a7c        -       0x00000030   Zero   RW         3581    .bss                RTX_CM4.lib(rt_list.o)
    0x20002aac        -       0x00000060   Zero   RW         3914    .bss                c_w.l(libspace.o)
    0x20002b0c   COMPRESSED   0x00000004   PAD
    0x20002b10        -       0x00000000   Zero   RW          403    HEAP                startup_tm4c129.o
    0x20002b10        -       0x00000200   Zero   RW          402    STACK               startup_tm4c129.o


==============================================================================

Image component sizes


      Code (inc. data)   RO Data    RW Data    ZI Data      Debug   Object Name

       180         16          0          0          0       1244   accel.o
      2528        154        149         52         54      41002   blinky.o
        88         10          0          0          0        856   buttons.o
       392         48          0         11          0       2357   buzzer.o
      2208         98         64          5          0      10998   cfaf128x128x16.o
       220         20          0          0          0       1289   joy.o
       388         32         16          0          0       1775   led.o
       152         16          0          0          0        952   mic.o
      1596         92          0         15          0       4684   opt.o
       644         54          0          7          0       1917   rgb.o
       204         36        104         20       9120       9332   rtx_conf_cm.o
       260         44          0          8          0        993   servo.o
       300         22        512          0        512       6052   startup_tm4c129.o
        40         12          0          4          0        925   system_tm4c129.o
      1496         78          0         11          0       4748   temp.o

    ----------------------------------------------------------------------
     10696        732        880        140       9692      89124   Object Totals
         0          0         32          0          0          0   (incl. Generated)
         0          0          3          7          6          0   (incl. Padding)

    ----------------------------------------------------------------------

      Code (inc. data)   RO Data    RW Data    ZI Data      Debug   Library Member Name

       268         24          0          1          0       4524   hal_cm.o
       408         34          0          0          0        824   hal_cm4.o
      1356        160          0          8          0      39206   rt_cmsis.o
       272         18          0          0          0       2842   rt_event.o
       530         34          0          0         48       8685   rt_list.o
       554         10          0          0          0       4237   rt_mailbox.o
       140          0          0          0          0       2069   rt_membox.o
       128          0          0          0          0       2451   rt_memory.o
       352         14          0          0          0       2249   rt_mutex.o
        52          4          0          0          0        621   rt_semaphore.o
       298         52          0          8          0       6511   rt_system.o
      1216        174          0          8         52      10129   rt_task.o
         6          0          0          4          0        700   rt_time.o
         4          4          0          0          0        208   svc_table.o
        58          0          0          0          0          0   __dczerorl.o
         8          0          0          0          0         68   __main.o
         0          0          0          0          0          0   __rtentry.o
        20          0          0          0          0          0   __rtentry2.o
         6          0          0          0          0          0   __rtentry4.o
        52          8          0          0          0          0   __scatter.o
        28          0          0          0          0          0   __scatter_zi.o
        18          0          0          0          0         80   exit.o
         6          0          0          0          0        152   heapauxi.o
         0          0          0          0          0          0   indicate_semi.o
         2          0          0          0          0          0   libinit.o
         6          0          0          0          0          0   libinit2.o
         2          0          0          0          0          0   libshutdown.o
         2          0          0          0          0          0   libshutdown2.o
         8          4          0          0         96         68   libspace.o
        72          0          0          0          0         76   llsdiv.o
       238          0          0          0          0        100   lludivv7m.o
         2          0          0          0          0          0   rtexit.o
        10          0          0          0          0          0   rtexit2.o
        12          4          0          0          0         68   sys_exit.o
        74          0          0          0          0         80   sys_stackheap_outer.o
         2          0          0          0          0         68   use_no_semi.o
       388          0          0          0          0       8694   adc.o
       594          8        552          0          0       7550   gpio.o
       370         38        128          0          0      10349   i2c.o
       152         16        268        620          0       2298   interrupt.o
       178          0          0          0          0       5153   pwm.o
       898         54        596          0          0       6458   sysctl.o
       234          8          0          0          0       4761   timer.o
        10          0          0          0          0        116   fpinit.o
         8          0          0          0          0       1494   charmap.o
       100         12         16          4          0      26443   context.o
         0          0        960          0          0      25662   fontfixed6x8.o
       180          0          0          0          0       1494   rectangle.o
      1476          0          0          0          0      11238   string.o

    ----------------------------------------------------------------------
     10836        680       2520       1504        200     197726   Library Totals
        38          0          0        851          4          0   (incl. Padding)

    ----------------------------------------------------------------------

      Code (inc. data)   RO Data    RW Data    ZI Data      Debug   Library Name

      5584        528          0         29        100      85256   RTX_CM4.lib
       626         16          0          0         96        760   c_w.l
      2814        124       1544        620          0      45263   driverlib.lib
        10          0          0          0          0        116   fz_wm.l
      1764         12        976          4          0      66331   grlib.lib

    ----------------------------------------------------------------------
     10836        680       2520       1504        200     197726   Library Totals

    ----------------------------------------------------------------------

==============================================================================


      Code (inc. data)   RO Data    RW Data    ZI Data      Debug   

     21532       1412       3400       1644       9892     270490   Grand Totals
     21532       1412       3400         24       9892     270490   ELF Image Totals (compressed)
     21532       1412       3400         24          0          0   ROM Totals

==============================================================================

    Total RO  Size (Code + RO Data)                24932 (  24.35kB)
    Total RW  Size (RW Data + ZI Data)             11536 (  11.27kB)
    Total ROM Size (Code + RO Data + RW Data)      24956 (  24.37kB)

==============================================================================

