Component: ARM Compiler 5.06 update 5 (build 528) Tool: armlink [4d35e2]

==============================================================================

Section Cross References

    blinky.o(.text) refers to llsdiv.o(.text) for __aeabi_ldivmod
    blinky.o(.text) refers to ffixll.o(x$fpl$llsfromf) for __aeabi_f2lz
    blinky.o(.text) refers to cfaf128x128x16.o(.text) for cfaf128x128x16Init
    blinky.o(.text) refers to joy.o(.text) for joy_init
    blinky.o(.text) refers to accel.o(.text) for accel_init
    blinky.o(.text) refers to buzzer.o(.text) for buzzer_init
    blinky.o(.text) refers to buttons.o(.text) for button_init
    blinky.o(.text) refers to mic.o(.text) for mic_init
    blinky.o(.text) refers to rgb.o(.text) for rgb_init
    blinky.o(.text) refers to servo.o(.text) for servo_init
    blinky.o(.text) refers to temp.o(.text) for temp_init
    blinky.o(.text) refers to opt.o(.text) for opt_init
    blinky.o(.text) refers to led.o(.text) for led_init
    blinky.o(.text) refers to circle.o(i.GrCircleDraw) for GrCircleDraw
    blinky.o(.text) refers to circle.o(i.GrCircleFill) for GrCircleFill
    blinky.o(.text) refers to context.o(i.GrContextInit) for GrContextInit
    blinky.o(.text) refers to string.o(i.GrContextFontSet) for GrContextFontSet
    blinky.o(.text) refers to string.o(i.GrStringDraw) for GrStringDraw
    blinky.o(.text) refers to rt_cmsis.o(i.osMutexWait) for osMutexWait
    blinky.o(.text) refers to rt_cmsis.o(i.osMutexRelease) for osMutexRelease
    blinky.o(.text) refers to blinky.o(.data) for .data
    blinky.o(.text) refers to blinky.o(.bss) for .bss
    blinky.o(.text) refers to cfaf128x128x16.o(.constdata) for g_sCfaf128x128x16
    blinky.o(.text) refers to fontfixed6x8.o(.constdata) for g_sFontFixed6x8
    blinky.o(.text) refers to rt_cmsis.o(i.osDelay) for osDelay
    blinky.o(.text) refers to rt_cmsis.o(i.osMailGet) for osMailGet
    blinky.o(.text) refers to rt_cmsis.o(i.osMailFree) for osMailFree
    blinky.o(.text) refers to rectangle.o(i.GrRectFill) for GrRectFill
    blinky.o(.text) refers to f2d.o(x$fpl$f2d) for __aeabi_f2d
    blinky.o(.text) refers to daddsub_clz.o(x$fpl$dsub) for __aeabi_dsub
    blinky.o(.text) refers to dmul.o(x$fpl$dmul) for __aeabi_dmul
    blinky.o(.text) refers to d2f.o(x$fpl$d2f) for __aeabi_d2f
    blinky.o(.text) refers to dflt_clz.o(x$fpl$dflt) for __aeabi_i2d
    blinky.o(.text) refers to dflt_clz.o(x$fpl$dfltu) for __aeabi_ui2d
    blinky.o(.text) refers to ddiv.o(x$fpl$ddiv) for __aeabi_ddiv
    blinky.o(.text) refers to rt_cmsis.o(i.osMailAlloc) for osMailAlloc
    blinky.o(.text) refers to rt_cmsis.o(i.osMailPut) for osMailPut
    blinky.o(.text) refers to rt_cmsis.o(i.osKernelInitialize) for osKernelInitialize
    blinky.o(.text) refers to rt_cmsis.o(i.osThreadCreate) for osThreadCreate
    blinky.o(.text) refers to rt_cmsis.o(i.osMutexCreate) for osMutexCreate
    blinky.o(.text) refers to rt_cmsis.o(i.osMailCreate) for osMailCreate
    blinky.o(.text) refers to rt_cmsis.o(i.osKernelStart) for osKernelStart
    blinky.o(.text) refers to blinky.o(.constdata) for .constdata
    blinky.o(.constdata) refers to blinky.o(.bss) for os_mutex_cb_m_display
    blinky.o(.constdata) refers to blinky.o(.bss) for os_mutex_cb_m_adc
    blinky.o(.constdata) refers to blinky.o(.bss) for os_mutex_cb_m_i2c
    blinky.o(.constdata) refers to blinky.o(.text) for t_buzzer
    blinky.o(.constdata) refers to blinky.o(.data) for os_mailQ_p_mq_accel_to_rgb
    blinky.o(.constdata) refers to blinky.o(.data) for os_mailQ_p_mq_joy_to_rgb
    blinky.o(.constdata) refers to blinky.o(.data) for os_mailQ_p_mq_joy_to_servo
    blinky.o(.data) refers to blinky.o(.bss) for os_mailQ_q_mq_accel_to_rgb
    blinky.o(.data) refers to blinky.o(.bss) for os_mailQ_m_mq_accel_to_rgb
    blinky.o(.data) refers to blinky.o(.bss) for os_mailQ_q_mq_joy_to_rgb
    blinky.o(.data) refers to blinky.o(.bss) for os_mailQ_m_mq_joy_to_rgb
    blinky.o(.data) refers to blinky.o(.bss) for os_mailQ_q_mq_joy_to_servo
    blinky.o(.data) refers to blinky.o(.bss) for os_mailQ_m_mq_joy_to_servo
    blinky.o(.data) refers to blinky.o(.conststring) for .conststring
    buzzer.o(.text) refers to pwm.o(i.PWMClockSet) for PWMClockSet
    buzzer.o(.text) refers to pwm.o(i.PWMOutputState) for PWMOutputState
    buzzer.o(.text) refers to pwm.o(i.PWMGenPeriodGet) for PWMGenPeriodGet
    buzzer.o(.text) refers to pwm.o(i.PWMPulseWidthSet) for PWMPulseWidthSet
    buzzer.o(.text) refers to pwm.o(i.PWMGenPeriodSet) for PWMGenPeriodSet
    buzzer.o(.text) refers to sysctl.o(i.SysCtlPeripheralEnable) for SysCtlPeripheralEnable
    buzzer.o(.text) refers to sysctl.o(i.SysCtlPeripheralReady) for SysCtlPeripheralReady
    buzzer.o(.text) refers to gpio.o(i.GPIOPinTypePWM) for GPIOPinTypePWM
    buzzer.o(.text) refers to gpio.o(i.GPIOPinConfigure) for GPIOPinConfigure
    buzzer.o(.text) refers to pwm.o(i.PWMGenConfigure) for PWMGenConfigure
    buzzer.o(.text) refers to pwm.o(i.PWMOutputInvert) for PWMOutputInvert
    buzzer.o(.text) refers to pwm.o(i.PWMGenEnable) for PWMGenEnable
    buzzer.o(.text) refers to buzzer.o(.data) for .data
    accel.o(.text) refers to sysctl.o(i.SysCtlPeripheralEnable) for SysCtlPeripheralEnable
    accel.o(.text) refers to adc.o(i.ADCSequenceStepConfigure) for ADCSequenceStepConfigure
    accel.o(.text) refers to gpio.o(i.GPIOPinTypeADC) for GPIOPinTypeADC
    accel.o(.text) refers to adc.o(i.ADCSequenceConfigure) for ADCSequenceConfigure
    accel.o(.text) refers to adc.o(i.ADCSequenceEnable) for ADCSequenceEnable
    accel.o(.text) refers to adc.o(i.ADCIntClear) for ADCIntClear
    accel.o(.text) refers to adc.o(i.ADCProcessorTrigger) for ADCProcessorTrigger
    accel.o(.text) refers to adc.o(i.ADCIntStatus) for ADCIntStatus
    accel.o(.text) refers to adc.o(i.ADCSequenceDataGet) for ADCSequenceDataGet
    buttons.o(.text) refers to sysctl.o(i.SysCtlPeripheralEnable) for SysCtlPeripheralEnable
    buttons.o(.text) refers to sysctl.o(i.SysCtlPeripheralReady) for SysCtlPeripheralReady
    buttons.o(.text) refers to gpio.o(i.GPIOPinTypeGPIOInput) for GPIOPinTypeGPIOInput
    buttons.o(.text) refers to gpio.o(i.GPIOPinRead) for GPIOPinRead
    cfaf128x128x16.o(.text) refers to cfaf128x128x16.o(.data) for .data
    cfaf128x128x16.o(.text) refers to sysctl.o(i.SysCtlClockFreqSet) for SysCtlClockFreqSet
    cfaf128x128x16.o(.constdata) refers to cfaf128x128x16.o(.text) for cfaf128x128x16PixelDraw
    led.o(.text) refers to led.o(.constdata) for .constdata
    mic.o(.text) refers to sysctl.o(i.SysCtlPeripheralEnable) for SysCtlPeripheralEnable
    mic.o(.text) refers to adc.o(i.ADCSequenceStepConfigure) for ADCSequenceStepConfigure
    mic.o(.text) refers to gpio.o(i.GPIOPinTypeADC) for GPIOPinTypeADC
    mic.o(.text) refers to adc.o(i.ADCSequenceConfigure) for ADCSequenceConfigure
    mic.o(.text) refers to adc.o(i.ADCSequenceEnable) for ADCSequenceEnable
    mic.o(.text) refers to adc.o(i.ADCIntClear) for ADCIntClear
    mic.o(.text) refers to adc.o(i.ADCProcessorTrigger) for ADCProcessorTrigger
    mic.o(.text) refers to adc.o(i.ADCIntStatus) for ADCIntStatus
    mic.o(.text) refers to adc.o(i.ADCSequenceDataGet) for ADCSequenceDataGet
    opt.o(.text) refers to i2c.o(i.I2CMasterSlaveAddrSet) for I2CMasterSlaveAddrSet
    opt.o(.text) refers to i2c.o(i.I2CMasterDataPut) for I2CMasterDataPut
    opt.o(.text) refers to i2c.o(i.I2CMasterBusBusy) for I2CMasterBusBusy
    opt.o(.text) refers to sysctl.o(.emb_text) for SysCtlDelay
    opt.o(.text) refers to i2c.o(i.I2CMasterControl) for I2CMasterControl
    opt.o(.text) refers to i2c.o(i.I2CMasterBusy) for I2CMasterBusy
    opt.o(.text) refers to i2c.o(i.I2CMasterErr) for I2CMasterErr
    opt.o(.text) refers to i2c.o(i.I2CMasterDataGet) for I2CMasterDataGet
    opt.o(.text) refers to i2c.o(i.I2CMasterBurstLengthSet) for I2CMasterBurstLengthSet
    opt.o(.text) refers to i2c.o(i.I2CMasterIntClearEx) for I2CMasterIntClearEx
    opt.o(.text) refers to i2c.o(i.I2CMasterIntClear) for I2CMasterIntClear
    opt.o(.text) refers to opt.o(.data) for .data
    opt.o(.text) refers to sysctl.o(i.SysCtlClockFreqSet) for SysCtlClockFreqSet
    opt.o(.text) refers to sysctl.o(i.SysCtlPeripheralEnable) for SysCtlPeripheralEnable
    opt.o(.text) refers to sysctl.o(i.SysCtlPeripheralReset) for SysCtlPeripheralReset
    opt.o(.text) refers to sysctl.o(i.SysCtlPeripheralReady) for SysCtlPeripheralReady
    opt.o(.text) refers to gpio.o(i.GPIOPinTypeGPIOInput) for GPIOPinTypeGPIOInput
    opt.o(.text) refers to gpio.o(i.GPIOPinConfigure) for GPIOPinConfigure
    opt.o(.text) refers to gpio.o(i.GPIOPinTypeI2CSCL) for GPIOPinTypeI2CSCL
    opt.o(.text) refers to gpio.o(i.GPIOPinTypeI2C) for GPIOPinTypeI2C
    opt.o(.text) refers to i2c.o(i.I2CMasterTimeoutSet) for I2CMasterTimeoutSet
    opt.o(.text) refers to i2c.o(i.I2CMasterGlitchFilterConfigSet) for I2CMasterGlitchFilterConfigSet
    opt.o(.text) refers to i2c.o(i.I2CMasterInitExpClk) for I2CMasterInitExpClk
    opt.o(.text) refers to i2c.o(i.I2CMasterIntEnableEx) for I2CMasterIntEnableEx
    opt.o(.text) refers to i2c.o(i.I2CIntRegister) for I2CIntRegister
    opt.o(.text) refers to interrupt.o(i.IntEnable) for IntEnable
    opt.o(.text) refers to i2c.o(i.I2CMasterEnable) for I2CMasterEnable
    rgb.o(.text) refers to pwm.o(i.PWMOutputState) for PWMOutputState
    rgb.o(.text) refers to pwm.o(i.PWMGenPeriodGet) for PWMGenPeriodGet
    rgb.o(.text) refers to pwm.o(i.PWMPulseWidthSet) for PWMPulseWidthSet
    rgb.o(.text) refers to sysctl.o(i.SysCtlClockFreqSet) for SysCtlClockFreqSet
    rgb.o(.text) refers to sysctl.o(i.SysCtlPeripheralEnable) for SysCtlPeripheralEnable
    rgb.o(.text) refers to sysctl.o(i.SysCtlPeripheralReady) for SysCtlPeripheralReady
    rgb.o(.text) refers to pwm.o(i.PWMGenDisable) for PWMGenDisable
    rgb.o(.text) refers to gpio.o(i.GPIOPinTypePWM) for GPIOPinTypePWM
    rgb.o(.text) refers to pwm.o(i.PWMClockSet) for PWMClockSet
    rgb.o(.text) refers to gpio.o(i.GPIOPinConfigure) for GPIOPinConfigure
    rgb.o(.text) refers to pwm.o(i.PWMGenConfigure) for PWMGenConfigure
    rgb.o(.text) refers to pwm.o(i.PWMGenPeriodSet) for PWMGenPeriodSet
    rgb.o(.text) refers to pwm.o(i.PWMGenEnable) for PWMGenEnable
    rgb.o(.text) refers to rgb.o(.data) for .data
    servo.o(.text) refers to timer.o(i.TimerMatchSet) for TimerMatchSet
    servo.o(.text) refers to sysctl.o(i.SysCtlClockFreqSet) for SysCtlClockFreqSet
    servo.o(.text) refers to sysctl.o(i.SysCtlPeripheralEnable) for SysCtlPeripheralEnable
    servo.o(.text) refers to sysctl.o(i.SysCtlPeripheralReady) for SysCtlPeripheralReady
    servo.o(.text) refers to gpio.o(i.GPIOPinConfigure) for GPIOPinConfigure
    servo.o(.text) refers to gpio.o(i.GPIOPinTypeTimer) for GPIOPinTypeTimer
    servo.o(.text) refers to timer.o(i.TimerClockSourceSet) for TimerClockSourceSet
    servo.o(.text) refers to timer.o(i.TimerConfigure) for TimerConfigure
    servo.o(.text) refers to timer.o(i.TimerControlLevel) for TimerControlLevel
    servo.o(.text) refers to timer.o(i.TimerUpdateMode) for TimerUpdateMode
    servo.o(.text) refers to timer.o(i.TimerPrescaleSet) for TimerPrescaleSet
    servo.o(.text) refers to timer.o(i.TimerLoadSet) for TimerLoadSet
    servo.o(.text) refers to timer.o(i.TimerEnable) for TimerEnable
    servo.o(.text) refers to servo.o(.data) for .data
    joy.o(.text) refers to sysctl.o(i.SysCtlPeripheralEnable) for SysCtlPeripheralEnable
    joy.o(.text) refers to sysctl.o(i.SysCtlPeripheralReady) for SysCtlPeripheralReady
    joy.o(.text) refers to gpio.o(i.GPIOPinTypeGPIOInput) for GPIOPinTypeGPIOInput
    joy.o(.text) refers to adc.o(i.ADCSequenceStepConfigure) for ADCSequenceStepConfigure
    joy.o(.text) refers to gpio.o(i.GPIOPinTypeADC) for GPIOPinTypeADC
    joy.o(.text) refers to adc.o(i.ADCSequenceConfigure) for ADCSequenceConfigure
    joy.o(.text) refers to adc.o(i.ADCSequenceEnable) for ADCSequenceEnable
    joy.o(.text) refers to adc.o(i.ADCIntClear) for ADCIntClear
    joy.o(.text) refers to adc.o(i.ADCProcessorTrigger) for ADCProcessorTrigger
    joy.o(.text) refers to adc.o(i.ADCIntStatus) for ADCIntStatus
    joy.o(.text) refers to adc.o(i.ADCSequenceDataGet) for ADCSequenceDataGet
    joy.o(.text) refers to gpio.o(i.GPIOPinRead) for GPIOPinRead
    temp.o(.text) refers to i2c.o(i.I2CMasterSlaveAddrSet) for I2CMasterSlaveAddrSet
    temp.o(.text) refers to i2c.o(i.I2CMasterDataPut) for I2CMasterDataPut
    temp.o(.text) refers to i2c.o(i.I2CMasterBusBusy) for I2CMasterBusBusy
    temp.o(.text) refers to sysctl.o(.emb_text) for SysCtlDelay
    temp.o(.text) refers to i2c.o(i.I2CMasterControl) for I2CMasterControl
    temp.o(.text) refers to i2c.o(i.I2CMasterBusy) for I2CMasterBusy
    temp.o(.text) refers to i2c.o(i.I2CMasterErr) for I2CMasterErr
    temp.o(.text) refers to i2c.o(i.I2CMasterDataGet) for I2CMasterDataGet
    temp.o(.text) refers to i2c.o(i.I2CMasterBurstLengthSet) for I2CMasterBurstLengthSet
    temp.o(.text) refers to temp.o(.data) for .data
    temp.o(.text) refers to i2c.o(i.I2CMasterIntClearEx) for I2CMasterIntClearEx
    temp.o(.text) refers to i2c.o(i.I2CMasterIntClear) for I2CMasterIntClear
    temp.o(.text) refers to sysctl.o(i.SysCtlClockFreqSet) for SysCtlClockFreqSet
    temp.o(.text) refers to sysctl.o(i.SysCtlPeripheralEnable) for SysCtlPeripheralEnable
    temp.o(.text) refers to sysctl.o(i.SysCtlPeripheralReset) for SysCtlPeripheralReset
    temp.o(.text) refers to sysctl.o(i.SysCtlPeripheralReady) for SysCtlPeripheralReady
    temp.o(.text) refers to gpio.o(i.GPIOPinTypeGPIOInput) for GPIOPinTypeGPIOInput
    temp.o(.text) refers to gpio.o(i.GPIOPinConfigure) for GPIOPinConfigure
    temp.o(.text) refers to gpio.o(i.GPIOPinTypeI2CSCL) for GPIOPinTypeI2CSCL
    temp.o(.text) refers to gpio.o(i.GPIOPinTypeI2C) for GPIOPinTypeI2C
    temp.o(.text) refers to i2c.o(i.I2CMasterTimeoutSet) for I2CMasterTimeoutSet
    temp.o(.text) refers to i2c.o(i.I2CMasterGlitchFilterConfigSet) for I2CMasterGlitchFilterConfigSet
    temp.o(.text) refers to i2c.o(i.I2CMasterInitExpClk) for I2CMasterInitExpClk
    temp.o(.text) refers to i2c.o(i.I2CMasterIntEnableEx) for I2CMasterIntEnableEx
    temp.o(.text) refers to i2c.o(i.I2CIntRegister) for I2CIntRegister
    temp.o(.text) refers to interrupt.o(i.IntEnable) for IntEnable
    temp.o(.text) refers to i2c.o(i.I2CMasterEnable) for I2CMasterEnable
    rtx_conf_cm.o(.emb_text) refers to rt_cmsis.o(i.osKernelInitialize) for osKernelInitialize
    rtx_conf_cm.o(.emb_text) refers to rt_cmsis.o(i.osThreadCreate) for osThreadCreate
    rtx_conf_cm.o(.emb_text) refers to rt_cmsis.o(i.osKernelStart) for osKernelStart
    rtx_conf_cm.o(.emb_text) refers to exit.o(.text) for exit
    rtx_conf_cm.o(.emb_text) refers to rtx_conf_cm.o(.constdata) for os_thread_def_main
    rtx_conf_cm.o(.text) refers to rt_task.o(i.rt_tsk_self) for rt_tsk_self
    rtx_conf_cm.o(.text) refers to rt_mutex.o(i.rt_mut_init) for rt_mut_init
    rtx_conf_cm.o(.text) refers to rt_cmsis.o(.data) for os_running
    rtx_conf_cm.o(.text) refers to rtx_conf_cm.o(.bss) for .bss
    rtx_conf_cm.o(.text) refers to libspace.o(.bss) for __libspace_start
    rtx_conf_cm.o(.text) refers to rtx_conf_cm.o(.data) for .data
    rtx_conf_cm.o(.text) refers to rt_mutex.o(i.rt_mut_wait) for rt_mut_wait
    rtx_conf_cm.o(.text) refers to rt_mutex.o(i.rt_mut_release) for rt_mut_release
    rtx_conf_cm.o(.constdata) refers to rt_cmsis.o(i.osTimerThread) for osTimerThread
    rtx_conf_cm.o(.constdata) refers to rtx_conf_cm.o(.bss) for os_messageQ_q_osTimerMessageQ
    rtx_conf_cm.o(.constdata) refers to blinky.o(.text) for main
    startup_tm4c129.o(STACK) refers (Special) to heapauxi.o(.text) for __use_two_region_memory
    startup_tm4c129.o(HEAP) refers (Special) to heapauxi.o(.text) for __use_two_region_memory
    startup_tm4c129.o(RESET) refers (Special) to heapauxi.o(.text) for __use_two_region_memory
    startup_tm4c129.o(RESET) refers to startup_tm4c129.o(STACK) for __initial_sp
    startup_tm4c129.o(RESET) refers to startup_tm4c129.o(.text) for Reset_Handler
    startup_tm4c129.o(RESET) refers to hal_cm4.o(.emb_text) for SVC_Handler
    startup_tm4c129.o(.text) refers (Special) to heapauxi.o(.text) for __use_two_region_memory
    startup_tm4c129.o(.text) refers to system_tm4c129.o(.text) for SystemInit
    startup_tm4c129.o(.text) refers to __main.o(!!!main) for __main
    startup_tm4c129.o(.text) refers to startup_tm4c129.o(HEAP) for Heap_Mem
    startup_tm4c129.o(.text) refers to startup_tm4c129.o(STACK) for Stack_Mem
    system_tm4c129.o(.text) refers to system_tm4c129.o(.data) for .data
    adc.o(i.ADCIntRegister) refers to interrupt.o(i.IntRegister) for IntRegister
    adc.o(i.ADCIntRegister) refers to interrupt.o(i.IntEnable) for IntEnable
    adc.o(i.ADCIntUnregister) refers to interrupt.o(i.IntDisable) for IntDisable
    adc.o(i.ADCIntUnregister) refers to interrupt.o(i.IntUnregister) for IntUnregister
    adc.o(i.ADCSoftwareOversampleConfigure) refers to adc.o(.data) for .data
    adc.o(i.ADCSoftwareOversampleDataGet) refers to adc.o(.data) for .data
    adc.o(i.ADCSoftwareOversampleStepConfigure) refers to adc.o(.data) for .data
    gpio.o(i.GPIOIntRegister) refers to gpio.o(i._GPIOIntNumberGet) for _GPIOIntNumberGet
    gpio.o(i.GPIOIntRegister) refers to interrupt.o(i.IntRegister) for IntRegister
    gpio.o(i.GPIOIntRegister) refers to interrupt.o(i.IntEnable) for IntEnable
    gpio.o(i.GPIOIntRegisterPin) refers to gpio.o(i._GPIOIntNumberGet) for _GPIOIntNumberGet
    gpio.o(i.GPIOIntRegisterPin) refers to interrupt.o(i.IntRegister) for IntRegister
    gpio.o(i.GPIOIntRegisterPin) refers to interrupt.o(i.IntEnable) for IntEnable
    gpio.o(i.GPIOIntUnregister) refers to gpio.o(i._GPIOIntNumberGet) for _GPIOIntNumberGet
    gpio.o(i.GPIOIntUnregister) refers to interrupt.o(i.IntDisable) for IntDisable
    gpio.o(i.GPIOIntUnregister) refers to interrupt.o(i.IntUnregister) for IntUnregister
    gpio.o(i.GPIOIntUnregisterPin) refers to gpio.o(i._GPIOIntNumberGet) for _GPIOIntNumberGet
    gpio.o(i.GPIOIntUnregisterPin) refers to interrupt.o(i.IntDisable) for IntDisable
    gpio.o(i.GPIOIntUnregisterPin) refers to interrupt.o(i.IntUnregister) for IntUnregister
    gpio.o(i.GPIOPinConfigure) refers to gpio.o(.constdata) for .constdata
    gpio.o(i.GPIOPinTypeADC) refers to gpio.o(i.GPIODirModeSet) for GPIODirModeSet
    gpio.o(i.GPIOPinTypeADC) refers to gpio.o(i.GPIOPadConfigSet) for GPIOPadConfigSet
    gpio.o(i.GPIOPinTypeCAN) refers to gpio.o(i.GPIODirModeSet) for GPIODirModeSet
    gpio.o(i.GPIOPinTypeCAN) refers to gpio.o(i.GPIOPadConfigSet) for GPIOPadConfigSet
    gpio.o(i.GPIOPinTypeComparator) refers to gpio.o(i.GPIODirModeSet) for GPIODirModeSet
    gpio.o(i.GPIOPinTypeComparator) refers to gpio.o(i.GPIOPadConfigSet) for GPIOPadConfigSet
    gpio.o(i.GPIOPinTypeComparatorOutput) refers to gpio.o(i.GPIODirModeSet) for GPIODirModeSet
    gpio.o(i.GPIOPinTypeComparatorOutput) refers to gpio.o(i.GPIOPadConfigSet) for GPIOPadConfigSet
    gpio.o(i.GPIOPinTypeDIVSCLK) refers to gpio.o(i.GPIODirModeSet) for GPIODirModeSet
    gpio.o(i.GPIOPinTypeDIVSCLK) refers to gpio.o(i.GPIOPadConfigSet) for GPIOPadConfigSet
    gpio.o(i.GPIOPinTypeEPI) refers to gpio.o(i.GPIODirModeSet) for GPIODirModeSet
    gpio.o(i.GPIOPinTypeEPI) refers to gpio.o(i.GPIOPadConfigSet) for GPIOPadConfigSet
    gpio.o(i.GPIOPinTypeEthernetLED) refers to gpio.o(i.GPIODirModeSet) for GPIODirModeSet
    gpio.o(i.GPIOPinTypeEthernetLED) refers to gpio.o(i.GPIOPadConfigSet) for GPIOPadConfigSet
    gpio.o(i.GPIOPinTypeEthernetMII) refers to gpio.o(i.GPIODirModeSet) for GPIODirModeSet
    gpio.o(i.GPIOPinTypeEthernetMII) refers to gpio.o(i.GPIOPadConfigSet) for GPIOPadConfigSet
    gpio.o(i.GPIOPinTypeGPIOInput) refers to gpio.o(i.GPIODirModeSet) for GPIODirModeSet
    gpio.o(i.GPIOPinTypeGPIOInput) refers to gpio.o(i.GPIOPadConfigSet) for GPIOPadConfigSet
    gpio.o(i.GPIOPinTypeGPIOOutput) refers to gpio.o(i.GPIOPadConfigSet) for GPIOPadConfigSet
    gpio.o(i.GPIOPinTypeGPIOOutput) refers to gpio.o(i.GPIODirModeSet) for GPIODirModeSet
    gpio.o(i.GPIOPinTypeGPIOOutputOD) refers to gpio.o(i.GPIOPadConfigSet) for GPIOPadConfigSet
    gpio.o(i.GPIOPinTypeGPIOOutputOD) refers to gpio.o(i.GPIODirModeSet) for GPIODirModeSet
    gpio.o(i.GPIOPinTypeHibernateRTCCLK) refers to gpio.o(i.GPIODirModeSet) for GPIODirModeSet
    gpio.o(i.GPIOPinTypeHibernateRTCCLK) refers to gpio.o(i.GPIOPadConfigSet) for GPIOPadConfigSet
    gpio.o(i.GPIOPinTypeI2C) refers to gpio.o(i.GPIODirModeSet) for GPIODirModeSet
    gpio.o(i.GPIOPinTypeI2C) refers to gpio.o(i.GPIOPadConfigSet) for GPIOPadConfigSet
    gpio.o(i.GPIOPinTypeI2CSCL) refers to gpio.o(i.GPIODirModeSet) for GPIODirModeSet
    gpio.o(i.GPIOPinTypeI2CSCL) refers to gpio.o(i.GPIOPadConfigSet) for GPIOPadConfigSet
    gpio.o(i.GPIOPinTypeLCD) refers to gpio.o(i.GPIODirModeSet) for GPIODirModeSet
    gpio.o(i.GPIOPinTypeLCD) refers to gpio.o(i.GPIOPadConfigSet) for GPIOPadConfigSet
    gpio.o(i.GPIOPinTypeOneWire) refers to gpio.o(i.GPIODirModeSet) for GPIODirModeSet
    gpio.o(i.GPIOPinTypeOneWire) refers to gpio.o(i.GPIOPadConfigSet) for GPIOPadConfigSet
    gpio.o(i.GPIOPinTypePWM) refers to gpio.o(i.GPIODirModeSet) for GPIODirModeSet
    gpio.o(i.GPIOPinTypePWM) refers to gpio.o(i.GPIOPadConfigSet) for GPIOPadConfigSet
    gpio.o(i.GPIOPinTypeQEI) refers to gpio.o(i.GPIODirModeSet) for GPIODirModeSet
    gpio.o(i.GPIOPinTypeQEI) refers to gpio.o(i.GPIOPadConfigSet) for GPIOPadConfigSet
    gpio.o(i.GPIOPinTypeSSI) refers to gpio.o(i.GPIODirModeSet) for GPIODirModeSet
    gpio.o(i.GPIOPinTypeSSI) refers to gpio.o(i.GPIOPadConfigSet) for GPIOPadConfigSet
    gpio.o(i.GPIOPinTypeTimer) refers to gpio.o(i.GPIODirModeSet) for GPIODirModeSet
    gpio.o(i.GPIOPinTypeTimer) refers to gpio.o(i.GPIOPadConfigSet) for GPIOPadConfigSet
    gpio.o(i.GPIOPinTypeTrace) refers to gpio.o(i.GPIODirModeSet) for GPIODirModeSet
    gpio.o(i.GPIOPinTypeTrace) refers to gpio.o(i.GPIOPadConfigSet) for GPIOPadConfigSet
    gpio.o(i.GPIOPinTypeUART) refers to gpio.o(i.GPIODirModeSet) for GPIODirModeSet
    gpio.o(i.GPIOPinTypeUART) refers to gpio.o(i.GPIOPadConfigSet) for GPIOPadConfigSet
    gpio.o(i.GPIOPinTypeUSBAnalog) refers to gpio.o(i.GPIODirModeSet) for GPIODirModeSet
    gpio.o(i.GPIOPinTypeUSBAnalog) refers to gpio.o(i.GPIOPadConfigSet) for GPIOPadConfigSet
    gpio.o(i.GPIOPinTypeUSBDigital) refers to gpio.o(i.GPIODirModeSet) for GPIODirModeSet
    gpio.o(i.GPIOPinTypeUSBDigital) refers to gpio.o(i.GPIOPadConfigSet) for GPIOPadConfigSet
    gpio.o(i.GPIOPinTypeWakeHigh) refers to gpio.o(i.GPIODirModeSet) for GPIODirModeSet
    gpio.o(i.GPIOPinTypeWakeHigh) refers to gpio.o(i.GPIOPadConfigSet) for GPIOPadConfigSet
    gpio.o(i.GPIOPinTypeWakeLow) refers to gpio.o(i.GPIODirModeSet) for GPIODirModeSet
    gpio.o(i.GPIOPinTypeWakeLow) refers to gpio.o(i.GPIOPadConfigSet) for GPIOPadConfigSet
    gpio.o(i._GPIOIntNumberGet) refers to gpio.o(.constdata) for .constdata
    i2c.o(i.I2CIntRegister) refers to interrupt.o(i.IntRegister) for IntRegister
    i2c.o(i.I2CIntRegister) refers to interrupt.o(i.IntEnable) for IntEnable
    i2c.o(i.I2CIntRegister) refers to i2c.o(.constdata) for .constdata
    i2c.o(i.I2CIntUnregister) refers to interrupt.o(i.IntDisable) for IntDisable
    i2c.o(i.I2CIntUnregister) refers to interrupt.o(i.IntUnregister) for IntUnregister
    i2c.o(i.I2CIntUnregister) refers to i2c.o(.constdata) for .constdata
    interrupt.o(i.IntDisable) refers to interrupt.o(.constdata) for .constdata
    interrupt.o(i.IntEnable) refers to interrupt.o(.constdata) for .constdata
    interrupt.o(i.IntIsEnabled) refers to interrupt.o(.constdata) for .constdata
    interrupt.o(i.IntMasterDisable) refers to cpu.o(.emb_text) for CPUcpsid
    interrupt.o(i.IntMasterEnable) refers to cpu.o(.emb_text) for CPUcpsie
    interrupt.o(i.IntPendClear) refers to interrupt.o(.constdata) for .constdata
    interrupt.o(i.IntPendSet) refers to interrupt.o(.constdata) for .constdata
    interrupt.o(i.IntPriorityGet) refers to interrupt.o(.constdata) for .constdata
    interrupt.o(i.IntPriorityGroupingGet) refers to interrupt.o(.constdata) for .constdata
    interrupt.o(i.IntPriorityGroupingSet) refers to interrupt.o(.constdata) for .constdata
    interrupt.o(i.IntPriorityMaskGet) refers to cpu.o(.emb_text) for CPUbasepriGet
    interrupt.o(i.IntPriorityMaskSet) refers to cpu.o(.emb_text) for CPUbasepriSet
    interrupt.o(i.IntPrioritySet) refers to interrupt.o(.constdata) for .constdata
    interrupt.o(i.IntRegister) refers to interrupt.o(vtable) for vtable
    interrupt.o(i.IntUnregister) refers to interrupt.o(i._IntDefaultHandler) for _IntDefaultHandler
    interrupt.o(i.IntUnregister) refers to interrupt.o(vtable) for vtable
    pwm.o(i.PWMFaultIntRegister) refers to interrupt.o(i.IntRegister) for IntRegister
    pwm.o(i.PWMFaultIntRegister) refers to interrupt.o(i.IntEnable) for IntEnable
    pwm.o(i.PWMFaultIntUnregister) refers to interrupt.o(i.IntDisable) for IntDisable
    pwm.o(i.PWMFaultIntUnregister) refers to interrupt.o(i.IntUnregister) for IntUnregister
    pwm.o(i.PWMGenIntRegister) refers to pwm.o(i._PWMGenIntNumberGet) for _PWMGenIntNumberGet
    pwm.o(i.PWMGenIntRegister) refers to interrupt.o(i.IntRegister) for IntRegister
    pwm.o(i.PWMGenIntRegister) refers to interrupt.o(i.IntEnable) for IntEnable
    pwm.o(i.PWMGenIntUnregister) refers to pwm.o(i._PWMGenIntNumberGet) for _PWMGenIntNumberGet
    pwm.o(i.PWMGenIntUnregister) refers to interrupt.o(i.IntDisable) for IntDisable
    pwm.o(i.PWMGenIntUnregister) refers to interrupt.o(i.IntUnregister) for IntUnregister
    sysctl.o(i.SysCtlClockFreqSet) refers to sysctl.o(.constdata) for .constdata
    sysctl.o(i.SysCtlClockGet) refers to sysctl.o(.constdata) for .constdata
    sysctl.o(i.SysCtlClockSet) refers to sysctl.o(.emb_text) for SysCtlDelay
    sysctl.o(i.SysCtlDeepSleep) refers to cpu.o(.emb_text) for CPUwfi
    sysctl.o(i.SysCtlIntRegister) refers to interrupt.o(i.IntRegister) for IntRegister
    sysctl.o(i.SysCtlIntRegister) refers to interrupt.o(i.IntEnable) for IntEnable
    sysctl.o(i.SysCtlIntUnregister) refers to interrupt.o(i.IntDisable) for IntDisable
    sysctl.o(i.SysCtlIntUnregister) refers to interrupt.o(i.IntUnregister) for IntUnregister
    sysctl.o(i.SysCtlSleep) refers to cpu.o(.emb_text) for CPUwfi
    sysctl.o(i.SysCtlVCOGet) refers to sysctl.o(.constdata) for .constdata
    timer.o(i.TimerIntRegister) refers to interrupt.o(i.IntRegister) for IntRegister
    timer.o(i.TimerIntRegister) refers to interrupt.o(i.IntEnable) for IntEnable
    timer.o(i.TimerIntRegister) refers to timer.o(.constdata) for .constdata
    timer.o(i.TimerIntUnregister) refers to interrupt.o(i.IntDisable) for IntDisable
    timer.o(i.TimerIntUnregister) refers to interrupt.o(i.IntUnregister) for IntUnregister
    timer.o(i.TimerIntUnregister) refers to timer.o(.constdata) for .constdata
    circle.o(i.GrCircleFill) refers to line.o(i.GrLineDrawH) for GrLineDrawH
    context.o(i.GrContextInit) refers to context.o(.data) for .data
    context.o(i.GrContextInit) refers to string.o(i.GrDefaultStringRenderer) for GrDefaultStringRenderer
    context.o(i.GrContextInit) refers to context.o(.constdata) for .constdata
    context.o(i.GrLibInit) refers to context.o(.data) for .data
    context.o(.constdata) refers to charmap.o(i.GrMapISO8859_1_Unicode) for GrMapISO8859_1_Unicode
    fontfixed6x8.o(.constdata) refers to fontfixed6x8.o(.constdata) for g_pui8FontFixed6x8Data
    rectangle.o(i.GrRectDraw) refers to line.o(i.GrLineDrawH) for GrLineDrawH
    rectangle.o(i.GrRectDraw) refers to line.o(i.GrLineDrawV) for GrLineDrawV
    string.o(i.GrCodepageMapTableSet) refers to string.o(i.UpdateContextCharMapping) for UpdateContextCharMapping
    string.o(i.GrContextFontSet) refers to string.o(i.UpdateContextCharMapping) for UpdateContextCharMapping
    string.o(i.GrDefaultStringRenderer) refers to string.o(i.GrFontGlyphDataGet) for GrFontGlyphDataGet
    string.o(i.GrDefaultStringRenderer) refers to string.o(i.GrFontGlyphRender) for GrFontGlyphRender
    string.o(i.GrStringCodepageSet) refers to string.o(i.UpdateContextCharMapping) for UpdateContextCharMapping
    string.o(i.GrStringGet) refers to string.o(.data) for .data
    string.o(i.GrStringLanguageSet) refers to string.o(.data) for .data
    string.o(i.GrStringTableSet) refers to string.o(.data) for .data
    string.o(i.GrStringWidthGet) refers to string.o(i.GrFontGlyphDataGet) for GrFontGlyphDataGet
    rt_cmsis.o(i.isrMessageGet) refers to rt_mailbox.o(i.isr_mbx_receive) for isr_mbx_receive
    rt_cmsis.o(i.isrMessagePut) refers to rt_mailbox.o(i.rt_mbx_check) for rt_mbx_check
    rt_cmsis.o(i.isrMessagePut) refers to rt_mailbox.o(i.isr_mbx_send) for isr_mbx_send
    rt_cmsis.o(i.isrSemaphoreRelease) refers to rt_cmsis.o(i.rt_id2obj) for rt_id2obj
    rt_cmsis.o(i.isrSemaphoreRelease) refers to rt_semaphore.o(i.isr_sem_send) for isr_sem_send
    rt_cmsis.o(i.isrSignalSet) refers to rt_cmsis.o(i.rt_tid2ptcb) for rt_tid2ptcb
    rt_cmsis.o(i.isrSignalSet) refers to rt_event.o(i.isr_evt_set) for isr_evt_set
    rt_cmsis.o(i.osDelay) refers to rt_cmsis.o(i.svcDelay) for svcDelay
    rt_cmsis.o(i.osKernelInitialize) refers to rt_cmsis.o(i.svcKernelInitialize) for svcKernelInitialize
    rt_cmsis.o(i.osKernelRunning) refers to rt_cmsis.o(i.svcKernelRunning) for svcKernelRunning
    rt_cmsis.o(i.osKernelRunning) refers to rt_cmsis.o(.data) for .data
    rt_cmsis.o(i.osKernelStart) refers to rtx_conf_cm.o(.constdata) for os_flags
    rt_cmsis.o(i.osKernelStart) refers to rt_cmsis.o(i.svcKernelStart) for svcKernelStart
    rt_cmsis.o(i.osKernelSysTick) refers to rt_cmsis.o(i.svcKernelSysTick) for svcKernelSysTick
    rt_cmsis.o(i.osMailAlloc) refers to rt_cmsis.o(i.sysMailAlloc) for sysMailAlloc
    rt_cmsis.o(i.osMailCAlloc) refers to rt_cmsis.o(i.sysMailAlloc) for sysMailAlloc
    rt_cmsis.o(i.osMailCAlloc) refers to rt_cmsis.o(i.rt_clr_box) for rt_clr_box
    rt_cmsis.o(i.osMailCreate) refers to rt_cmsis.o(i.svcMailCreate) for svcMailCreate
    rt_cmsis.o(i.osMailCreate) refers to rt_cmsis.o(.data) for .data
    rt_cmsis.o(i.osMailFree) refers to rt_cmsis.o(i.sysMailFree) for sysMailFree
    rt_cmsis.o(i.osMailGet) refers to rt_cmsis.o(i.osMessageGet) for osMessageGet
    rt_cmsis.o(i.osMailPut) refers to rt_cmsis.o(i.osMessagePut) for osMessagePut
    rt_cmsis.o(i.osMessageCreate) refers to rt_cmsis.o(i.svcMessageCreate) for svcMessageCreate
    rt_cmsis.o(i.osMessageCreate) refers to rt_cmsis.o(.data) for .data
    rt_cmsis.o(i.osMessageGet) refers to rt_cmsis.o(i.isrMessageGet) for isrMessageGet
    rt_cmsis.o(i.osMessageGet) refers to rt_cmsis.o(i.svcMessageGet) for svcMessageGet
    rt_cmsis.o(i.osMessagePut) refers to rt_cmsis.o(i.isrMessagePut) for isrMessagePut
    rt_cmsis.o(i.osMessagePut) refers to rt_cmsis.o(i.svcMessagePut) for svcMessagePut
    rt_cmsis.o(i.osMutexCreate) refers to rt_cmsis.o(i.svcMutexCreate) for svcMutexCreate
    rt_cmsis.o(i.osMutexCreate) refers to rt_cmsis.o(.data) for .data
    rt_cmsis.o(i.osMutexDelete) refers to rt_cmsis.o(i.svcMutexDelete) for svcMutexDelete
    rt_cmsis.o(i.osMutexRelease) refers to rt_cmsis.o(i.svcMutexRelease) for svcMutexRelease
    rt_cmsis.o(i.osMutexWait) refers to rt_cmsis.o(i.svcMutexWait) for svcMutexWait
    rt_cmsis.o(i.osPoolAlloc) refers to rt_cmsis.o(i.sysPoolAlloc) for sysPoolAlloc
    rt_cmsis.o(i.osPoolCAlloc) refers to rt_cmsis.o(i.rt_clr_box) for rt_clr_box
    rt_cmsis.o(i.osPoolCAlloc) refers to rt_cmsis.o(i.sysPoolAlloc) for sysPoolAlloc
    rt_cmsis.o(i.osPoolCreate) refers to rt_cmsis.o(i.svcPoolCreate) for svcPoolCreate
    rt_cmsis.o(i.osPoolCreate) refers to rt_cmsis.o(.data) for .data
    rt_cmsis.o(i.osPoolFree) refers to rt_cmsis.o(i.sysPoolFree) for sysPoolFree
    rt_cmsis.o(i.osSemaphoreCreate) refers to rt_cmsis.o(i.svcSemaphoreCreate) for svcSemaphoreCreate
    rt_cmsis.o(i.osSemaphoreCreate) refers to rt_cmsis.o(.data) for .data
    rt_cmsis.o(i.osSemaphoreDelete) refers to rt_cmsis.o(i.svcSemaphoreDelete) for svcSemaphoreDelete
    rt_cmsis.o(i.osSemaphoreRelease) refers to rt_cmsis.o(i.isrSemaphoreRelease) for isrSemaphoreRelease
    rt_cmsis.o(i.osSemaphoreRelease) refers to rt_cmsis.o(i.svcSemaphoreRelease) for svcSemaphoreRelease
    rt_cmsis.o(i.osSemaphoreWait) refers to rt_cmsis.o(i.svcSemaphoreWait) for svcSemaphoreWait
    rt_cmsis.o(i.osSignalClear) refers to rt_cmsis.o(i.svcSignalClear) for svcSignalClear
    rt_cmsis.o(i.osSignalSet) refers to rt_cmsis.o(i.isrSignalSet) for isrSignalSet
    rt_cmsis.o(i.osSignalSet) refers to rt_cmsis.o(i.svcSignalSet) for svcSignalSet
    rt_cmsis.o(i.osSignalWait) refers to rt_cmsis.o(i.svcSignalWait) for svcSignalWait
    rt_cmsis.o(i.osThreadCreate) refers to rt_cmsis.o(i.svcThreadCreate) for svcThreadCreate
    rt_cmsis.o(i.osThreadCreate) refers to rt_cmsis.o(.data) for .data
    rt_cmsis.o(i.osThreadExit) refers to rt_cmsis.o(i.svcThreadGetId) for svcThreadGetId
    rt_cmsis.o(i.osThreadExit) refers to rt_cmsis.o(i.svcThreadTerminate) for svcThreadTerminate
    rt_cmsis.o(i.osThreadGetId) refers to rt_cmsis.o(i.svcThreadGetId) for svcThreadGetId
    rt_cmsis.o(i.osThreadGetPriority) refers to rt_cmsis.o(i.svcThreadGetPriority) for svcThreadGetPriority
    rt_cmsis.o(i.osThreadSetPriority) refers to rt_cmsis.o(i.svcThreadSetPriority) for svcThreadSetPriority
    rt_cmsis.o(i.osThreadTerminate) refers to rt_cmsis.o(i.svcThreadTerminate) for svcThreadTerminate
    rt_cmsis.o(i.osThreadYield) refers to rt_cmsis.o(i.svcThreadYield) for svcThreadYield
    rt_cmsis.o(i.osTimerCall) refers to rt_cmsis.o(i.svcTimerCall) for svcTimerCall
    rt_cmsis.o(i.osTimerCreate) refers to rt_cmsis.o(i.svcTimerCreate) for svcTimerCreate
    rt_cmsis.o(i.osTimerCreate) refers to rt_cmsis.o(.data) for .data
    rt_cmsis.o(i.osTimerDelete) refers to rt_cmsis.o(i.svcTimerDelete) for svcTimerDelete
    rt_cmsis.o(i.osTimerStart) refers to rt_cmsis.o(i.svcTimerStart) for svcTimerStart
    rt_cmsis.o(i.osTimerStop) refers to rt_cmsis.o(i.svcTimerStop) for svcTimerStop
    rt_cmsis.o(i.osTimerThread) refers to rt_cmsis.o(i.osMessageGet) for osMessageGet
    rt_cmsis.o(i.osTimerThread) refers to rt_cmsis.o(i.osTimerCall) for osTimerCall
    rt_cmsis.o(i.osTimerThread) refers to rtx_conf_cm.o(.data) for osMessageQId_osTimerMessageQ
    rt_cmsis.o(i.os_resume) refers to rt_system.o(i.rt_resume) for rt_resume
    rt_cmsis.o(i.os_suspend) refers to rt_system.o(i.rt_suspend) for rt_suspend
    rt_cmsis.o(i.rt_ms2tick) refers to rtx_conf_cm.o(.constdata) for os_clockrate
    rt_cmsis.o(i.rt_timer_insert) refers to rt_cmsis.o(.data) for .data
    rt_cmsis.o(i.rt_timer_remove) refers to rt_cmsis.o(.data) for .data
    rt_cmsis.o(i.svcDelay) refers to rt_cmsis.o(i.rt_ms2tick) for rt_ms2tick
    rt_cmsis.o(i.svcDelay) refers to rt_time.o(i.rt_dly_wait) for rt_dly_wait
    rt_cmsis.o(i.svcKernelInitialize) refers to rt_memory.o(i.rt_init_mem) for rt_init_mem
    rt_cmsis.o(i.svcKernelInitialize) refers to rt_task.o(i.rt_sys_init) for rt_sys_init
    rt_cmsis.o(i.svcKernelInitialize) refers to rt_cmsis.o(i.svcMessageCreate) for svcMessageCreate
    rt_cmsis.o(i.svcKernelInitialize) refers to rt_cmsis.o(i.svcThreadCreate) for svcThreadCreate
    rt_cmsis.o(i.svcKernelInitialize) refers to rt_cmsis.o(.data) for .data
    rt_cmsis.o(i.svcKernelInitialize) refers to rtx_conf_cm.o(.bss) for os_stack_mem
    rt_cmsis.o(i.svcKernelInitialize) refers to rtx_conf_cm.o(.constdata) for os_stack_sz
    rt_cmsis.o(i.svcKernelInitialize) refers to rt_task.o(.data) for os_tsk
    rt_cmsis.o(i.svcKernelInitialize) refers to rtx_conf_cm.o(.constdata) for os_messageQ_def_osTimerMessageQ
    rt_cmsis.o(i.svcKernelInitialize) refers to rtx_conf_cm.o(.data) for osMessageQId_osTimerMessageQ
    rt_cmsis.o(i.svcKernelInitialize) refers to rtx_conf_cm.o(.constdata) for os_thread_def_osTimerThread
    rt_cmsis.o(i.svcKernelInitialize) refers to rtx_conf_cm.o(.data) for osThreadId_osTimerThread
    rt_cmsis.o(i.svcKernelRunning) refers to rt_cmsis.o(.data) for .data
    rt_cmsis.o(i.svcKernelStart) refers to rt_task.o(i.rt_tsk_prio) for rt_tsk_prio
    rt_cmsis.o(i.svcKernelStart) refers to rt_task.o(i.rt_sys_start) for rt_sys_start
    rt_cmsis.o(i.svcKernelStart) refers to rt_cmsis.o(.data) for .data
    rt_cmsis.o(i.svcKernelStart) refers to rt_task.o(.data) for os_tsk
    rt_cmsis.o(i.svcKernelSysTick) refers to rt_system.o(i.os_tick_val) for os_tick_val
    rt_cmsis.o(i.svcKernelSysTick) refers to rt_system.o(i.os_tick_ovf) for os_tick_ovf
    rt_cmsis.o(i.svcKernelSysTick) refers to rtx_conf_cm.o(.constdata) for os_trv
    rt_cmsis.o(i.svcKernelSysTick) refers to rt_time.o(.data) for os_time
    rt_cmsis.o(i.svcMailCreate) refers to rt_membox.o(i._init_box) for _init_box
    rt_cmsis.o(i.svcMailCreate) refers to rt_mailbox.o(i.rt_mbx_init) for rt_mbx_init
    rt_cmsis.o(i.svcMessageCreate) refers to rt_mailbox.o(i.rt_mbx_init) for rt_mbx_init
    rt_cmsis.o(i.svcMessageGet) refers to rt_cmsis.o(i.rt_ms2tick) for rt_ms2tick
    rt_cmsis.o(i.svcMessageGet) refers to rt_mailbox.o(i.rt_mbx_wait) for rt_mbx_wait
    rt_cmsis.o(i.svcMessagePut) refers to rt_cmsis.o(i.rt_ms2tick) for rt_ms2tick
    rt_cmsis.o(i.svcMessagePut) refers to rt_mailbox.o(i.rt_mbx_send) for rt_mbx_send
    rt_cmsis.o(i.svcMutexCreate) refers to rt_mutex.o(i.rt_mut_init) for rt_mut_init
    rt_cmsis.o(i.svcMutexDelete) refers to rt_cmsis.o(i.rt_id2obj) for rt_id2obj
    rt_cmsis.o(i.svcMutexDelete) refers to rt_mutex.o(i.rt_mut_delete) for rt_mut_delete
    rt_cmsis.o(i.svcMutexRelease) refers to rt_cmsis.o(i.rt_id2obj) for rt_id2obj
    rt_cmsis.o(i.svcMutexRelease) refers to rt_mutex.o(i.rt_mut_release) for rt_mut_release
    rt_cmsis.o(i.svcMutexWait) refers to rt_cmsis.o(i.rt_id2obj) for rt_id2obj
    rt_cmsis.o(i.svcMutexWait) refers to rt_cmsis.o(i.rt_ms2tick) for rt_ms2tick
    rt_cmsis.o(i.svcMutexWait) refers to rt_mutex.o(i.rt_mut_wait) for rt_mut_wait
    rt_cmsis.o(i.svcPoolCreate) refers to rt_membox.o(i._init_box) for _init_box
    rt_cmsis.o(i.svcSemaphoreCreate) refers to rt_semaphore.o(i.rt_sem_init) for rt_sem_init
    rt_cmsis.o(i.svcSemaphoreDelete) refers to rt_cmsis.o(i.rt_id2obj) for rt_id2obj
    rt_cmsis.o(i.svcSemaphoreDelete) refers to rt_semaphore.o(i.rt_sem_delete) for rt_sem_delete
    rt_cmsis.o(i.svcSemaphoreRelease) refers to rt_cmsis.o(i.rt_id2obj) for rt_id2obj
    rt_cmsis.o(i.svcSemaphoreRelease) refers to rt_semaphore.o(i.rt_sem_send) for rt_sem_send
    rt_cmsis.o(i.svcSemaphoreWait) refers to rt_cmsis.o(i.rt_id2obj) for rt_id2obj
    rt_cmsis.o(i.svcSemaphoreWait) refers to rt_cmsis.o(i.rt_ms2tick) for rt_ms2tick
    rt_cmsis.o(i.svcSemaphoreWait) refers to rt_semaphore.o(i.rt_sem_wait) for rt_sem_wait
    rt_cmsis.o(i.svcSignalClear) refers to rt_cmsis.o(i.rt_tid2ptcb) for rt_tid2ptcb
    rt_cmsis.o(i.svcSignalClear) refers to rt_event.o(i.rt_evt_clr) for rt_evt_clr
    rt_cmsis.o(i.svcSignalSet) refers to rt_cmsis.o(i.rt_tid2ptcb) for rt_tid2ptcb
    rt_cmsis.o(i.svcSignalSet) refers to rt_event.o(i.rt_evt_set) for rt_evt_set
    rt_cmsis.o(i.svcSignalWait) refers to rt_cmsis.o(i.rt_ms2tick) for rt_ms2tick
    rt_cmsis.o(i.svcSignalWait) refers to rt_event.o(i.rt_evt_wait) for rt_evt_wait
    rt_cmsis.o(i.svcSignalWait) refers to rt_task.o(.data) for os_tsk
    rt_cmsis.o(i.svcThreadCreate) refers to rt_memory.o(i.rt_alloc_mem) for rt_alloc_mem
    rt_cmsis.o(i.svcThreadCreate) refers to rt_task.o(i.rt_tsk_create) for rt_tsk_create
    rt_cmsis.o(i.svcThreadCreate) refers to rt_memory.o(i.rt_free_mem) for rt_free_mem
    rt_cmsis.o(i.svcThreadCreate) refers to rtx_conf_cm.o(.bss) for os_stack_mem
    rt_cmsis.o(i.svcThreadCreate) refers to rtx_conf_cm.o(.bss) for os_active_TCB
    rt_cmsis.o(i.svcThreadCreate) refers to rt_cmsis.o(i.osThreadExit) for osThreadExit
    rt_cmsis.o(i.svcThreadGetId) refers to rt_task.o(i.rt_tsk_self) for rt_tsk_self
    rt_cmsis.o(i.svcThreadGetId) refers to rtx_conf_cm.o(.bss) for os_active_TCB
    rt_cmsis.o(i.svcThreadGetPriority) refers to rt_cmsis.o(i.rt_tid2ptcb) for rt_tid2ptcb
    rt_cmsis.o(i.svcThreadSetPriority) refers to rt_cmsis.o(i.rt_tid2ptcb) for rt_tid2ptcb
    rt_cmsis.o(i.svcThreadSetPriority) refers to rt_task.o(i.rt_tsk_prio) for rt_tsk_prio
    rt_cmsis.o(i.svcThreadTerminate) refers to rt_cmsis.o(i.rt_tid2ptcb) for rt_tid2ptcb
    rt_cmsis.o(i.svcThreadTerminate) refers to rt_task.o(i.rt_tsk_delete) for rt_tsk_delete
    rt_cmsis.o(i.svcThreadTerminate) refers to rt_memory.o(i.rt_free_mem) for rt_free_mem
    rt_cmsis.o(i.svcThreadTerminate) refers to rtx_conf_cm.o(.bss) for os_stack_mem
    rt_cmsis.o(i.svcThreadYield) refers to rt_task.o(i.rt_tsk_pass) for rt_tsk_pass
    rt_cmsis.o(i.svcTimerCall) refers to rt_cmsis.o(i.rt_id2obj) for rt_id2obj
    rt_cmsis.o(i.svcTimerCreate) refers to rtx_conf_cm.o(.data) for osThreadId_osTimerThread
    rt_cmsis.o(i.svcTimerDelete) refers to rt_cmsis.o(i.rt_id2obj) for rt_id2obj
    rt_cmsis.o(i.svcTimerDelete) refers to rt_cmsis.o(i.rt_timer_remove) for rt_timer_remove
    rt_cmsis.o(i.svcTimerStart) refers to rt_cmsis.o(i.rt_id2obj) for rt_id2obj
    rt_cmsis.o(i.svcTimerStart) refers to lludivv7m.o(.text) for __aeabi_uldivmod
    rt_cmsis.o(i.svcTimerStart) refers to rt_cmsis.o(i.rt_timer_remove) for rt_timer_remove
    rt_cmsis.o(i.svcTimerStart) refers to rt_cmsis.o(i.rt_timer_insert) for rt_timer_insert
    rt_cmsis.o(i.svcTimerStart) refers to rtx_conf_cm.o(.constdata) for os_clockrate
    rt_cmsis.o(i.svcTimerStop) refers to rt_cmsis.o(i.rt_id2obj) for rt_id2obj
    rt_cmsis.o(i.svcTimerStop) refers to rt_cmsis.o(i.rt_timer_remove) for rt_timer_remove
    rt_cmsis.o(i.sysMailAlloc) refers to rt_membox.o(i.rt_alloc_box) for rt_alloc_box
    rt_cmsis.o(i.sysMailAlloc) refers to rt_list.o(i.rt_put_prio) for rt_put_prio
    rt_cmsis.o(i.sysMailAlloc) refers to rt_cmsis.o(i.rt_ms2tick) for rt_ms2tick
    rt_cmsis.o(i.sysMailAlloc) refers to rt_task.o(i.rt_block) for rt_block
    rt_cmsis.o(i.sysMailAlloc) refers to rt_task.o(.data) for os_tsk
    rt_cmsis.o(i.sysMailFree) refers to rt_membox.o(i.rt_free_box) for rt_free_box
    rt_cmsis.o(i.sysMailFree) refers to rt_list.o(i.rt_psq_enq) for rt_psq_enq
    rt_cmsis.o(i.sysMailFree) refers to rt_system.o(i.rt_psh_req) for rt_psh_req
    rt_cmsis.o(i.sysMailFree) refers to rt_membox.o(i.rt_alloc_box) for rt_alloc_box
    rt_cmsis.o(i.sysMailFree) refers to rt_list.o(i.rt_get_first) for rt_get_first
    rt_cmsis.o(i.sysMailFree) refers to hal_cm.o(i.rt_ret_val) for rt_ret_val
    rt_cmsis.o(i.sysMailFree) refers to rt_list.o(i.rt_rmv_dly) for rt_rmv_dly
    rt_cmsis.o(i.sysMailFree) refers to rt_task.o(i.rt_dispatch) for rt_dispatch
    rt_cmsis.o(i.sysPoolAlloc) refers to rt_membox.o(i.rt_alloc_box) for rt_alloc_box
    rt_cmsis.o(i.sysPoolFree) refers to rt_membox.o(i.rt_free_box) for rt_free_box
    rt_cmsis.o(i.sysTimerTick) refers to rt_cmsis.o(i.isrMessagePut) for isrMessagePut
    rt_cmsis.o(i.sysTimerTick) refers to rtx_conf_cm.o(.text) for os_error
    rt_cmsis.o(i.sysTimerTick) refers to rt_cmsis.o(i.rt_timer_insert) for rt_timer_insert
    rt_cmsis.o(i.sysTimerTick) refers to rt_cmsis.o(.data) for .data
    rt_cmsis.o(i.sysTimerTick) refers to rtx_conf_cm.o(.data) for osMessageQId_osTimerMessageQ
    rt_cmsis.o(i.sysUserTimerUpdate) refers to rt_cmsis.o(i.sysTimerTick) for sysTimerTick
    rt_cmsis.o(i.sysUserTimerUpdate) refers to rt_cmsis.o(.data) for .data
    rt_cmsis.o(i.sysUserTimerWakeupTime) refers to rt_cmsis.o(.data) for .data
    rt_task.o(i.rt_block) refers to rt_list.o(i.rt_put_dly) for rt_put_dly
    rt_task.o(i.rt_block) refers to rt_list.o(i.rt_get_first) for rt_get_first
    rt_task.o(i.rt_block) refers to rt_task.o(i.rt_switch_req) for rt_switch_req
    rt_task.o(i.rt_block) refers to rt_task.o(.data) for .data
    rt_task.o(i.rt_block) refers to rt_list.o(.bss) for os_rdy
    rt_task.o(i.rt_dispatch) refers to rt_list.o(i.rt_put_rdy_first) for rt_put_rdy_first
    rt_task.o(i.rt_dispatch) refers to rt_task.o(i.rt_switch_req) for rt_switch_req
    rt_task.o(i.rt_dispatch) refers to rt_list.o(i.rt_get_first) for rt_get_first
    rt_task.o(i.rt_dispatch) refers to rt_list.o(i.rt_put_prio) for rt_put_prio
    rt_task.o(i.rt_dispatch) refers to rt_task.o(.data) for .data
    rt_task.o(i.rt_dispatch) refers to rt_list.o(.bss) for os_rdy
    rt_task.o(i.rt_init_context) refers to rt_membox.o(i.rt_alloc_box) for rt_alloc_box
    rt_task.o(i.rt_init_context) refers to hal_cm.o(i.rt_init_stack) for rt_init_stack
    rt_task.o(i.rt_init_context) refers to rtx_conf_cm.o(.bss) for mp_stk
    rt_task.o(i.rt_switch_req) refers to hal_cm.o(i.dbg_task_switch) for dbg_task_switch
    rt_task.o(i.rt_switch_req) refers to rt_task.o(.data) for .data
    rt_task.o(i.rt_switch_req) refers to hal_cm.o(.data) for dbg_msg
    rt_task.o(i.rt_sys_init) refers to hal_cm.o(i.dbg_init) for dbg_init
    rt_task.o(i.rt_sys_init) refers to rt_membox.o(i._init_box) for _init_box
    rt_task.o(i.rt_sys_init) refers to rt_task.o(i.rt_init_context) for rt_init_context
    rt_task.o(i.rt_sys_init) refers to rt_robin.o(i.rt_init_robin) for rt_init_robin
    rt_task.o(i.rt_sys_init) refers to rtx_conf_cm.o(.bss) for os_active_TCB
    rt_task.o(i.rt_sys_init) refers to rtx_conf_cm.o(.constdata) for os_maxtaskrun
    rt_task.o(i.rt_sys_init) refers to rtx_conf_cm.o(.constdata) for mp_tcb_size
    rt_task.o(i.rt_sys_init) refers to rtx_conf_cm.o(.bss) for mp_tcb
    rt_task.o(i.rt_sys_init) refers to rtx_conf_cm.o(.constdata) for os_stackinfo
    rt_task.o(i.rt_sys_init) refers to rtx_conf_cm.o(.constdata) for mp_stk_size
    rt_task.o(i.rt_sys_init) refers to rtx_conf_cm.o(.bss) for mp_stk
    rt_task.o(i.rt_sys_init) refers to rtx_conf_cm.o(.constdata) for mp_tmr_size
    rt_task.o(i.rt_sys_init) refers to rtx_conf_cm.o(.data) for m_tmr
    rt_task.o(i.rt_sys_init) refers to rt_task.o(.bss) for .bss
    rt_task.o(i.rt_sys_init) refers to rtx_conf_cm.o(.text) for os_idle_demon
    rt_task.o(i.rt_sys_init) refers to rt_list.o(.bss) for os_rdy
    rt_task.o(i.rt_sys_init) refers to rt_task.o(.data) for .data
    rt_task.o(i.rt_sys_init) refers to rtx_conf_cm.o(.bss) for os_fifo
    rt_task.o(i.rt_sys_init) refers to rtx_conf_cm.o(.constdata) for os_fifo_size
    rt_task.o(i.rt_sys_start) refers to rt_system.o(i.os_tick_init) for os_tick_init
    rt_task.o(i.rt_sys_start) refers to rt_system.o(.data) for os_tick_irqn
    rt_task.o(i.rt_tsk_create) refers to rt_membox.o(i.rt_alloc_box) for rt_alloc_box
    rt_task.o(i.rt_tsk_create) refers to rt_task.o(i.rt_init_context) for rt_init_context
    rt_task.o(i.rt_tsk_create) refers to hal_cm.o(i.dbg_task_notify) for dbg_task_notify
    rt_task.o(i.rt_tsk_create) refers to rt_task.o(i.rt_dispatch) for rt_dispatch
    rt_task.o(i.rt_tsk_create) refers to rtx_conf_cm.o(.bss) for mp_tcb
    rt_task.o(i.rt_tsk_create) refers to rtx_conf_cm.o(.bss) for os_active_TCB
    rt_task.o(i.rt_tsk_create) refers to rtx_conf_cm.o(.constdata) for os_maxtaskrun
    rt_task.o(i.rt_tsk_create) refers to hal_cm.o(.data) for dbg_msg
    rt_task.o(i.rt_tsk_delete) refers to hal_cm4.o(.emb_text) for rt_get_PSP
    rt_task.o(i.rt_tsk_delete) refers to rt_system.o(i.rt_stk_check) for rt_stk_check
    rt_task.o(i.rt_tsk_delete) refers to rt_list.o(i.rt_get_first) for rt_get_first
    rt_task.o(i.rt_tsk_delete) refers to hal_cm.o(i.rt_ret_val) for rt_ret_val
    rt_task.o(i.rt_tsk_delete) refers to rt_list.o(i.rt_rmv_dly) for rt_rmv_dly
    rt_task.o(i.rt_tsk_delete) refers to rt_list.o(i.rt_put_prio) for rt_put_prio
    rt_task.o(i.rt_tsk_delete) refers to rt_membox.o(i.rt_free_box) for rt_free_box
    rt_task.o(i.rt_tsk_delete) refers to hal_cm.o(i.dbg_task_notify) for dbg_task_notify
    rt_task.o(i.rt_tsk_delete) refers to rt_list.o(i.rt_rmv_list) for rt_rmv_list
    rt_task.o(i.rt_tsk_delete) refers to rt_task.o(i.rt_dispatch) for rt_dispatch
    rt_task.o(i.rt_tsk_delete) refers to hal_cm.o(.data) for dbg_msg
    rt_task.o(i.rt_tsk_delete) refers to rtx_conf_cm.o(.bss) for os_active_TCB
    rt_task.o(i.rt_tsk_delete) refers to rt_task.o(.data) for .data
    rt_task.o(i.rt_tsk_delete) refers to rt_list.o(.bss) for os_rdy
    rt_task.o(i.rt_tsk_delete) refers to rtx_conf_cm.o(.bss) for mp_stk
    rt_task.o(i.rt_tsk_delete) refers to rtx_conf_cm.o(.bss) for mp_tcb
    rt_task.o(i.rt_tsk_delete) refers to rtx_conf_cm.o(.constdata) for os_maxtaskrun
    rt_task.o(i.rt_tsk_pass) refers to rt_list.o(i.rt_get_same_rdy_prio) for rt_get_same_rdy_prio
    rt_task.o(i.rt_tsk_pass) refers to rt_list.o(i.rt_put_prio) for rt_put_prio
    rt_task.o(i.rt_tsk_pass) refers to rt_task.o(i.rt_switch_req) for rt_switch_req
    rt_task.o(i.rt_tsk_pass) refers to rt_task.o(.data) for .data
    rt_task.o(i.rt_tsk_pass) refers to rt_list.o(.bss) for os_rdy
    rt_task.o(i.rt_tsk_prio) refers to rt_list.o(i.rt_put_prio) for rt_put_prio
    rt_task.o(i.rt_tsk_prio) refers to rt_list.o(i.rt_resort_prio) for rt_resort_prio
    rt_task.o(i.rt_tsk_prio) refers to rt_list.o(i.rt_get_first) for rt_get_first
    rt_task.o(i.rt_tsk_prio) refers to rt_task.o(i.rt_dispatch) for rt_dispatch
    rt_task.o(i.rt_tsk_prio) refers to rt_task.o(.data) for .data
    rt_task.o(i.rt_tsk_prio) refers to rtx_conf_cm.o(.constdata) for os_maxtaskrun
    rt_task.o(i.rt_tsk_prio) refers to rtx_conf_cm.o(.bss) for os_active_TCB
    rt_task.o(i.rt_tsk_prio) refers to rt_list.o(.bss) for os_rdy
    rt_task.o(i.rt_tsk_self) refers to rt_task.o(.data) for .data
    rt_mutex.o(i.rt_mut_delete) refers to rt_list.o(i.rt_resort_prio) for rt_resort_prio
    rt_mutex.o(i.rt_mut_delete) refers to rt_list.o(i.rt_get_first) for rt_get_first
    rt_mutex.o(i.rt_mut_delete) refers to hal_cm.o(i.rt_ret_val) for rt_ret_val
    rt_mutex.o(i.rt_mut_delete) refers to rt_list.o(i.rt_rmv_dly) for rt_rmv_dly
    rt_mutex.o(i.rt_mut_delete) refers to rt_list.o(i.rt_put_prio) for rt_put_prio
    rt_mutex.o(i.rt_mut_delete) refers to rt_task.o(i.rt_dispatch) for rt_dispatch
    rt_mutex.o(i.rt_mut_delete) refers to rt_task.o(.data) for os_tsk
    rt_mutex.o(i.rt_mut_delete) refers to rt_list.o(.bss) for os_rdy
    rt_mutex.o(i.rt_mut_release) refers to rt_list.o(i.rt_get_first) for rt_get_first
    rt_mutex.o(i.rt_mut_release) refers to hal_cm.o(i.rt_ret_val) for rt_ret_val
    rt_mutex.o(i.rt_mut_release) refers to rt_list.o(i.rt_rmv_dly) for rt_rmv_dly
    rt_mutex.o(i.rt_mut_release) refers to rt_list.o(i.rt_put_prio) for rt_put_prio
    rt_mutex.o(i.rt_mut_release) refers to rt_task.o(i.rt_dispatch) for rt_dispatch
    rt_mutex.o(i.rt_mut_release) refers to rt_task.o(.data) for os_tsk
    rt_mutex.o(i.rt_mut_release) refers to rt_list.o(.bss) for os_rdy
    rt_mutex.o(i.rt_mut_wait) refers to rt_list.o(i.rt_resort_prio) for rt_resort_prio
    rt_mutex.o(i.rt_mut_wait) refers to rt_list.o(i.rt_put_prio) for rt_put_prio
    rt_mutex.o(i.rt_mut_wait) refers to rt_task.o(i.rt_block) for rt_block
    rt_mutex.o(i.rt_mut_wait) refers to rt_task.o(.data) for os_tsk
    charmap.o(i.GrMapISO8859_10_Unicode) refers to charmap.o(.constdata) for .constdata
    charmap.o(i.GrMapISO8859_13_Unicode) refers to charmap.o(.constdata) for .constdata
    charmap.o(i.GrMapISO8859_14_Unicode) refers to charmap.o(.constdata) for .constdata
    charmap.o(i.GrMapISO8859_16_Unicode) refers to charmap.o(.constdata) for .constdata
    charmap.o(i.GrMapISO8859_2_Unicode) refers to charmap.o(.constdata) for .constdata
    charmap.o(i.GrMapISO8859_3_Unicode) refers to charmap.o(.constdata) for .constdata
    charmap.o(i.GrMapISO8859_4_Unicode) refers to charmap.o(.constdata) for .constdata
    charmap.o(i.GrMapISO8859_7_Unicode) refers to charmap.o(.constdata) for .constdata
    charmap.o(i.GrMapUTF16BE_Unicode) refers to charmap.o(i.GrMapUTF16_Unicode) for GrMapUTF16_Unicode
    charmap.o(i.GrMapUTF16LE_Unicode) refers to charmap.o(i.GrMapUTF16_Unicode) for GrMapUTF16_Unicode
    charmap.o(i.GrMapWIN1250_Unicode) refers to charmap.o(.constdata) for .constdata
    charmap.o(i.GrMapWIN1251_Unicode) refers to charmap.o(.constdata) for .constdata
    charmap.o(i.GrMapWIN1252_Unicode) refers to charmap.o(.constdata) for .constdata
    charmap.o(i.GrMapWIN1253_Unicode) refers to charmap.o(.constdata) for .constdata
    charmap.o(i.GrMapWIN1254_Unicode) refers to charmap.o(.constdata) for .constdata
    rt_system.o(i.os_tick_init) refers to rtx_conf_cm.o(.constdata) for os_trv
    rt_system.o(i.os_tick_val) refers to rtx_conf_cm.o(.constdata) for os_trv
    rt_system.o(i.rt_pop_req) refers to rt_list.o(i.rt_put_rdy_first) for rt_put_rdy_first
    rt_system.o(i.rt_pop_req) refers to rt_semaphore.o(i.rt_sem_psh) for rt_sem_psh
    rt_system.o(i.rt_pop_req) refers to rt_list.o(i.rt_get_first) for rt_get_first
    rt_system.o(i.rt_pop_req) refers to rt_task.o(i.rt_switch_req) for rt_switch_req
    rt_system.o(i.rt_pop_req) refers to rt_event.o(i.rt_evt_psh) for rt_evt_psh
    rt_system.o(i.rt_pop_req) refers to rt_mailbox.o(i.rt_mbx_psh) for rt_mbx_psh
    rt_system.o(i.rt_pop_req) refers to rt_task.o(.data) for os_tsk
    rt_system.o(i.rt_pop_req) refers to rtx_conf_cm.o(.bss) for os_fifo
    rt_system.o(i.rt_pop_req) refers to rt_list.o(.bss) for os_rdy
    rt_system.o(i.rt_psh_req) refers to rt_system.o(.data) for .data
    rt_system.o(i.rt_resume) refers to rt_list.o(i.rt_put_rdy_first) for rt_put_rdy_first
    rt_system.o(i.rt_resume) refers to rt_list.o(i.rt_dec_dly) for rt_dec_dly
    rt_system.o(i.rt_resume) refers to rt_cmsis.o(i.sysUserTimerUpdate) for sysUserTimerUpdate
    rt_system.o(i.rt_resume) refers to rt_list.o(i.rt_get_first) for rt_get_first
    rt_system.o(i.rt_resume) refers to rt_task.o(i.rt_switch_req) for rt_switch_req
    rt_system.o(i.rt_resume) refers to rt_system.o(i.rt_tsk_unlock) for rt_tsk_unlock
    rt_system.o(i.rt_resume) refers to rt_task.o(.data) for os_tsk
    rt_system.o(i.rt_resume) refers to rt_robin.o(.data) for os_robin
    rt_system.o(i.rt_resume) refers to rt_list.o(.bss) for os_dly
    rt_system.o(i.rt_resume) refers to rt_time.o(.data) for os_time
    rt_system.o(i.rt_stk_check) refers to rtx_conf_cm.o(.text) for os_error
    rt_system.o(i.rt_stk_check) refers to rt_task.o(.data) for os_tsk
    rt_system.o(i.rt_suspend) refers to rt_system.o(i.rt_tsk_lock) for rt_tsk_lock
    rt_system.o(i.rt_suspend) refers to rt_cmsis.o(i.sysUserTimerWakeupTime) for sysUserTimerWakeupTime
    rt_system.o(i.rt_suspend) refers to rt_list.o(.bss) for os_dly
    rt_system.o(i.rt_systick) refers to rt_list.o(i.rt_put_rdy_first) for rt_put_rdy_first
    rt_system.o(i.rt_systick) refers to rt_robin.o(i.rt_chk_robin) for rt_chk_robin
    rt_system.o(i.rt_systick) refers to rt_list.o(i.rt_dec_dly) for rt_dec_dly
    rt_system.o(i.rt_systick) refers to rt_cmsis.o(i.sysTimerTick) for sysTimerTick
    rt_system.o(i.rt_systick) refers to rt_list.o(i.rt_get_first) for rt_get_first
    rt_system.o(i.rt_systick) refers to rt_task.o(i.rt_switch_req) for rt_switch_req
    rt_system.o(i.rt_systick) refers to rt_task.o(.data) for os_tsk
    rt_system.o(i.rt_systick) refers to rt_time.o(.data) for os_time
    rt_system.o(i.rt_systick) refers to rt_list.o(.bss) for os_rdy
    rt_system.o(i.rt_tsk_lock) refers to rt_system.o(.data) for .data
    rt_system.o(i.rt_tsk_unlock) refers to rt_system.o(.data) for .data
    rt_event.o(i.isr_evt_set) refers to rt_list.o(i.rt_psq_enq) for rt_psq_enq
    rt_event.o(i.isr_evt_set) refers to rt_system.o(i.rt_psh_req) for rt_psh_req
    rt_event.o(i.isr_evt_set) refers to rtx_conf_cm.o(.bss) for os_active_TCB
    rt_event.o(i.rt_evt_clr) refers to rtx_conf_cm.o(.bss) for os_active_TCB
    rt_event.o(i.rt_evt_get) refers to rt_task.o(.data) for os_tsk
    rt_event.o(i.rt_evt_psh) refers to rt_list.o(i.rt_rmv_dly) for rt_rmv_dly
    rt_event.o(i.rt_evt_psh) refers to hal_cm.o(i.rt_ret_val2) for rt_ret_val2
    rt_event.o(i.rt_evt_psh) refers to rt_list.o(i.rt_put_prio) for rt_put_prio
    rt_event.o(i.rt_evt_psh) refers to rt_list.o(.bss) for os_rdy
    rt_event.o(i.rt_evt_set) refers to rt_list.o(i.rt_rmv_dly) for rt_rmv_dly
    rt_event.o(i.rt_evt_set) refers to hal_cm.o(i.rt_ret_val2) for rt_ret_val2
    rt_event.o(i.rt_evt_set) refers to rt_task.o(i.rt_dispatch) for rt_dispatch
    rt_event.o(i.rt_evt_set) refers to rtx_conf_cm.o(.bss) for os_active_TCB
    rt_event.o(i.rt_evt_wait) refers to rt_task.o(i.rt_block) for rt_block
    rt_event.o(i.rt_evt_wait) refers to rt_task.o(.data) for os_tsk
    rt_list.o(i.rt_dec_dly) refers to rt_list.o(i.rt_put_prio) for rt_put_prio
    rt_list.o(i.rt_dec_dly) refers to rt_list.o(.bss) for .bss
    rt_list.o(i.rt_dec_dly) refers to rt_time.o(.data) for os_time
    rt_list.o(i.rt_get_same_rdy_prio) refers to rt_list.o(.bss) for .bss
    rt_list.o(i.rt_get_same_rdy_prio) refers to rt_task.o(.data) for os_tsk
    rt_list.o(i.rt_psq_enq) refers to rtx_conf_cm.o(.text) for os_error
    rt_list.o(i.rt_psq_enq) refers to rtx_conf_cm.o(.bss) for os_fifo
    rt_list.o(i.rt_put_dly) refers to rt_list.o(.bss) for .bss
    rt_list.o(i.rt_put_rdy_first) refers to rt_list.o(.bss) for .bss
    rt_list.o(i.rt_resort_prio) refers to rt_list.o(i.rt_rmv_list) for rt_rmv_list
    rt_list.o(i.rt_resort_prio) refers to rt_list.o(i.rt_put_prio) for rt_put_prio
    rt_list.o(i.rt_resort_prio) refers to rt_list.o(.bss) for .bss
    rt_list.o(i.rt_rmv_list) refers to rt_list.o(.bss) for .bss
    rt_mailbox.o(i.isr_mbx_receive) refers to rt_list.o(i.rt_psq_enq) for rt_psq_enq
    rt_mailbox.o(i.isr_mbx_receive) refers to rt_system.o(i.rt_psh_req) for rt_psh_req
    rt_mailbox.o(i.isr_mbx_send) refers to rt_list.o(i.rt_psq_enq) for rt_psq_enq
    rt_mailbox.o(i.isr_mbx_send) refers to rt_system.o(i.rt_psh_req) for rt_psh_req
    rt_mailbox.o(i.rt_mbx_psh) refers to rt_membox.o(i.rt_alloc_box) for rt_alloc_box
    rt_mailbox.o(i.rt_mbx_psh) refers to rt_list.o(i.rt_get_first) for rt_get_first
    rt_mailbox.o(i.rt_mbx_psh) refers to hal_cm.o(i.rt_ret_val) for rt_ret_val
    rt_mailbox.o(i.rt_mbx_psh) refers to rt_list.o(i.rt_rmv_dly) for rt_rmv_dly
    rt_mailbox.o(i.rt_mbx_psh) refers to rt_list.o(i.rt_put_prio) for rt_put_prio
    rt_mailbox.o(i.rt_mbx_psh) refers to hal_cm.o(i.rt_ret_val2) for rt_ret_val2
    rt_mailbox.o(i.rt_mbx_psh) refers to rtx_conf_cm.o(.text) for os_error
    rt_mailbox.o(i.rt_mbx_psh) refers to rt_list.o(.bss) for os_rdy
    rt_mailbox.o(i.rt_mbx_send) refers to rt_list.o(i.rt_put_prio) for rt_put_prio
    rt_mailbox.o(i.rt_mbx_send) refers to rt_list.o(i.rt_get_first) for rt_get_first
    rt_mailbox.o(i.rt_mbx_send) refers to hal_cm.o(i.rt_ret_val2) for rt_ret_val2
    rt_mailbox.o(i.rt_mbx_send) refers to rt_list.o(i.rt_rmv_dly) for rt_rmv_dly
    rt_mailbox.o(i.rt_mbx_send) refers to rt_task.o(i.rt_dispatch) for rt_dispatch
    rt_mailbox.o(i.rt_mbx_send) refers to rt_task.o(i.rt_block) for rt_block
    rt_mailbox.o(i.rt_mbx_send) refers to rt_task.o(.data) for os_tsk
    rt_mailbox.o(i.rt_mbx_wait) refers to rt_list.o(i.rt_get_first) for rt_get_first
    rt_mailbox.o(i.rt_mbx_wait) refers to hal_cm.o(i.rt_ret_val) for rt_ret_val
    rt_mailbox.o(i.rt_mbx_wait) refers to rt_list.o(i.rt_rmv_dly) for rt_rmv_dly
    rt_mailbox.o(i.rt_mbx_wait) refers to rt_task.o(i.rt_dispatch) for rt_dispatch
    rt_mailbox.o(i.rt_mbx_wait) refers to rt_list.o(i.rt_put_prio) for rt_put_prio
    rt_mailbox.o(i.rt_mbx_wait) refers to rt_task.o(i.rt_block) for rt_block
    rt_mailbox.o(i.rt_mbx_wait) refers to rt_task.o(.data) for os_tsk
    rt_semaphore.o(i.isr_sem_send) refers to rt_list.o(i.rt_psq_enq) for rt_psq_enq
    rt_semaphore.o(i.isr_sem_send) refers to rt_system.o(i.rt_psh_req) for rt_psh_req
    rt_semaphore.o(i.rt_sem_delete) refers to rt_list.o(i.rt_get_first) for rt_get_first
    rt_semaphore.o(i.rt_sem_delete) refers to hal_cm.o(i.rt_ret_val) for rt_ret_val
    rt_semaphore.o(i.rt_sem_delete) refers to rt_list.o(i.rt_rmv_dly) for rt_rmv_dly
    rt_semaphore.o(i.rt_sem_delete) refers to rt_list.o(i.rt_put_prio) for rt_put_prio
    rt_semaphore.o(i.rt_sem_delete) refers to rt_task.o(i.rt_dispatch) for rt_dispatch
    rt_semaphore.o(i.rt_sem_delete) refers to rt_list.o(.bss) for os_rdy
    rt_semaphore.o(i.rt_sem_delete) refers to rt_task.o(.data) for os_tsk
    rt_semaphore.o(i.rt_sem_psh) refers to rt_list.o(i.rt_get_first) for rt_get_first
    rt_semaphore.o(i.rt_sem_psh) refers to rt_list.o(i.rt_rmv_dly) for rt_rmv_dly
    rt_semaphore.o(i.rt_sem_psh) refers to hal_cm.o(i.rt_ret_val) for rt_ret_val
    rt_semaphore.o(i.rt_sem_psh) refers to rt_list.o(i.rt_put_prio) for rt_put_prio
    rt_semaphore.o(i.rt_sem_psh) refers to rt_list.o(.bss) for os_rdy
    rt_semaphore.o(i.rt_sem_send) refers to rt_list.o(i.rt_get_first) for rt_get_first
    rt_semaphore.o(i.rt_sem_send) refers to hal_cm.o(i.rt_ret_val) for rt_ret_val
    rt_semaphore.o(i.rt_sem_send) refers to rt_list.o(i.rt_rmv_dly) for rt_rmv_dly
    rt_semaphore.o(i.rt_sem_send) refers to rt_task.o(i.rt_dispatch) for rt_dispatch
    rt_semaphore.o(i.rt_sem_wait) refers to rt_list.o(i.rt_put_prio) for rt_put_prio
    rt_semaphore.o(i.rt_sem_wait) refers to rt_task.o(i.rt_block) for rt_block
    rt_semaphore.o(i.rt_sem_wait) refers to rt_task.o(.data) for os_tsk
    rt_time.o(i.rt_dly_wait) refers to rt_task.o(i.rt_block) for rt_block
    rt_time.o(i.rt_itv_set) refers to rt_task.o(.data) for os_tsk
    rt_time.o(i.rt_itv_set) refers to rt_time.o(.data) for .data
    rt_time.o(i.rt_itv_wait) refers to rt_task.o(i.rt_block) for rt_block
    rt_time.o(i.rt_itv_wait) refers to rt_task.o(.data) for os_tsk
    rt_time.o(i.rt_itv_wait) refers to rt_time.o(.data) for .data
    rt_time.o(i.rt_time_get) refers to rt_time.o(.data) for .data
    rt_robin.o(i.rt_chk_robin) refers to rt_list.o(i.rt_get_first) for rt_get_first
    rt_robin.o(i.rt_chk_robin) refers to rt_list.o(i.rt_put_prio) for rt_put_prio
    rt_robin.o(i.rt_chk_robin) refers to rt_robin.o(.data) for .data
    rt_robin.o(i.rt_chk_robin) refers to rt_list.o(.bss) for os_rdy
    rt_robin.o(i.rt_chk_robin) refers to rt_time.o(.data) for os_time
    rt_robin.o(i.rt_init_robin) refers to rt_robin.o(.data) for .data
    rt_robin.o(i.rt_init_robin) refers to rtx_conf_cm.o(.constdata) for os_rrobin
    rt_membox.o(i._calloc_box) refers to hal_cm4.o(.emb_text) for _alloc_box
    hal_cm.o(i.dbg_init) refers to hal_cm.o(.data) for .data
    hal_cm.o(i.rt_init_stack) refers to rtx_conf_cm.o(.constdata) for os_stackinfo
    hal_cm.o(i.rt_ret_val) refers to hal_cm.o(i.rt_ret_regs) for rt_ret_regs
    hal_cm.o(i.rt_ret_val2) refers to hal_cm.o(i.rt_ret_regs) for rt_ret_regs
    hal_cm4.o(.emb_text) refers to rtx_conf_cm.o(.constdata) for os_flags
    hal_cm4.o(.emb_text) refers to rt_membox.o(i.rt_alloc_box) for rt_alloc_box
    hal_cm4.o(.emb_text) refers to rt_membox.o(i.rt_free_box) for rt_free_box
    hal_cm4.o(.emb_text) refers to rt_system.o(i.rt_stk_check) for rt_stk_check
    hal_cm4.o(.emb_text) refers to rt_task.o(.data) for os_tsk
    hal_cm4.o(.emb_text) refers to svc_table.o(SVC_TABLE) for SVC_Count
    hal_cm4.o(.emb_text) refers to rt_system.o(i.rt_pop_req) for rt_pop_req
    hal_cm4.o(.emb_text) refers to rt_system.o(i.rt_systick) for rt_systick
    hal_cm4.o(.emb_text) refers to rt_system.o(i.os_tick_irqack) for os_tick_irqack
    libspace.o(.text) refers to libspace.o(.bss) for __libspace_start
    llsdiv.o(.text) refers to lludivv7m.o(.text) for __aeabi_uldivmod
    exit.o(.text) refers to rtexit.o(.ARM.Collect$$rtexit$$00000000) for __rt_exit
    __main.o(!!!main) refers to __rtentry.o(.ARM.Collect$$rtentry$$00000000) for __rt_entry
    d2f.o(x$fpl$d2f) refers (Special) to usenofp.o(x$fpl$usenofp) for __I$use$fp
    d2f.o(x$fpl$d2f) refers to fretinf.o(x$fpl$fretinf) for __fpl_fretinf
    d2f.o(x$fpl$d2f) refers to dnaninf.o(x$fpl$dnaninf) for __fpl_dnaninf
    daddsub_clz.o(x$fpl$dadd) refers (Special) to usenofp.o(x$fpl$usenofp) for __I$use$fp
    daddsub_clz.o(x$fpl$dadd) refers to daddsub_clz.o(x$fpl$dsub) for _dsub1
    daddsub_clz.o(x$fpl$dadd) refers to dretinf.o(x$fpl$dretinf) for __fpl_dretinf
    daddsub_clz.o(x$fpl$dadd) refers to dnaninf.o(x$fpl$dnaninf) for __fpl_dnaninf
    daddsub_clz.o(x$fpl$drsb) refers (Special) to usenofp.o(x$fpl$usenofp) for __I$use$fp
    daddsub_clz.o(x$fpl$drsb) refers to daddsub_clz.o(x$fpl$dadd) for _dadd1
    daddsub_clz.o(x$fpl$drsb) refers to daddsub_clz.o(x$fpl$dsub) for _dsub1
    daddsub_clz.o(x$fpl$dsub) refers (Special) to usenofp.o(x$fpl$usenofp) for __I$use$fp
    daddsub_clz.o(x$fpl$dsub) refers to daddsub_clz.o(x$fpl$dadd) for _dadd1
    daddsub_clz.o(x$fpl$dsub) refers to dnaninf.o(x$fpl$dnaninf) for __fpl_dnaninf
    ddiv.o(x$fpl$drdiv) refers (Special) to usenofp.o(x$fpl$usenofp) for __I$use$fp
    ddiv.o(x$fpl$drdiv) refers to ddiv.o(x$fpl$ddiv) for ddiv_entry
    ddiv.o(x$fpl$ddiv) refers (Special) to usenofp.o(x$fpl$usenofp) for __I$use$fp
    ddiv.o(x$fpl$ddiv) refers to dretinf.o(x$fpl$dretinf) for __fpl_dretinf
    ddiv.o(x$fpl$ddiv) refers to dnaninf.o(x$fpl$dnaninf) for __fpl_dnaninf
    dflt_clz.o(x$fpl$dfltu) refers (Special) to usenofp.o(x$fpl$usenofp) for __I$use$fp
    dflt_clz.o(x$fpl$dflt) refers (Special) to usenofp.o(x$fpl$usenofp) for __I$use$fp
    dflt_clz.o(x$fpl$dfltn) refers (Special) to usenofp.o(x$fpl$usenofp) for __I$use$fp
    dmul.o(x$fpl$dmul) refers (Special) to usenofp.o(x$fpl$usenofp) for __I$use$fp
    dmul.o(x$fpl$dmul) refers to dretinf.o(x$fpl$dretinf) for __fpl_dretinf
    dmul.o(x$fpl$dmul) refers to dnaninf.o(x$fpl$dnaninf) for __fpl_dnaninf
    f2d.o(x$fpl$f2d) refers (Special) to usenofp.o(x$fpl$usenofp) for __I$use$fp
    f2d.o(x$fpl$f2d) refers to fnaninf.o(x$fpl$fnaninf) for __fpl_fnaninf
    f2d.o(x$fpl$f2d) refers to dretinf.o(x$fpl$dretinf) for __fpl_dretinf
    ffixll.o(x$fpl$llsfromf) refers (Special) to usenofp.o(x$fpl$usenofp) for __I$use$fp
    ffixll.o(x$fpl$llsfromf) refers to fnaninf.o(x$fpl$fnaninf) for __fpl_fnaninf
    ffixll.o(x$fpl$llsfromfr) refers (Special) to usenofp.o(x$fpl$usenofp) for __I$use$fp
    ffixll.o(x$fpl$llsfromfr) refers to fnaninf.o(x$fpl$fnaninf) for __fpl_fnaninf
    __rtentry.o(.ARM.Collect$$rtentry$$00000000) refers (Special) to __rtentry2.o(.ARM.Collect$$rtentry$$0000000A) for __rt_entry_li
    __rtentry.o(.ARM.Collect$$rtentry$$00000000) refers (Special) to __rtentry2.o(.ARM.Collect$$rtentry$$0000000D) for __rt_entry_main
    __rtentry.o(.ARM.Collect$$rtentry$$00000000) refers (Special) to __rtentry2.o(.ARM.Collect$$rtentry$$0000000B) for __rt_entry_postli_1
    __rtentry.o(.ARM.Collect$$rtentry$$00000000) refers (Special) to __rtentry2.o(.ARM.Collect$$rtentry$$00000009) for __rt_entry_postsh_1
    __rtentry.o(.ARM.Collect$$rtentry$$00000000) refers (Special) to __rtentry2.o(.ARM.Collect$$rtentry$$00000002) for __rt_entry_presh_1
    __rtentry.o(.ARM.Collect$$rtentry$$00000000) refers (Special) to __rtentry4.o(.ARM.Collect$$rtentry$$00000004) for __rt_entry_sh
    rtexit.o(.ARM.Collect$$rtexit$$00000000) refers (Special) to rtexit2.o(.ARM.Collect$$rtexit$$00000004) for __rt_exit_exit
    rtexit.o(.ARM.Collect$$rtexit$$00000000) refers (Special) to rtexit2.o(.ARM.Collect$$rtexit$$00000003) for __rt_exit_ls
    rtexit.o(.ARM.Collect$$rtexit$$00000000) refers (Special) to rtexit2.o(.ARM.Collect$$rtexit$$00000002) for __rt_exit_prels_1
    rtexit.o(.ARM.exidx) refers (Special) to rtexit2.o(.ARM.Collect$$rtexit$$00000004) for __rt_exit_exit
    rtexit.o(.ARM.exidx) refers (Special) to rtexit2.o(.ARM.Collect$$rtexit$$00000003) for __rt_exit_ls
    rtexit.o(.ARM.exidx) refers (Special) to rtexit2.o(.ARM.Collect$$rtexit$$00000002) for __rt_exit_prels_1
    rtexit.o(.ARM.exidx) refers to rtexit.o(.ARM.Collect$$rtexit$$00000000) for .ARM.Collect$$rtexit$$00000000
    aeabi_ldiv0_sigfpe.o(.text) refers to rt_div0.o(.text) for __rt_div0
    dnaninf.o(x$fpl$dnaninf) refers (Special) to usenofp.o(x$fpl$usenofp) for __I$use$fp
    dretinf.o(x$fpl$dretinf) refers (Special) to usenofp.o(x$fpl$usenofp) for __I$use$fp
    fnaninf.o(x$fpl$fnaninf) refers (Special) to usenofp.o(x$fpl$usenofp) for __I$use$fp
    fretinf.o(x$fpl$fretinf) refers (Special) to usenofp.o(x$fpl$usenofp) for __I$use$fp
    __rtentry2.o(.ARM.Collect$$rtentry$$00000008) refers to boardinit2.o(.text) for _platform_post_stackheap_init
    __rtentry2.o(.ARM.Collect$$rtentry$$0000000A) refers to libinit.o(.ARM.Collect$$libinit$$00000000) for __rt_lib_init
    __rtentry2.o(.ARM.Collect$$rtentry$$0000000B) refers to rtx_conf_cm.o(.emb_text) for _platform_post_lib_init
    __rtentry2.o(.ARM.Collect$$rtentry$$0000000D) refers to blinky.o(.text) for main
    __rtentry2.o(.ARM.Collect$$rtentry$$0000000D) refers to exit.o(.text) for exit
    __rtentry2.o(.ARM.exidx) refers to __rtentry2.o(.ARM.Collect$$rtentry$$00000001) for .ARM.Collect$$rtentry$$00000001
    __rtentry2.o(.ARM.exidx) refers to __rtentry2.o(.ARM.Collect$$rtentry$$00000008) for .ARM.Collect$$rtentry$$00000008
    __rtentry2.o(.ARM.exidx) refers to __rtentry2.o(.ARM.Collect$$rtentry$$0000000A) for .ARM.Collect$$rtentry$$0000000A
    __rtentry2.o(.ARM.exidx) refers to __rtentry2.o(.ARM.Collect$$rtentry$$0000000B) for .ARM.Collect$$rtentry$$0000000B
    __rtentry2.o(.ARM.exidx) refers to __rtentry2.o(.ARM.Collect$$rtentry$$0000000D) for .ARM.Collect$$rtentry$$0000000D
    __rtentry4.o(.ARM.Collect$$rtentry$$00000004) refers to sys_stackheap_outer.o(.text) for __user_setup_stackheap
    __rtentry4.o(.ARM.exidx) refers to __rtentry4.o(.ARM.Collect$$rtentry$$00000004) for .ARM.Collect$$rtentry$$00000004
    rtexit2.o(.ARM.Collect$$rtexit$$00000003) refers to libshutdown.o(.ARM.Collect$$libshutdown$$00000000) for __rt_lib_shutdown
    rtexit2.o(.ARM.Collect$$rtexit$$00000004) refers to sys_exit.o(.text) for _sys_exit
    rtexit2.o(.ARM.exidx) refers to rtexit2.o(.ARM.Collect$$rtexit$$00000001) for .ARM.Collect$$rtexit$$00000001
    rtexit2.o(.ARM.exidx) refers to rtexit2.o(.ARM.Collect$$rtexit$$00000003) for .ARM.Collect$$rtexit$$00000003
    rtexit2.o(.ARM.exidx) refers to rtexit2.o(.ARM.Collect$$rtexit$$00000004) for .ARM.Collect$$rtexit$$00000004
    rt_div0.o(.text) refers to defsig_fpe_outer.o(.text) for __rt_SIGFPE
    sys_exit.o(.text) refers (Special) to use_no_semi.o(.text) for __I$use$semihosting
    sys_exit.o(.text) refers (Special) to indicate_semi.o(.text) for __semihosting_library_function
    sys_stackheap_outer.o(.text) refers to libspace.o(.text) for __user_perproc_libspace
    sys_stackheap_outer.o(.text) refers to startup_tm4c129.o(.text) for __user_initial_stackheap
    defsig_fpe_outer.o(.text) refers to defsig_fpe_inner.o(.text) for __rt_SIGFPE_inner
    defsig_fpe_outer.o(.text) refers to defsig_exit.o(.text) for __sig_exit
    defsig_fpe_formal.o(.text) refers to rt_raise.o(.text) for __rt_raise
    libinit.o(.ARM.Collect$$libinit$$00000000) refers (Special) to libinit2.o(.ARM.Collect$$libinit$$0000002E) for __rt_lib_init_alloca_1
    libinit.o(.ARM.Collect$$libinit$$00000000) refers (Special) to libinit2.o(.ARM.Collect$$libinit$$0000002C) for __rt_lib_init_argv_1
    libinit.o(.ARM.Collect$$libinit$$00000000) refers (Special) to libinit2.o(.ARM.Collect$$libinit$$0000001B) for __rt_lib_init_atexit_1
    libinit.o(.ARM.Collect$$libinit$$00000000) refers (Special) to libinit2.o(.ARM.Collect$$libinit$$00000021) for __rt_lib_init_clock_1
    libinit.o(.ARM.Collect$$libinit$$00000000) refers (Special) to libinit2.o(.ARM.Collect$$libinit$$00000032) for __rt_lib_init_cpp_1
    libinit.o(.ARM.Collect$$libinit$$00000000) refers (Special) to libinit2.o(.ARM.Collect$$libinit$$00000030) for __rt_lib_init_exceptions_1
    libinit.o(.ARM.Collect$$libinit$$00000000) refers (Special) to libinit2.o(.ARM.Collect$$libinit$$00000001) for __rt_lib_init_fp_1
    libinit.o(.ARM.Collect$$libinit$$00000000) refers (Special) to libinit2.o(.ARM.Collect$$libinit$$0000001F) for __rt_lib_init_fp_trap_1
    libinit.o(.ARM.Collect$$libinit$$00000000) refers (Special) to libinit2.o(.ARM.Collect$$libinit$$00000023) for __rt_lib_init_getenv_1
    libinit.o(.ARM.Collect$$libinit$$00000000) refers (Special) to libinit2.o(.ARM.Collect$$libinit$$0000000A) for __rt_lib_init_heap_1
    libinit.o(.ARM.Collect$$libinit$$00000000) refers (Special) to libinit2.o(.ARM.Collect$$libinit$$00000011) for __rt_lib_init_lc_collate_1
    libinit.o(.ARM.Collect$$libinit$$00000000) refers (Special) to libinit2.o(.ARM.Collect$$libinit$$00000013) for __rt_lib_init_lc_ctype_1
    libinit.o(.ARM.Collect$$libinit$$00000000) refers (Special) to libinit2.o(.ARM.Collect$$libinit$$00000015) for __rt_lib_init_lc_monetary_1
    libinit.o(.ARM.Collect$$libinit$$00000000) refers (Special) to libinit2.o(.ARM.Collect$$libinit$$00000017) for __rt_lib_init_lc_numeric_1
    libinit.o(.ARM.Collect$$libinit$$00000000) refers (Special) to libinit2.o(.ARM.Collect$$libinit$$00000019) for __rt_lib_init_lc_time_1
    libinit.o(.ARM.Collect$$libinit$$00000000) refers (Special) to libinit2.o(.ARM.Collect$$libinit$$00000004) for __rt_lib_init_preinit_1
    libinit.o(.ARM.Collect$$libinit$$00000000) refers (Special) to libinit2.o(.ARM.Collect$$libinit$$0000000E) for __rt_lib_init_rand_1
    libinit.o(.ARM.Collect$$libinit$$00000000) refers (Special) to libinit2.o(.ARM.Collect$$libinit$$00000033) for __rt_lib_init_return
    libinit.o(.ARM.Collect$$libinit$$00000000) refers (Special) to libinit2.o(.ARM.Collect$$libinit$$0000001D) for __rt_lib_init_signal_1
    libinit.o(.ARM.Collect$$libinit$$00000000) refers (Special) to libinit2.o(.ARM.Collect$$libinit$$00000025) for __rt_lib_init_stdio_1
    libinit.o(.ARM.Collect$$libinit$$00000000) refers (Special) to libinit2.o(.ARM.Collect$$libinit$$0000000C) for __rt_lib_init_user_alloc_1
    libshutdown.o(.ARM.Collect$$libshutdown$$00000000) refers (Special) to libshutdown2.o(.ARM.Collect$$libshutdown$$00000002) for __rt_lib_shutdown_cpp_1
    libshutdown.o(.ARM.Collect$$libshutdown$$00000000) refers (Special) to libshutdown2.o(.ARM.Collect$$libshutdown$$00000007) for __rt_lib_shutdown_fp_trap_1
    libshutdown.o(.ARM.Collect$$libshutdown$$00000000) refers (Special) to libshutdown2.o(.ARM.Collect$$libshutdown$$0000000F) for __rt_lib_shutdown_heap_1
    libshutdown.o(.ARM.Collect$$libshutdown$$00000000) refers (Special) to libshutdown2.o(.ARM.Collect$$libshutdown$$00000010) for __rt_lib_shutdown_return
    libshutdown.o(.ARM.Collect$$libshutdown$$00000000) refers (Special) to libshutdown2.o(.ARM.Collect$$libshutdown$$0000000A) for __rt_lib_shutdown_signal_1
    libshutdown.o(.ARM.Collect$$libshutdown$$00000000) refers (Special) to libshutdown2.o(.ARM.Collect$$libshutdown$$00000004) for __rt_lib_shutdown_stdio_1
    libshutdown.o(.ARM.Collect$$libshutdown$$00000000) refers (Special) to libshutdown2.o(.ARM.Collect$$libshutdown$$0000000C) for __rt_lib_shutdown_user_alloc_1
    rt_raise.o(.text) refers to __raise.o(.text) for __raise
    rt_raise.o(.text) refers to sys_exit.o(.text) for _sys_exit
    defsig_exit.o(.text) refers to sys_exit.o(.text) for _sys_exit
    defsig_fpe_inner.o(.text) refers to defsig_general.o(.text) for __default_signal_display
    libinit2.o(.ARM.Collect$$libinit$$00000001) refers to fpinit.o(x$fpl$fpinit) for _fp_init
    libinit2.o(.ARM.Collect$$libinit$$00000010) refers to libinit2.o(.ARM.Collect$$libinit$$0000000F) for .ARM.Collect$$libinit$$0000000F
    libinit2.o(.ARM.Collect$$libinit$$00000012) refers to libinit2.o(.ARM.Collect$$libinit$$0000000F) for .ARM.Collect$$libinit$$0000000F
    libinit2.o(.ARM.Collect$$libinit$$00000014) refers to libinit2.o(.ARM.Collect$$libinit$$0000000F) for .ARM.Collect$$libinit$$0000000F
    libinit2.o(.ARM.Collect$$libinit$$00000016) refers to libinit2.o(.ARM.Collect$$libinit$$0000000F) for .ARM.Collect$$libinit$$0000000F
    libinit2.o(.ARM.Collect$$libinit$$00000018) refers to libinit2.o(.ARM.Collect$$libinit$$0000000F) for .ARM.Collect$$libinit$$0000000F
    libinit2.o(.ARM.Collect$$libinit$$00000026) refers to argv_veneer.o(.emb_text) for __ARM_argv_veneer
    libinit2.o(.ARM.Collect$$libinit$$00000027) refers to argv_veneer.o(.emb_text) for __ARM_argv_veneer
    __raise.o(.text) refers to defsig.o(CL$$defsig) for __default_signal_handler
    defsig_general.o(.text) refers to sys_wrch.o(.text) for _ttywrch
    argv_veneer.o(.emb_text) refers to no_argv.o(.text) for __ARM_get_argv
    sys_wrch.o(.text) refers (Special) to use_no_semi.o(.text) for __I$use$semihosting
    sys_wrch.o(.text) refers (Special) to indicate_semi.o(.text) for __semihosting_library_function
    defsig.o(CL$$defsig) refers to defsig_fpe_inner.o(.text) for __rt_SIGFPE_inner
    defsig.o(CL$$defsig) refers to defsig_rtmem_inner.o(.text) for __rt_SIGRTMEM_inner
    _get_argv_nomalloc.o(.text) refers (Special) to hrguard.o(.text) for __heap_region$guard
    _get_argv_nomalloc.o(.text) refers to defsig_rtmem_outer.o(.text) for __rt_SIGRTMEM
    _get_argv_nomalloc.o(.text) refers to sys_command.o(.text) for _sys_command_string
    sys_command.o(.text) refers (Special) to use_no_semi.o(.text) for __I$use$semihosting
    sys_command.o(.text) refers (Special) to indicate_semi.o(.text) for __semihosting_library_function
    defsig_abrt_inner.o(.text) refers to defsig_general.o(.text) for __default_signal_display
    defsig_rtred_inner.o(.text) refers to defsig_general.o(.text) for __default_signal_display
    defsig_rtmem_inner.o(.text) refers to defsig_general.o(.text) for __default_signal_display
    defsig_rtmem_outer.o(.text) refers to defsig_rtmem_inner.o(.text) for __rt_SIGRTMEM_inner
    defsig_rtmem_outer.o(.text) refers to defsig_exit.o(.text) for __sig_exit
    defsig_rtmem_formal.o(.text) refers to rt_raise.o(.text) for __rt_raise
    defsig_stak_inner.o(.text) refers to defsig_general.o(.text) for __default_signal_display
    defsig_pvfn_inner.o(.text) refers to defsig_general.o(.text) for __default_signal_display
    defsig_cppl_inner.o(.text) refers to defsig_general.o(.text) for __default_signal_display
    defsig_segv_inner.o(.text) refers to defsig_general.o(.text) for __default_signal_display
    defsig_other.o(.text) refers to defsig_general.o(.text) for __default_signal_display


==============================================================================

Removing Unused input sections from the image.

    Removing blinky.o(.rev16_text), (4 bytes).
    Removing blinky.o(.revsh_text), (4 bytes).
    Removing blinky.o(.rrx_text), (6 bytes).
    Removing cfaf128x128x16.o(.constdata), (2 bytes).
    Removing cfaf128x128x16.o(.constdata), (2 bytes).
    Removing cfaf128x128x16.o(.constdata), (2 bytes).
    Removing cfaf128x128x16.o(.constdata), (2 bytes).
    Removing cfaf128x128x16.o(.constdata), (2 bytes).
    Removing cfaf128x128x16.o(.constdata), (2 bytes).
    Removing cfaf128x128x16.o(.constdata), (2 bytes).
    Removing cfaf128x128x16.o(.constdata), (2 bytes).
    Removing cfaf128x128x16.o(.constdata), (2 bytes).
    Removing cfaf128x128x16.o(.constdata), (2 bytes).
    Removing cfaf128x128x16.o(.constdata), (2 bytes).
    Removing cfaf128x128x16.o(.constdata), (2 bytes).
    Removing led.o(.rev16_text), (4 bytes).
    Removing led.o(.revsh_text), (4 bytes).
    Removing led.o(.rrx_text), (6 bytes).
    Removing rtx_conf_cm.o(.constdata), (4 bytes).
    Removing rtx_conf_cm.o(.constdata), (2 bytes).
    Removing rtx_conf_cm.o(.constdata), (2 bytes).
    Removing rtx_conf_cm.o(.data), (4 bytes).
    Removing system_tm4c129.o(.rev16_text), (4 bytes).
    Removing system_tm4c129.o(.revsh_text), (4 bytes).
    Removing system_tm4c129.o(.rrx_text), (6 bytes).
    Removing adc.o(i.ADCBusy), (8 bytes).
    Removing adc.o(i.ADCClockConfigGet), (32 bytes).
    Removing adc.o(i.ADCClockConfigSet), (28 bytes).
    Removing adc.o(i.ADCComparatorConfigure), (10 bytes).
    Removing adc.o(i.ADCComparatorIntClear), (4 bytes).
    Removing adc.o(i.ADCComparatorIntDisable), (18 bytes).
    Removing adc.o(i.ADCComparatorIntEnable), (16 bytes).
    Removing adc.o(i.ADCComparatorIntStatus), (4 bytes).
    Removing adc.o(i.ADCComparatorRegionSet), (14 bytes).
    Removing adc.o(i.ADCComparatorReset), (40 bytes).
    Removing adc.o(i.ADCHardwareOversampleConfigure), (18 bytes).
    Removing adc.o(i.ADCIntClearEx), (4 bytes).
    Removing adc.o(i.ADCIntDisable), (16 bytes).
    Removing adc.o(i.ADCIntDisableEx), (10 bytes).
    Removing adc.o(i.ADCIntEnable), (16 bytes).
    Removing adc.o(i.ADCIntEnableEx), (8 bytes).
    Removing adc.o(i.ADCIntRegister), (104 bytes).
    Removing adc.o(i.ADCIntStatusEx), (22 bytes).
    Removing adc.o(i.ADCIntUnregister), (108 bytes).
    Removing adc.o(i.ADCPhaseDelayGet), (4 bytes).
    Removing adc.o(i.ADCPhaseDelaySet), (4 bytes).
    Removing adc.o(i.ADCReferenceGet), (8 bytes).
    Removing adc.o(i.ADCReferenceSet), (12 bytes).
    Removing adc.o(i.ADCSequenceDMADisable), (18 bytes).
    Removing adc.o(i.ADCSequenceDMAEnable), (16 bytes).
    Removing adc.o(i.ADCSequenceDisable), (16 bytes).
    Removing adc.o(i.ADCSequenceOverflow), (12 bytes).
    Removing adc.o(i.ADCSequenceOverflowClear), (10 bytes).
    Removing adc.o(i.ADCSequenceUnderflow), (12 bytes).
    Removing adc.o(i.ADCSequenceUnderflowClear), (10 bytes).
    Removing adc.o(i.ADCSoftwareOversampleConfigure), (44 bytes).
    Removing adc.o(i.ADCSoftwareOversampleDataGet), (88 bytes).
    Removing adc.o(i.ADCSoftwareOversampleStepConfigure), (168 bytes).
    Removing adc.o(.data), (6 bytes).
    Removing gpio.o(i.GPIOADCTriggerDisable), (14 bytes).
    Removing gpio.o(i.GPIOADCTriggerEnable), (12 bytes).
    Removing gpio.o(i.GPIODMATriggerDisable), (14 bytes).
    Removing gpio.o(i.GPIODMATriggerEnable), (12 bytes).
    Removing gpio.o(i.GPIODirModeGet), (34 bytes).
    Removing gpio.o(i.GPIOIntClear), (6 bytes).
    Removing gpio.o(i.GPIOIntDisable), (14 bytes).
    Removing gpio.o(i.GPIOIntEnable), (12 bytes).
    Removing gpio.o(i.GPIOIntRegister), (26 bytes).
    Removing gpio.o(i.GPIOIntRegisterPin), (30 bytes).
    Removing gpio.o(i.GPIOIntStatus), (14 bytes).
    Removing gpio.o(i.GPIOIntTypeGet), (68 bytes).
    Removing gpio.o(i.GPIOIntTypeSet), (80 bytes).
    Removing gpio.o(i.GPIOIntUnregister), (22 bytes).
    Removing gpio.o(i.GPIOIntUnregisterPin), (26 bytes).
    Removing gpio.o(i.GPIOPadConfigGet), (204 bytes).
    Removing gpio.o(i.GPIOPinTypeCAN), (28 bytes).
    Removing gpio.o(i.GPIOPinTypeComparator), (28 bytes).
    Removing gpio.o(i.GPIOPinTypeComparatorOutput), (28 bytes).
    Removing gpio.o(i.GPIOPinTypeDIVSCLK), (28 bytes).
    Removing gpio.o(i.GPIOPinTypeEPI), (28 bytes).
    Removing gpio.o(i.GPIOPinTypeEthernetLED), (28 bytes).
    Removing gpio.o(i.GPIOPinTypeEthernetMII), (28 bytes).
    Removing gpio.o(i.GPIOPinTypeGPIOOutput), (28 bytes).
    Removing gpio.o(i.GPIOPinTypeGPIOOutputOD), (28 bytes).
    Removing gpio.o(i.GPIOPinTypeHibernateRTCCLK), (28 bytes).
    Removing gpio.o(i.GPIOPinTypeLCD), (28 bytes).
    Removing gpio.o(i.GPIOPinTypeOneWire), (28 bytes).
    Removing gpio.o(i.GPIOPinTypeQEI), (28 bytes).
    Removing gpio.o(i.GPIOPinTypeSSI), (28 bytes).
    Removing gpio.o(i.GPIOPinTypeTrace), (28 bytes).
    Removing gpio.o(i.GPIOPinTypeUART), (28 bytes).
    Removing gpio.o(i.GPIOPinTypeUSBAnalog), (28 bytes).
    Removing gpio.o(i.GPIOPinTypeUSBDigital), (28 bytes).
    Removing gpio.o(i.GPIOPinTypeWakeHigh), (30 bytes).
    Removing gpio.o(i.GPIOPinTypeWakeLow), (30 bytes).
    Removing gpio.o(i.GPIOPinWakeStatus), (6 bytes).
    Removing gpio.o(i.GPIOPinWrite), (6 bytes).
    Removing gpio.o(i._GPIOIntNumberGet), (80 bytes).
    Removing i2c.o(i.I2CFIFODataGet), (16 bytes).
    Removing i2c.o(i.I2CFIFODataGetNonBlocking), (24 bytes).
    Removing i2c.o(i.I2CFIFODataPut), (16 bytes).
    Removing i2c.o(i.I2CFIFODataPutNonBlocking), (20 bytes).
    Removing i2c.o(i.I2CFIFOStatus), (6 bytes).
    Removing i2c.o(i.I2CIntUnregister), (96 bytes).
    Removing i2c.o(i.I2CLoopbackEnable), (10 bytes).
    Removing i2c.o(i.I2CMasterBurstCountGet), (4 bytes).
    Removing i2c.o(i.I2CMasterDisable), (10 bytes).
    Removing i2c.o(i.I2CMasterIntDisable), (6 bytes).
    Removing i2c.o(i.I2CMasterIntDisableEx), (10 bytes).
    Removing i2c.o(i.I2CMasterIntEnable), (6 bytes).
    Removing i2c.o(i.I2CMasterIntStatus), (24 bytes).
    Removing i2c.o(i.I2CMasterIntStatusEx), (10 bytes).
    Removing i2c.o(i.I2CMasterLineStateGet), (4 bytes).
    Removing i2c.o(i.I2CRxFIFOConfigSet), (22 bytes).
    Removing i2c.o(i.I2CRxFIFOFlush), (14 bytes).
    Removing i2c.o(i.I2CSlaveACKOverride), (22 bytes).
    Removing i2c.o(i.I2CSlaveACKValueSet), (22 bytes).
    Removing i2c.o(i.I2CSlaveAddressSet), (24 bytes).
    Removing i2c.o(i.I2CSlaveDataGet), (6 bytes).
    Removing i2c.o(i.I2CSlaveDataPut), (6 bytes).
    Removing i2c.o(i.I2CSlaveDisable), (16 bytes).
    Removing i2c.o(i.I2CSlaveEnable), (16 bytes).
    Removing i2c.o(i.I2CSlaveFIFODisable), (8 bytes).
    Removing i2c.o(i.I2CSlaveFIFOEnable), (10 bytes).
    Removing i2c.o(i.I2CSlaveInit), (20 bytes).
    Removing i2c.o(i.I2CSlaveIntClear), (8 bytes).
    Removing i2c.o(i.I2CSlaveIntClearEx), (6 bytes).
    Removing i2c.o(i.I2CSlaveIntDisable), (14 bytes).
    Removing i2c.o(i.I2CSlaveIntDisableEx), (14 bytes).
    Removing i2c.o(i.I2CSlaveIntEnable), (14 bytes).
    Removing i2c.o(i.I2CSlaveIntEnableEx), (12 bytes).
    Removing i2c.o(i.I2CSlaveIntStatus), (28 bytes).
    Removing i2c.o(i.I2CSlaveIntStatusEx), (14 bytes).
    Removing i2c.o(i.I2CSlaveStatus), (6 bytes).
    Removing i2c.o(i.I2CTxFIFOConfigSet), (24 bytes).
    Removing i2c.o(i.I2CTxFIFOFlush), (14 bytes).
    Removing interrupt.o(i.IntDisable), (100 bytes).
    Removing interrupt.o(i.IntIsEnabled), (96 bytes).
    Removing interrupt.o(i.IntMasterDisable), (14 bytes).
    Removing interrupt.o(i.IntMasterEnable), (14 bytes).
    Removing interrupt.o(i.IntPendClear), (68 bytes).
    Removing interrupt.o(i.IntPendSet), (84 bytes).
    Removing interrupt.o(i.IntPriorityGet), (28 bytes).
    Removing interrupt.o(i.IntPriorityGroupingGet), (36 bytes).
    Removing interrupt.o(i.IntPriorityGroupingSet), (28 bytes).
    Removing interrupt.o(i.IntPriorityMaskGet), (4 bytes).
    Removing interrupt.o(i.IntPriorityMaskSet), (4 bytes).
    Removing interrupt.o(i.IntPrioritySet), (40 bytes).
    Removing interrupt.o(i.IntTrigger), (12 bytes).
    Removing interrupt.o(i.IntUnregister), (20 bytes).
    Removing interrupt.o(i._IntDefaultHandler), (2 bytes).
    Removing pwm.o(i.PWMClockGet), (26 bytes).
    Removing pwm.o(i.PWMDeadBandDisable), (12 bytes).
    Removing pwm.o(i.PWMDeadBandEnable), (16 bytes).
    Removing pwm.o(i.PWMFaultIntClear), (8 bytes).
    Removing pwm.o(i.PWMFaultIntClearExt), (4 bytes).
    Removing pwm.o(i.PWMFaultIntRegister), (96 bytes).
    Removing pwm.o(i.PWMFaultIntUnregister), (88 bytes).
    Removing pwm.o(i.PWMGenFaultClear), (18 bytes).
    Removing pwm.o(i.PWMGenFaultConfigure), (18 bytes).
    Removing pwm.o(i.PWMGenFaultStatus), (18 bytes).
    Removing pwm.o(i.PWMGenFaultTriggerGet), (12 bytes).
    Removing pwm.o(i.PWMGenFaultTriggerSet), (12 bytes).
    Removing pwm.o(i.PWMGenIntClear), (6 bytes).
    Removing pwm.o(i.PWMGenIntRegister), (26 bytes).
    Removing pwm.o(i.PWMGenIntStatus), (12 bytes).
    Removing pwm.o(i.PWMGenIntTrigDisable), (10 bytes).
    Removing pwm.o(i.PWMGenIntTrigEnable), (10 bytes).
    Removing pwm.o(i.PWMGenIntUnregister), (22 bytes).
    Removing pwm.o(i.PWMIntDisable), (10 bytes).
    Removing pwm.o(i.PWMIntEnable), (8 bytes).
    Removing pwm.o(i.PWMIntStatus), (10 bytes).
    Removing pwm.o(i.PWMOutputFault), (16 bytes).
    Removing pwm.o(i.PWMOutputFaultLevel), (16 bytes).
    Removing pwm.o(i.PWMOutputUpdateMode), (62 bytes).
    Removing pwm.o(i.PWMPulseWidthGet), (32 bytes).
    Removing pwm.o(i.PWMSyncTimeBase), (4 bytes).
    Removing pwm.o(i.PWMSyncUpdate), (4 bytes).
    Removing pwm.o(i._PWMGenIntNumberGet), (224 bytes).
    Removing sysctl.o(i.SysCtlAltClkConfig), (12 bytes).
    Removing sysctl.o(i.SysCtlClockGet), (340 bytes).
    Removing sysctl.o(i.SysCtlClockOutConfig), (20 bytes).
    Removing sysctl.o(i.SysCtlClockSet), (288 bytes).
    Removing sysctl.o(i.SysCtlDeepSleep), (32 bytes).
    Removing sysctl.o(i.SysCtlDeepSleepClockConfigSet), (112 bytes).
    Removing sysctl.o(i.SysCtlDeepSleepClockSet), (12 bytes).
    Removing sysctl.o(i.SysCtlDeepSleepPowerSet), (12 bytes).
    Removing sysctl.o(i.SysCtlFlashSectorSizeGet), (56 bytes).
    Removing sysctl.o(i.SysCtlFlashSizeGet), (56 bytes).
    Removing sysctl.o(i.SysCtlGPIOAHBDisable), (28 bytes).
    Removing sysctl.o(i.SysCtlGPIOAHBEnable), (24 bytes).
    Removing sysctl.o(i.SysCtlIntClear), (12 bytes).
    Removing sysctl.o(i.SysCtlIntDisable), (16 bytes).
    Removing sysctl.o(i.SysCtlIntEnable), (16 bytes).
    Removing sysctl.o(i.SysCtlIntRegister), (20 bytes).
    Removing sysctl.o(i.SysCtlIntStatus), (16 bytes).
    Removing sysctl.o(i.SysCtlIntUnregister), (18 bytes).
    Removing sysctl.o(i.SysCtlLDODeepSleepGet), (12 bytes).
    Removing sysctl.o(i.SysCtlLDODeepSleepSet), (12 bytes).
    Removing sysctl.o(i.SysCtlLDOSleepGet), (12 bytes).
    Removing sysctl.o(i.SysCtlLDOSleepSet), (12 bytes).
    Removing sysctl.o(i.SysCtlMOSCConfigSet), (12 bytes).
    Removing sysctl.o(i.SysCtlNMIClear), (16 bytes).
    Removing sysctl.o(i.SysCtlNMIStatus), (12 bytes).
    Removing sysctl.o(i.SysCtlPIOSCCalibrate), (76 bytes).
    Removing sysctl.o(i.SysCtlPWMClockGet), (24 bytes).
    Removing sysctl.o(i.SysCtlPWMClockSet), (20 bytes).
    Removing sysctl.o(i.SysCtlPeripheralClockGating), (68 bytes).
    Removing sysctl.o(i.SysCtlPeripheralDeepSleepDisable), (40 bytes).
    Removing sysctl.o(i.SysCtlPeripheralDeepSleepEnable), (40 bytes).
    Removing sysctl.o(i.SysCtlPeripheralDisable), (40 bytes).
    Removing sysctl.o(i.SysCtlPeripheralPowerOff), (40 bytes).
    Removing sysctl.o(i.SysCtlPeripheralPowerOn), (40 bytes).
    Removing sysctl.o(i.SysCtlPeripheralPresent), (44 bytes).
    Removing sysctl.o(i.SysCtlPeripheralSleepDisable), (40 bytes).
    Removing sysctl.o(i.SysCtlPeripheralSleepEnable), (40 bytes).
    Removing sysctl.o(i.SysCtlReset), (16 bytes).
    Removing sysctl.o(i.SysCtlResetBehaviorGet), (12 bytes).
    Removing sysctl.o(i.SysCtlResetBehaviorSet), (12 bytes).
    Removing sysctl.o(i.SysCtlResetCauseClear), (16 bytes).
    Removing sysctl.o(i.SysCtlResetCauseGet), (12 bytes).
    Removing sysctl.o(i.SysCtlSRAMSizeGet), (16 bytes).
    Removing sysctl.o(i.SysCtlSleep), (4 bytes).
    Removing sysctl.o(i.SysCtlSleepPowerSet), (12 bytes).
    Removing sysctl.o(i.SysCtlUSBPLLDisable), (16 bytes).
    Removing sysctl.o(i.SysCtlUSBPLLEnable), (16 bytes).
    Removing sysctl.o(i.SysCtlVCOGet), (120 bytes).
    Removing sysctl.o(i.SysCtlVoltageEventClear), (16 bytes).
    Removing sysctl.o(i.SysCtlVoltageEventConfig), (12 bytes).
    Removing sysctl.o(i.SysCtlVoltageEventStatus), (12 bytes).
    Removing timer.o(i.TimerADCEventGet), (4 bytes).
    Removing timer.o(i.TimerADCEventSet), (4 bytes).
    Removing timer.o(i.TimerClockSourceGet), (6 bytes).
    Removing timer.o(i.TimerControlEvent), (18 bytes).
    Removing timer.o(i.TimerControlStall), (22 bytes).
    Removing timer.o(i.TimerControlTrigger), (80 bytes).
    Removing timer.o(i.TimerControlWaitOnTrigger), (48 bytes).
    Removing timer.o(i.TimerDMAEventGet), (4 bytes).
    Removing timer.o(i.TimerDMAEventSet), (4 bytes).
    Removing timer.o(i.TimerDisable), (16 bytes).
    Removing timer.o(i.TimerIntClear), (4 bytes).
    Removing timer.o(i.TimerIntDisable), (10 bytes).
    Removing timer.o(i.TimerIntEnable), (8 bytes).
    Removing timer.o(i.TimerIntRegister), (104 bytes).
    Removing timer.o(i.TimerIntStatus), (10 bytes).
    Removing timer.o(i.TimerIntUnregister), (104 bytes).
    Removing timer.o(i.TimerLoadGet), (10 bytes).
    Removing timer.o(i.TimerLoadGet64), (14 bytes).
    Removing timer.o(i.TimerLoadSet64), (6 bytes).
    Removing timer.o(i.TimerMatchGet), (10 bytes).
    Removing timer.o(i.TimerMatchGet64), (14 bytes).
    Removing timer.o(i.TimerMatchSet64), (6 bytes).
    Removing timer.o(i.TimerPrescaleGet), (10 bytes).
    Removing timer.o(i.TimerPrescaleMatchGet), (10 bytes).
    Removing timer.o(i.TimerPrescaleMatchSet), (18 bytes).
    Removing timer.o(i.TimerRTCDisable), (10 bytes).
    Removing timer.o(i.TimerRTCEnable), (10 bytes).
    Removing timer.o(i.TimerSynchronize), (4 bytes).
    Removing timer.o(i.TimerValueGet), (10 bytes).
    Removing timer.o(i.TimerValueGet64), (14 bytes).
    Removing timer.o(.constdata), (160 bytes).
    Removing context.o(i.GrContextClipRegionSet), (112 bytes).
    Removing context.o(i.GrLibInit), (12 bytes).
    Removing rectangle.o(i.GrRectDraw), (108 bytes).
    Removing rectangle.o(i.GrRectIntersectGet), (140 bytes).
    Removing rectangle.o(i.GrRectOverlapCheck), (56 bytes).
    Removing string.o(i.GrCodepageMapTableSet), (10 bytes).
    Removing string.o(i.GrFontBaselineGet), (44 bytes).
    Removing string.o(i.GrFontBlockCodepointsGet), (84 bytes).
    Removing string.o(i.GrFontCodepageGet), (32 bytes).
    Removing string.o(i.GrFontHeightGet), (44 bytes).
    Removing string.o(i.GrFontInfoGet), (48 bytes).
    Removing string.o(i.GrFontMaxWidthGet), (44 bytes).
    Removing string.o(i.GrFontNumBlocksGet), (32 bytes).
    Removing string.o(i.GrStringCodepageSet), (6 bytes).
    Removing string.o(i.GrStringGet), (596 bytes).
    Removing string.o(i.GrStringLanguageSet), (48 bytes).
    Removing string.o(i.GrStringNextCharGet), (52 bytes).
    Removing string.o(i.GrStringTableSet), (36 bytes).
    Removing string.o(i.GrStringWidthGet), (192 bytes).
    Removing string.o(.data), (20 bytes).
    Removing rt_cmsis.o(.rev16_text), (4 bytes).
    Removing rt_cmsis.o(.revsh_text), (4 bytes).
    Removing rt_cmsis.o(.rrx_text), (6 bytes).
    Removing rt_cmsis.o(i.isrSemaphoreRelease), (40 bytes).
    Removing rt_cmsis.o(i.isrSignalSet), (36 bytes).
    Removing rt_cmsis.o(i.osKernelRunning), (36 bytes).
    Removing rt_cmsis.o(i.osKernelSysTick), (24 bytes).
    Removing rt_cmsis.o(i.osMailCAlloc), (48 bytes).
    Removing rt_cmsis.o(i.osMessageCreate), (44 bytes).
    Removing rt_cmsis.o(i.osMutexDelete), (24 bytes).
    Removing rt_cmsis.o(i.osPoolAlloc), (32 bytes).
    Removing rt_cmsis.o(i.osPoolCAlloc), (52 bytes).
    Removing rt_cmsis.o(i.osPoolCreate), (44 bytes).
    Removing rt_cmsis.o(i.osPoolFree), (32 bytes).
    Removing rt_cmsis.o(i.osSemaphoreCreate), (44 bytes).
    Removing rt_cmsis.o(i.osSemaphoreDelete), (24 bytes).
    Removing rt_cmsis.o(i.osSemaphoreRelease), (24 bytes).
    Removing rt_cmsis.o(i.osSemaphoreWait), (24 bytes).
    Removing rt_cmsis.o(i.osSignalClear), (24 bytes).
    Removing rt_cmsis.o(i.osSignalSet), (24 bytes).
    Removing rt_cmsis.o(i.osSignalWait), (24 bytes).
    Removing rt_cmsis.o(i.osThreadGetId), (24 bytes).
    Removing rt_cmsis.o(i.osThreadGetPriority), (24 bytes).
    Removing rt_cmsis.o(i.osThreadSetPriority), (24 bytes).
    Removing rt_cmsis.o(i.osThreadTerminate), (24 bytes).
    Removing rt_cmsis.o(i.osThreadYield), (24 bytes).
    Removing rt_cmsis.o(i.osTimerCreate), (44 bytes).
    Removing rt_cmsis.o(i.osTimerDelete), (24 bytes).
    Removing rt_cmsis.o(i.osTimerStart), (24 bytes).
    Removing rt_cmsis.o(i.osTimerStop), (24 bytes).
    Removing rt_cmsis.o(i.osWait), (4 bytes).
    Removing rt_cmsis.o(i.os_resume), (12 bytes).
    Removing rt_cmsis.o(i.os_suspend), (12 bytes).
    Removing rt_cmsis.o(i.rt_clr_box), (24 bytes).
    Removing rt_cmsis.o(i.rt_timer_remove), (60 bytes).
    Removing rt_cmsis.o(i.svcKernelRunning), (12 bytes).
    Removing rt_cmsis.o(i.svcKernelSysTick), (56 bytes).
    Removing rt_cmsis.o(i.svcMutexDelete), (26 bytes).
    Removing rt_cmsis.o(i.svcPoolCreate), (40 bytes).
    Removing rt_cmsis.o(i.svcSemaphoreCreate), (36 bytes).
    Removing rt_cmsis.o(i.svcSemaphoreDelete), (26 bytes).
    Removing rt_cmsis.o(i.svcSemaphoreRelease), (40 bytes).
    Removing rt_cmsis.o(i.svcSemaphoreWait), (50 bytes).
    Removing rt_cmsis.o(i.svcSignalClear), (36 bytes).
    Removing rt_cmsis.o(i.svcSignalSet), (36 bytes).
    Removing rt_cmsis.o(i.svcSignalWait), (84 bytes).
    Removing rt_cmsis.o(i.svcThreadGetPriority), (18 bytes).
    Removing rt_cmsis.o(i.svcThreadSetPriority), (46 bytes).
    Removing rt_cmsis.o(i.svcThreadYield), (10 bytes).
    Removing rt_cmsis.o(i.svcTimerCreate), (56 bytes).
    Removing rt_cmsis.o(i.svcTimerDelete), (40 bytes).
    Removing rt_cmsis.o(i.svcTimerStart), (100 bytes).
    Removing rt_cmsis.o(i.svcTimerStop), (36 bytes).
    Removing rt_cmsis.o(i.sysPoolAlloc), (10 bytes).
    Removing rt_cmsis.o(i.sysPoolFree), (20 bytes).
    Removing rt_cmsis.o(i.sysUserTimerUpdate), (48 bytes).
    Removing rt_cmsis.o(i.sysUserTimerWakeupTime), (20 bytes).
    Removing rt_task.o(i.rt_tsk_pass), (48 bytes).
    Removing rt_mutex.o(i.rt_mut_delete), (176 bytes).
    Removing cpu.o(.emb_text), (38 bytes).
    Removing charmap.o(i.GrMapISO8859_10_Unicode), (32 bytes).
    Removing charmap.o(i.GrMapISO8859_11_Unicode), (16 bytes).
    Removing charmap.o(i.GrMapISO8859_13_Unicode), (32 bytes).
    Removing charmap.o(i.GrMapISO8859_14_Unicode), (96 bytes).
    Removing charmap.o(i.GrMapISO8859_15_Unicode), (88 bytes).
    Removing charmap.o(i.GrMapISO8859_16_Unicode), (32 bytes).
    Removing charmap.o(i.GrMapISO8859_2_Unicode), (32 bytes).
    Removing charmap.o(i.GrMapISO8859_3_Unicode), (32 bytes).
    Removing charmap.o(i.GrMapISO8859_4_Unicode), (32 bytes).
    Removing charmap.o(i.GrMapISO8859_5_Unicode), (16 bytes).
    Removing charmap.o(i.GrMapISO8859_6_Unicode), (22 bytes).
    Removing charmap.o(i.GrMapISO8859_7_Unicode), (44 bytes).
    Removing charmap.o(i.GrMapISO8859_8_Unicode), (38 bytes).
    Removing charmap.o(i.GrMapISO8859_9_Unicode), (68 bytes).
    Removing charmap.o(i.GrMapUTF16BE_Unicode), (6 bytes).
    Removing charmap.o(i.GrMapUTF16LE_Unicode), (6 bytes).
    Removing charmap.o(i.GrMapUTF16_Unicode), (120 bytes).
    Removing charmap.o(i.GrMapUTF8_Unicode), (146 bytes).
    Removing charmap.o(i.GrMapUnicode_Unicode), (22 bytes).
    Removing charmap.o(i.GrMapWIN1250_Unicode), (32 bytes).
    Removing charmap.o(i.GrMapWIN1251_Unicode), (48 bytes).
    Removing charmap.o(i.GrMapWIN1252_Unicode), (40 bytes).
    Removing charmap.o(i.GrMapWIN1253_Unicode), (48 bytes).
    Removing charmap.o(i.GrMapWIN1254_Unicode), (96 bytes).
    Removing charmap.o(.constdata), (1900 bytes).
    Removing line.o(i.GrLineDraw), (638 bytes).
    Removing line.o(i.GrLineDrawV), (76 bytes).
    Removing rt_system.o(.emb_text), (0 bytes).
    Removing rt_system.o(i.os_tick_ovf), (16 bytes).
    Removing rt_system.o(i.os_tick_val), (20 bytes).
    Removing rt_system.o(i.rt_resume), (136 bytes).
    Removing rt_system.o(i.rt_suspend), (36 bytes).
    Removing rt_system.o(i.rt_tsk_lock), (80 bytes).
    Removing rt_system.o(i.rt_tsk_unlock), (80 bytes).
    Removing rt_event.o(i.isr_evt_set), (40 bytes).
    Removing rt_event.o(i.rt_evt_clr), (28 bytes).
    Removing rt_event.o(i.rt_evt_get), (12 bytes).
    Removing rt_event.o(i.rt_evt_set), (92 bytes).
    Removing rt_event.o(i.rt_evt_wait), (60 bytes).
    Removing rt_list.o(i.rt_get_same_rdy_prio), (36 bytes).
    Removing rt_semaphore.o(i.isr_sem_send), (16 bytes).
    Removing rt_semaphore.o(i.rt_sem_delete), (92 bytes).
    Removing rt_semaphore.o(i.rt_sem_init), (12 bytes).
    Removing rt_semaphore.o(i.rt_sem_send), (42 bytes).
    Removing rt_semaphore.o(i.rt_sem_wait), (64 bytes).
    Removing rt_time.o(i.rt_itv_set), (24 bytes).
    Removing rt_time.o(i.rt_itv_wait), (40 bytes).
    Removing rt_time.o(i.rt_time_get), (12 bytes).
    Removing rt_membox.o(i._calloc_box), (30 bytes).

390 unused section(s) (total 15428 bytes) removed from the image.

==============================================================================

Image Symbol Table

    Local Symbols

    Symbol Name                              Value     Ov Type        Size  Object(Section)

    RESET                                    0x00000000   Section      512  startup_tm4c129.o(RESET)
    ../clib/angel/boardlib.s                 0x00000000   Number         0  boardinit1.o ABSOLUTE
    ../clib/angel/boardlib.s                 0x00000000   Number         0  boardshut.o ABSOLUTE
    ../clib/angel/boardlib.s                 0x00000000   Number         0  boardinit2.o ABSOLUTE
    ../clib/angel/dczerorl2.s                0x00000000   Number         0  __dczerorl2.o ABSOLUTE
    ../clib/angel/handlers.s                 0x00000000   Number         0  __scatter_zi.o ABSOLUTE
    ../clib/angel/kernel.s                   0x00000000   Number         0  __rtentry4.o ABSOLUTE
    ../clib/angel/kernel.s                   0x00000000   Number         0  __rtentry.o ABSOLUTE
    ../clib/angel/kernel.s                   0x00000000   Number         0  rtexit.o ABSOLUTE
    ../clib/angel/kernel.s                   0x00000000   Number         0  __rtentry2.o ABSOLUTE
    ../clib/angel/kernel.s                   0x00000000   Number         0  rtexit2.o ABSOLUTE
    ../clib/angel/rt.s                       0x00000000   Number         0  rt_div0.o ABSOLUTE
    ../clib/angel/rt.s                       0x00000000   Number         0  rt_raise.o ABSOLUTE
    ../clib/angel/rt.s                       0x00000000   Number         0  aeabi_ldiv0.o ABSOLUTE
    ../clib/angel/rt.s                       0x00000000   Number         0  aeabi_ldiv0_sigfpe.o ABSOLUTE
    ../clib/angel/scatter.s                  0x00000000   Number         0  __scatter.o ABSOLUTE
    ../clib/angel/startup.s                  0x00000000   Number         0  __main.o ABSOLUTE
    ../clib/angel/sys.s                      0x00000000   Number         0  indicate_semi.o ABSOLUTE
    ../clib/angel/sys.s                      0x00000000   Number         0  libspace.o ABSOLUTE
    ../clib/angel/sys.s                      0x00000000   Number         0  sys_stackheap_outer.o ABSOLUTE
    ../clib/angel/sys.s                      0x00000000   Number         0  use_no_semi.o ABSOLUTE
    ../clib/angel/sysapp.c                   0x00000000   Number         0  sys_exit.o ABSOLUTE
    ../clib/angel/sysapp.c                   0x00000000   Number         0  sys_command.o ABSOLUTE
    ../clib/angel/sysapp.c                   0x00000000   Number         0  sys_wrch.o ABSOLUTE
    ../clib/armsys.c                         0x00000000   Number         0  argv_veneer.o ABSOLUTE
    ../clib/armsys.c                         0x00000000   Number         0  argv_veneer.o ABSOLUTE
    ../clib/armsys.c                         0x00000000   Number         0  no_argv.o ABSOLUTE
    ../clib/armsys.c                         0x00000000   Number         0  _get_argv_nomalloc.o ABSOLUTE
    ../clib/heapalloc.c                      0x00000000   Number         0  hrguard.o ABSOLUTE
    ../clib/heapaux.c                        0x00000000   Number         0  heapauxi.o ABSOLUTE
    ../clib/libinit.s                        0x00000000   Number         0  libinit2.o ABSOLUTE
    ../clib/libinit.s                        0x00000000   Number         0  libshutdown2.o ABSOLUTE
    ../clib/libinit.s                        0x00000000   Number         0  libinit.o ABSOLUTE
    ../clib/libinit.s                        0x00000000   Number         0  libshutdown.o ABSOLUTE
    ../clib/longlong.s                       0x00000000   Number         0  lludivv7m.o ABSOLUTE
    ../clib/longlong.s                       0x00000000   Number         0  llsdiv.o ABSOLUTE
    ../clib/signal.c                         0x00000000   Number         0  defsig_general.o ABSOLUTE
    ../clib/signal.c                         0x00000000   Number         0  defsig_cppl_inner.o ABSOLUTE
    ../clib/signal.c                         0x00000000   Number         0  defsig_abrt_inner.o ABSOLUTE
    ../clib/signal.c                         0x00000000   Number         0  defsig_rtred_inner.o ABSOLUTE
    ../clib/signal.c                         0x00000000   Number         0  defsig_rtmem_inner.o ABSOLUTE
    ../clib/signal.c                         0x00000000   Number         0  defsig_rtmem_outer.o ABSOLUTE
    ../clib/signal.c                         0x00000000   Number         0  defsig_rtmem_formal.o ABSOLUTE
    ../clib/signal.c                         0x00000000   Number         0  defsig_stak_inner.o ABSOLUTE
    ../clib/signal.c                         0x00000000   Number         0  defsig_pvfn_inner.o ABSOLUTE
    ../clib/signal.c                         0x00000000   Number         0  defsig_segv_inner.o ABSOLUTE
    ../clib/signal.c                         0x00000000   Number         0  defsig_other.o ABSOLUTE
    ../clib/signal.c                         0x00000000   Number         0  defsig_fpe_inner.o ABSOLUTE
    ../clib/signal.c                         0x00000000   Number         0  defsig_exit.o ABSOLUTE
    ../clib/signal.c                         0x00000000   Number         0  __raise.o ABSOLUTE
    ../clib/signal.c                         0x00000000   Number         0  defsig_fpe_formal.o ABSOLUTE
    ../clib/signal.c                         0x00000000   Number         0  defsig_fpe_outer.o ABSOLUTE
    ../clib/signal.s                         0x00000000   Number         0  defsig.o ABSOLUTE
    ../clib/stdlib.c                         0x00000000   Number         0  exit.o ABSOLUTE
    ../fplib/d2f.s                           0x00000000   Number         0  d2f.o ABSOLUTE
    ../fplib/daddsub.s                       0x00000000   Number         0  daddsub_clz.o ABSOLUTE
    ../fplib/ddiv.s                          0x00000000   Number         0  ddiv.o ABSOLUTE
    ../fplib/dflt.s                          0x00000000   Number         0  dflt_clz.o ABSOLUTE
    ../fplib/dmul.s                          0x00000000   Number         0  dmul.o ABSOLUTE
    ../fplib/dnaninf.s                       0x00000000   Number         0  dnaninf.o ABSOLUTE
    ../fplib/dretinf.s                       0x00000000   Number         0  dretinf.o ABSOLUTE
    ../fplib/f2d.s                           0x00000000   Number         0  f2d.o ABSOLUTE
    ../fplib/ffixll.s                        0x00000000   Number         0  ffixll.o ABSOLUTE
    ../fplib/fnaninf.s                       0x00000000   Number         0  fnaninf.o ABSOLUTE
    ../fplib/fpinit.s                        0x00000000   Number         0  fpinit.o ABSOLUTE
    ../fplib/fretinf.s                       0x00000000   Number         0  fretinf.o ABSOLUTE
    ../fplib/usenofp.s                       0x00000000   Number         0  usenofp.o ABSOLUTE
    ..\HAL_CM.c                              0x00000000   Number         0  hal_cm.o ABSOLUTE
    ..\\rt_CMSIS.c                           0x00000000   Number         0  rt_cmsis.o ABSOLUTE
    ..\\rt_System.c                          0x00000000   Number         0  rt_system.o ABSOLUTE
    ..\rt_CMSIS.c                            0x00000000   Number         0  rt_cmsis.o ABSOLUTE
    ..\rt_Event.c                            0x00000000   Number         0  rt_event.o ABSOLUTE
    ..\rt_List.c                             0x00000000   Number         0  rt_list.o ABSOLUTE
    ..\rt_Mailbox.c                          0x00000000   Number         0  rt_mailbox.o ABSOLUTE
    ..\rt_MemBox.c                           0x00000000   Number         0  rt_membox.o ABSOLUTE
    ..\rt_Memory.c                           0x00000000   Number         0  rt_memory.o ABSOLUTE
    ..\rt_Mutex.c                            0x00000000   Number         0  rt_mutex.o ABSOLUTE
    ..\rt_Robin.c                            0x00000000   Number         0  rt_robin.o ABSOLUTE
    ..\rt_Semaphore.c                        0x00000000   Number         0  rt_semaphore.o ABSOLUTE
    ..\rt_System.c                           0x00000000   Number         0  rt_system.o ABSOLUTE
    ..\rt_Task.c                             0x00000000   Number         0  rt_task.o ABSOLUTE
    ..\rt_Time.c                             0x00000000   Number         0  rt_time.o ABSOLUTE
    Blinky.c                                 0x00000000   Number         0  blinky.o ABSOLUTE
    Blinky.c                                 0x00000000   Number         0  blinky.o ABSOLUTE
    HAL_CM4.c                                0x00000000   Number         0  hal_cm4.o ABSOLUTE
    HAL_CM4.c                                0x00000000   Number         0  hal_cm4.o ABSOLUTE
    RTE\CMSIS\RTX_Conf_CM.c                  0x00000000   Number         0  rtx_conf_cm.o ABSOLUTE
    RTE\Device\TM4C1294NCPDT\startup_TM4C129.s 0x00000000   Number         0  startup_tm4c129.o ABSOLUTE
    RTE\Device\TM4C1294NCPDT\system_TM4C129.c 0x00000000   Number         0  system_tm4c129.o ABSOLUTE
    RTE\\CMSIS\\RTX_Conf_CM.c                0x00000000   Number         0  rtx_conf_cm.o ABSOLUTE
    RTE\\Device\\TM4C1294NCPDT\\system_TM4C129.c 0x00000000   Number         0  system_tm4c129.o ABSOLUTE
    SVC_Table.s                              0x00000000   Number         0  svc_table.o ABSOLUTE
    accel.c                                  0x00000000   Number         0  accel.o ABSOLUTE
    adc.c                                    0x00000000   Number         0  adc.o ABSOLUTE
    buttons.c                                0x00000000   Number         0  buttons.o ABSOLUTE
    buzzer.c                                 0x00000000   Number         0  buzzer.o ABSOLUTE
    cfaf128x128x16.c                         0x00000000   Number         0  cfaf128x128x16.o ABSOLUTE
    charmap.c                                0x00000000   Number         0  charmap.o ABSOLUTE
    circle.c                                 0x00000000   Number         0  circle.o ABSOLUTE
    context.c                                0x00000000   Number         0  context.o ABSOLUTE
    cpu.c                                    0x00000000   Number         0  cpu.o ABSOLUTE
    cpu.c                                    0x00000000   Number         0  cpu.o ABSOLUTE
    dc.s                                     0x00000000   Number         0  dc.o ABSOLUTE
    fonts\fontfixed6x8.c                     0x00000000   Number         0  fontfixed6x8.o ABSOLUTE
    gpio.c                                   0x00000000   Number         0  gpio.o ABSOLUTE
    i2c.c                                    0x00000000   Number         0  i2c.o ABSOLUTE
    interrupt.c                              0x00000000   Number         0  interrupt.o ABSOLUTE
    joy.c                                    0x00000000   Number         0  joy.o ABSOLUTE
    led.c                                    0x00000000   Number         0  led.o ABSOLUTE
    led.c                                    0x00000000   Number         0  led.o ABSOLUTE
    line.c                                   0x00000000   Number         0  line.o ABSOLUTE
    mic.c                                    0x00000000   Number         0  mic.o ABSOLUTE
    opt.c                                    0x00000000   Number         0  opt.o ABSOLUTE
    pwm.c                                    0x00000000   Number         0  pwm.o ABSOLUTE
    rectangle.c                              0x00000000   Number         0  rectangle.o ABSOLUTE
    rgb.c                                    0x00000000   Number         0  rgb.o ABSOLUTE
    servo.c                                  0x00000000   Number         0  servo.o ABSOLUTE
    string.c                                 0x00000000   Number         0  string.o ABSOLUTE
    sysctl.c                                 0x00000000   Number         0  sysctl.o ABSOLUTE
    sysctl.c                                 0x00000000   Number         0  sysctl.o ABSOLUTE
    temp.c                                   0x00000000   Number         0  temp.o ABSOLUTE
    timer.c                                  0x00000000   Number         0  timer.o ABSOLUTE
    !!!main                                  0x00000200   Section        8  __main.o(!!!main)
    !!!scatter                               0x00000208   Section       52  __scatter.o(!!!scatter)
    !!dczerorl2                              0x0000023c   Section       90  __dczerorl2.o(!!dczerorl2)
    !!handler_zi                             0x00000298   Section       28  __scatter_zi.o(!!handler_zi)
    .ARM.Collect$$libinit$$00000000          0x000002b4   Section        2  libinit.o(.ARM.Collect$$libinit$$00000000)
    .ARM.Collect$$libinit$$00000001          0x000002b6   Section        4  libinit2.o(.ARM.Collect$$libinit$$00000001)
    .ARM.Collect$$libinit$$00000004          0x000002ba   Section        0  libinit2.o(.ARM.Collect$$libinit$$00000004)
    .ARM.Collect$$libinit$$0000000A          0x000002ba   Section        0  libinit2.o(.ARM.Collect$$libinit$$0000000A)
    .ARM.Collect$$libinit$$0000000C          0x000002ba   Section        0  libinit2.o(.ARM.Collect$$libinit$$0000000C)
    .ARM.Collect$$libinit$$0000000E          0x000002ba   Section        0  libinit2.o(.ARM.Collect$$libinit$$0000000E)
    .ARM.Collect$$libinit$$00000011          0x000002ba   Section        0  libinit2.o(.ARM.Collect$$libinit$$00000011)
    .ARM.Collect$$libinit$$00000013          0x000002ba   Section        0  libinit2.o(.ARM.Collect$$libinit$$00000013)
    .ARM.Collect$$libinit$$00000015          0x000002ba   Section        0  libinit2.o(.ARM.Collect$$libinit$$00000015)
    .ARM.Collect$$libinit$$00000017          0x000002ba   Section        0  libinit2.o(.ARM.Collect$$libinit$$00000017)
    .ARM.Collect$$libinit$$00000019          0x000002ba   Section        0  libinit2.o(.ARM.Collect$$libinit$$00000019)
    .ARM.Collect$$libinit$$0000001B          0x000002ba   Section        0  libinit2.o(.ARM.Collect$$libinit$$0000001B)
    .ARM.Collect$$libinit$$0000001D          0x000002ba   Section        0  libinit2.o(.ARM.Collect$$libinit$$0000001D)
    .ARM.Collect$$libinit$$0000001F          0x000002ba   Section        0  libinit2.o(.ARM.Collect$$libinit$$0000001F)
    .ARM.Collect$$libinit$$00000021          0x000002ba   Section        0  libinit2.o(.ARM.Collect$$libinit$$00000021)
    .ARM.Collect$$libinit$$00000023          0x000002ba   Section        0  libinit2.o(.ARM.Collect$$libinit$$00000023)
    .ARM.Collect$$libinit$$00000025          0x000002ba   Section        0  libinit2.o(.ARM.Collect$$libinit$$00000025)
    .ARM.Collect$$libinit$$0000002C          0x000002ba   Section        0  libinit2.o(.ARM.Collect$$libinit$$0000002C)
    .ARM.Collect$$libinit$$0000002E          0x000002ba   Section        0  libinit2.o(.ARM.Collect$$libinit$$0000002E)
    .ARM.Collect$$libinit$$00000030          0x000002ba   Section        0  libinit2.o(.ARM.Collect$$libinit$$00000030)
    .ARM.Collect$$libinit$$00000032          0x000002ba   Section        0  libinit2.o(.ARM.Collect$$libinit$$00000032)
    .ARM.Collect$$libinit$$00000033          0x000002ba   Section        2  libinit2.o(.ARM.Collect$$libinit$$00000033)
    .ARM.Collect$$libshutdown$$00000000      0x000002bc   Section        2  libshutdown.o(.ARM.Collect$$libshutdown$$00000000)
    .ARM.Collect$$libshutdown$$00000002      0x000002be   Section        0  libshutdown2.o(.ARM.Collect$$libshutdown$$00000002)
    .ARM.Collect$$libshutdown$$00000004      0x000002be   Section        0  libshutdown2.o(.ARM.Collect$$libshutdown$$00000004)
    .ARM.Collect$$libshutdown$$00000007      0x000002be   Section        0  libshutdown2.o(.ARM.Collect$$libshutdown$$00000007)
    .ARM.Collect$$libshutdown$$0000000A      0x000002be   Section        0  libshutdown2.o(.ARM.Collect$$libshutdown$$0000000A)
    .ARM.Collect$$libshutdown$$0000000C      0x000002be   Section        0  libshutdown2.o(.ARM.Collect$$libshutdown$$0000000C)
    .ARM.Collect$$libshutdown$$0000000F      0x000002be   Section        0  libshutdown2.o(.ARM.Collect$$libshutdown$$0000000F)
    .ARM.Collect$$libshutdown$$00000010      0x000002be   Section        2  libshutdown2.o(.ARM.Collect$$libshutdown$$00000010)
    .ARM.Collect$$rtentry$$00000000          0x000002c0   Section        0  __rtentry.o(.ARM.Collect$$rtentry$$00000000)
    .ARM.Collect$$rtentry$$00000002          0x000002c0   Section        0  __rtentry2.o(.ARM.Collect$$rtentry$$00000002)
    .ARM.Collect$$rtentry$$00000004          0x000002c0   Section        6  __rtentry4.o(.ARM.Collect$$rtentry$$00000004)
    .ARM.Collect$$rtentry$$00000009          0x000002c6   Section        0  __rtentry2.o(.ARM.Collect$$rtentry$$00000009)
    .ARM.Collect$$rtentry$$0000000A          0x000002c6   Section        4  __rtentry2.o(.ARM.Collect$$rtentry$$0000000A)
    .ARM.Collect$$rtentry$$0000000B          0x000002ca   Section        8  __rtentry2.o(.ARM.Collect$$rtentry$$0000000B)
    .ARM.Collect$$rtentry$$0000000D          0x000002d2   Section        8  __rtentry2.o(.ARM.Collect$$rtentry$$0000000D)
    .ARM.Collect$$rtexit$$00000000           0x000002da   Section        2  rtexit.o(.ARM.Collect$$rtexit$$00000000)
    .ARM.Collect$$rtexit$$00000002           0x000002dc   Section        0  rtexit2.o(.ARM.Collect$$rtexit$$00000002)
    .ARM.Collect$$rtexit$$00000003           0x000002dc   Section        4  rtexit2.o(.ARM.Collect$$rtexit$$00000003)
    .ARM.Collect$$rtexit$$00000004           0x000002e0   Section        6  rtexit2.o(.ARM.Collect$$rtexit$$00000004)
    .emb_text                                0x000002e8   Section       28  rtx_conf_cm.o(.emb_text)
    $v0                                      0x000002e8   Number         0  rtx_conf_cm.o(.emb_text)
    .emb_text                                0x00000304   Section        6  sysctl.o(.emb_text)
    $v0                                      0x00000304   Number         0  sysctl.o(.emb_text)
    .emb_text                                0x0000030c   Section      408  hal_cm4.o(.emb_text)
    $v0                                      0x0000030c   Number         0  hal_cm4.o(.emb_text)
    .text                                    0x000004a4   Section        0  blinky.o(.text)
    intToString                              0x000004a5   Thumb Code   202  blinky.o(.text)
    floatToString                            0x0000056f   Thumb Code   180  blinky.o(.text)
    .text                                    0x0000145c   Section        0  buzzer.o(.text)
    buzzer_div_set                           0x0000145d   Thumb Code    76  buzzer.o(.text)
    .text                                    0x000015b0   Section        0  accel.o(.text)
    analog_read                              0x000015c3   Thumb Code   104  accel.o(.text)
    .text                                    0x00001654   Section        0  buttons.o(.text)
    .text                                    0x000016b0   Section        0  cfaf128x128x16.o(.text)
    swap_ui16                                0x000016b1   Thumb Code    10  cfaf128x128x16.o(.text)
    swap_i32                                 0x000016bb   Thumb Code    10  cfaf128x128x16.o(.text)
    cfaf128x128x16SsiTransfer                0x000016c5   Thumb Code    46  cfaf128x128x16.o(.text)
    cfaf128x128x16WriteCommand               0x000016f3   Thumb Code    56  cfaf128x128x16.o(.text)
    cfaf128x128x16WriteData                  0x0000172b   Thumb Code    70  cfaf128x128x16.o(.text)
    cfaf128x128x16WriteRegister              0x00001771   Thumb Code    16  cfaf128x128x16.o(.text)
    cfaf128x128x16SetWindow                  0x00001781   Thumb Code   192  cfaf128x128x16.o(.text)
    cfaf128x128x16PixelDraw                  0x000018e1   Thumb Code    10  cfaf128x128x16.o(.text)
    cfaf128x128x16PixelDrawMultiple          0x000018eb   Thumb Code   360  cfaf128x128x16.o(.text)
    cfaf128x128x16LineDrawH                  0x00001a53   Thumb Code    46  cfaf128x128x16.o(.text)
    cfaf128x128x16LineDrawV                  0x00001a81   Thumb Code    60  cfaf128x128x16.o(.text)
    cfaf128x128x16RectFill                   0x00001abd   Thumb Code    80  cfaf128x128x16.o(.text)
    cfaf128x128x16ColorTranslate             0x00001b0d   Thumb Code    22  cfaf128x128x16.o(.text)
    cfaf128x128x16Flush                      0x00001b23   Thumb Code     2  cfaf128x128x16.o(.text)
    .text                                    0x00001dac   Section        0  led.o(.text)
    .text                                    0x00001ec8   Section        0  mic.o(.text)
    analog_read                              0x00001edb   Thumb Code   104  mic.o(.text)
    .text                                    0x00001f5c   Section        0  opt.o(.text)
    send_single                              0x00001f5d   Thumb Code    98  opt.o(.text)
    receive_single                           0x00001fbf   Thumb Code   106  opt.o(.text)
    send_multiple                            0x00002029   Thumb Code   340  opt.o(.text)
    receive_multiple                         0x0000217d   Thumb Code   342  opt.o(.text)
    write_reg                                0x000022d3   Thumb Code    38  opt.o(.text)
    read_reg                                 0x000022f9   Thumb Code    50  opt.o(.text)
    temp_int_callback                        0x0000232f   Thumb Code    34  opt.o(.text)
    .text                                    0x000024cc   Section        0  rgb.o(.text)
    .text                                    0x00002720   Section        0  servo.o(.text)
    .text                                    0x00002804   Section        0  joy.o(.text)
    analog_read                              0x00002833   Thumb Code   104  joy.o(.text)
    .text                                    0x000028d4   Section        0  temp.o(.text)
    send_single                              0x000028d5   Thumb Code    98  temp.o(.text)
    receive_single                           0x00002937   Thumb Code   106  temp.o(.text)
    send_multiple                            0x000029a1   Thumb Code   340  temp.o(.text)
    receive_multiple                         0x00002af5   Thumb Code   342  temp.o(.text)
    write_reg                                0x00002c4b   Thumb Code    38  temp.o(.text)
    read_reg                                 0x00002c71   Thumb Code    50  temp.o(.text)
    temp_int_callback                        0x00002cc5   Thumb Code    26  temp.o(.text)
    .text                                    0x00002df8   Section        0  rtx_conf_cm.o(.text)
    __tagsym$$used                           0x00002e3f   Number         0  rtx_conf_cm.o(.text)
    __tagsym$$used                           0x00002e55   Number         0  rtx_conf_cm.o(.text)
    .text                                    0x00002e84   Section      300  startup_tm4c129.o(.text)
    $v0                                      0x00002e84   Number         0  startup_tm4c129.o(.text)
    .text                                    0x00002fb0   Section        0  system_tm4c129.o(.text)
    .text                                    0x00002fd8   Section        8  libspace.o(.text)
    .text                                    0x00002fe0   Section      238  lludivv7m.o(.text)
    .text                                    0x000030ce   Section       72  llsdiv.o(.text)
    .text                                    0x00003116   Section        0  exit.o(.text)
    .text                                    0x00003128   Section        0  heapauxi.o(.text)
    .text                                    0x00003130   Section        0  sys_exit.o(.text)
    .text                                    0x0000313c   Section       74  sys_stackheap_outer.o(.text)
    .text                                    0x00003186   Section        2  use_no_semi.o(.text)
    .text                                    0x00003188   Section        0  indicate_semi.o(.text)
    SVC_TABLE                                0x00003188   Section        4  svc_table.o(SVC_TABLE)
    i.ADCIntClear                            0x0000318c   Section        0  adc.o(i.ADCIntClear)
    i.ADCIntStatus                           0x00003196   Section        0  adc.o(i.ADCIntStatus)
    i.ADCProcessorTrigger                    0x000031ca   Section        0  adc.o(i.ADCProcessorTrigger)
    i.ADCSequenceConfigure                   0x000031e4   Section        0  adc.o(i.ADCSequenceConfigure)
    i.ADCSequenceDataGet                     0x00003244   Section        0  adc.o(i.ADCSequenceDataGet)
    i.ADCSequenceEnable                      0x00003268   Section        0  adc.o(i.ADCSequenceEnable)
    i.ADCSequenceStepConfigure               0x00003276   Section        0  adc.o(i.ADCSequenceStepConfigure)
    i.GPIODirModeSet                         0x00003310   Section        0  gpio.o(i.GPIODirModeSet)
    i.GPIOPadConfigSet                       0x00003338   Section        0  gpio.o(i.GPIOPadConfigSet)
    i.GPIOPinConfigure                       0x00003470   Section        0  gpio.o(i.GPIOPinConfigure)
    i.GPIOPinRead                            0x000034b4   Section        0  gpio.o(i.GPIOPinRead)
    i.GPIOPinTypeADC                         0x000034ba   Section        0  gpio.o(i.GPIOPinTypeADC)
    i.GPIOPinTypeGPIOInput                   0x000034d6   Section        0  gpio.o(i.GPIOPinTypeGPIOInput)
    i.GPIOPinTypeI2C                         0x000034f2   Section        0  gpio.o(i.GPIOPinTypeI2C)
    i.GPIOPinTypeI2CSCL                      0x0000350e   Section        0  gpio.o(i.GPIOPinTypeI2CSCL)
    i.GPIOPinTypePWM                         0x0000352a   Section        0  gpio.o(i.GPIOPinTypePWM)
    i.GPIOPinTypeTimer                       0x00003546   Section        0  gpio.o(i.GPIOPinTypeTimer)
    i.GrCircleDraw                           0x00003562   Section        0  circle.o(i.GrCircleDraw)
    i.GrCircleFill                           0x00003764   Section        0  circle.o(i.GrCircleFill)
    i.GrContextFontSet                       0x0000388a   Section        0  string.o(i.GrContextFontSet)
    i.GrContextInit                          0x00003890   Section        0  context.o(i.GrContextInit)
    i.GrDefaultStringRenderer                0x000038f4   Section        0  string.o(i.GrDefaultStringRenderer)
    i.GrFontGlyphDataGet                     0x00003a0c   Section        0  string.o(i.GrFontGlyphDataGet)
    i.GrFontGlyphRender                      0x00003ab2   Section        0  string.o(i.GrFontGlyphRender)
    i.GrLineDrawH                            0x00003d3a   Section        0  line.o(i.GrLineDrawH)
    i.GrMapISO8859_1_Unicode                 0x00003d86   Section        0  charmap.o(i.GrMapISO8859_1_Unicode)
    i.GrRectFill                             0x00003d8e   Section        0  rectangle.o(i.GrRectFill)
    i.GrStringDraw                           0x00003e42   Section        0  string.o(i.GrStringDraw)
    i.I2CIntRegister                         0x00003e64   Section        0  i2c.o(i.I2CIntRegister)
    i.I2CMasterBurstLengthSet                0x00003ec4   Section        0  i2c.o(i.I2CMasterBurstLengthSet)
    i.I2CMasterBusBusy                       0x00003ec8   Section        0  i2c.o(i.I2CMasterBusBusy)
    i.I2CMasterBusy                          0x00003ed4   Section        0  i2c.o(i.I2CMasterBusy)
    i.I2CMasterControl                       0x00003ee0   Section        0  i2c.o(i.I2CMasterControl)
    i.I2CMasterDataGet                       0x00003ee4   Section        0  i2c.o(i.I2CMasterDataGet)
    i.I2CMasterDataPut                       0x00003ee8   Section        0  i2c.o(i.I2CMasterDataPut)
    i.I2CMasterEnable                        0x00003eec   Section        0  i2c.o(i.I2CMasterEnable)
    i.I2CMasterErr                           0x00003ef6   Section        0  i2c.o(i.I2CMasterErr)
    i.I2CMasterGlitchFilterConfigSet         0x00003f10   Section        0  i2c.o(i.I2CMasterGlitchFilterConfigSet)
    i.I2CMasterInitExpClk                    0x00003f64   Section        0  i2c.o(i.I2CMasterInitExpClk)
    i.I2CMasterIntClear                      0x00003fb8   Section        0  i2c.o(i.I2CMasterIntClear)
    i.I2CMasterIntClearEx                    0x00003fc0   Section        0  i2c.o(i.I2CMasterIntClearEx)
    i.I2CMasterIntEnableEx                   0x00003fc4   Section        0  i2c.o(i.I2CMasterIntEnableEx)
    i.I2CMasterSlaveAddrSet                  0x00003fcc   Section        0  i2c.o(i.I2CMasterSlaveAddrSet)
    i.I2CMasterTimeoutSet                    0x00003fd4   Section        0  i2c.o(i.I2CMasterTimeoutSet)
    i.IntEnable                              0x00003fd8   Section        0  interrupt.o(i.IntEnable)
    i.IntRegister                            0x0000403c   Section        0  interrupt.o(i.IntRegister)
    i.PWMClockSet                            0x00004070   Section        0  pwm.o(i.PWMClockSet)
    i.PWMGenConfigure                        0x00004084   Section        0  pwm.o(i.PWMGenConfigure)
    i.PWMGenDisable                          0x000040aa   Section        0  pwm.o(i.PWMGenDisable)
    i.PWMGenEnable                           0x000040b4   Section        0  pwm.o(i.PWMGenEnable)
    i.PWMGenPeriodGet                        0x000040be   Section        0  pwm.o(i.PWMGenPeriodGet)
    i.PWMGenPeriodSet                        0x000040d0   Section        0  pwm.o(i.PWMGenPeriodSet)
    i.PWMOutputInvert                        0x000040e2   Section        0  pwm.o(i.PWMOutputInvert)
    i.PWMOutputState                         0x000040f2   Section        0  pwm.o(i.PWMOutputState)
    i.PWMPulseWidthSet                       0x00004102   Section        0  pwm.o(i.PWMPulseWidthSet)
    i.SysCtlClockFreqSet                     0x00004124   Section        0  sysctl.o(i.SysCtlClockFreqSet)
    i.SysCtlPeripheralEnable                 0x00004410   Section        0  sysctl.o(i.SysCtlPeripheralEnable)
    i.SysCtlPeripheralReady                  0x00004438   Section        0  sysctl.o(i.SysCtlPeripheralReady)
    i.SysCtlPeripheralReset                  0x00004464   Section        0  sysctl.o(i.SysCtlPeripheralReset)
    i.TimerClockSourceSet                    0x000044a0   Section        0  timer.o(i.TimerClockSourceSet)
    i.TimerConfigure                         0x000044a8   Section        0  timer.o(i.TimerConfigure)
    i.TimerControlLevel                      0x00004508   Section        0  timer.o(i.TimerControlLevel)
    i.TimerEnable                            0x0000451e   Section        0  timer.o(i.TimerEnable)
    i.TimerLoadSet                           0x0000452c   Section        0  timer.o(i.TimerLoadSet)
    i.TimerMatchSet                          0x0000453e   Section        0  timer.o(i.TimerMatchSet)
    i.TimerPrescaleSet                       0x00004550   Section        0  timer.o(i.TimerPrescaleSet)
    i.TimerUpdateMode                        0x00004562   Section        0  timer.o(i.TimerUpdateMode)
    i.UpdateContextCharMapping               0x0000458c   Section        0  string.o(i.UpdateContextCharMapping)
    UpdateContextCharMapping                 0x0000458d   Thumb Code   108  string.o(i.UpdateContextCharMapping)
    i._init_box                              0x000045f8   Section        0  rt_membox.o(i._init_box)
    i.dbg_init                               0x00004640   Section        0  hal_cm.o(i.dbg_init)
    i.dbg_task_notify                        0x00004670   Section        0  hal_cm.o(i.dbg_task_notify)
    i.dbg_task_switch                        0x00004690   Section        0  hal_cm.o(i.dbg_task_switch)
    i.isrMessageGet                          0x000046a0   Section        0  rt_cmsis.o(i.isrMessageGet)
    i.isrMessagePut                          0x000046ca   Section        0  rt_cmsis.o(i.isrMessagePut)
    i.isr_mbx_receive                        0x000046f8   Section        0  rt_mailbox.o(i.isr_mbx_receive)
    i.isr_mbx_send                           0x0000474e   Section        0  rt_mailbox.o(i.isr_mbx_send)
    i.osDelay                                0x0000475c   Section        0  rt_cmsis.o(i.osDelay)
    i.osKernelInitialize                     0x00004774   Section        0  rt_cmsis.o(i.osKernelInitialize)
    i.osKernelStart                          0x00004798   Section        0  rt_cmsis.o(i.osKernelStart)
    i.osMailAlloc                            0x00004804   Section        0  rt_cmsis.o(i.osMailAlloc)
    i.osMailCreate                           0x00004820   Section        0  rt_cmsis.o(i.osMailCreate)
    i.osMailFree                             0x0000484c   Section        0  rt_cmsis.o(i.osMailFree)
    i.osMailGet                              0x00004868   Section        0  rt_cmsis.o(i.osMailGet)
    i.osMailPut                              0x0000487e   Section        0  rt_cmsis.o(i.osMailPut)
    i.osMessageGet                           0x00004894   Section        0  rt_cmsis.o(i.osMessageGet)
    i.osMessagePut                           0x000048ac   Section        0  rt_cmsis.o(i.osMessagePut)
    i.osMutexCreate                          0x000048c4   Section        0  rt_cmsis.o(i.osMutexCreate)
    i.osMutexRelease                         0x000048f0   Section        0  rt_cmsis.o(i.osMutexRelease)
    i.osMutexWait                            0x00004908   Section        0  rt_cmsis.o(i.osMutexWait)
    i.osThreadCreate                         0x00004920   Section        0  rt_cmsis.o(i.osThreadCreate)
    i.osThreadExit                           0x0000494c   Section        0  rt_cmsis.o(i.osThreadExit)
    i.osTimerCall                            0x00004964   Section        0  rt_cmsis.o(i.osTimerCall)
    i.osTimerThread                          0x00004970   Section        0  rt_cmsis.o(i.osTimerThread)
    i.os_tick_init                           0x0000499c   Section        0  rt_system.o(i.os_tick_init)
    i.os_tick_irqack                         0x000049c4   Section        0  rt_system.o(i.os_tick_irqack)
    i.rt_alloc_box                           0x000049c6   Section        0  rt_membox.o(i.rt_alloc_box)
    i.rt_alloc_mem                           0x000049e0   Section        0  rt_memory.o(i.rt_alloc_mem)
    i.rt_block                               0x00004a20   Section        0  rt_task.o(i.rt_block)
    i.rt_chk_robin                           0x00004a58   Section        0  rt_robin.o(i.rt_chk_robin)
    i.rt_dec_dly                             0x00004aa0   Section        0  rt_list.o(i.rt_dec_dly)
    i.rt_dispatch                            0x00004b10   Section        0  rt_task.o(i.rt_dispatch)
    i.rt_dly_wait                            0x00004b54   Section        0  rt_time.o(i.rt_dly_wait)
    i.rt_evt_psh                             0x00004b5c   Section        0  rt_event.o(i.rt_evt_psh)
    i.rt_free_box                            0x00004bac   Section        0  rt_membox.o(i.rt_free_box)
    i.rt_free_mem                            0x00004bd8   Section        0  rt_memory.o(i.rt_free_mem)
    i.rt_get_first                           0x00004c00   Section        0  rt_list.o(i.rt_get_first)
    i.rt_id2obj                              0x00004c28   Section        0  rt_cmsis.o(i.rt_id2obj)
    rt_id2obj                                0x00004c29   Thumb Code     8  rt_cmsis.o(i.rt_id2obj)
    i.rt_init_context                        0x00004c30   Section        0  rt_task.o(i.rt_init_context)
    rt_init_context                          0x00004c31   Thumb Code    66  rt_task.o(i.rt_init_context)
    i.rt_init_mem                            0x00004c78   Section        0  rt_memory.o(i.rt_init_mem)
    i.rt_init_robin                          0x00004c94   Section        0  rt_robin.o(i.rt_init_robin)
    i.rt_init_stack                          0x00004cac   Section        0  hal_cm.o(i.rt_init_stack)
    i.rt_mbx_check                           0x00004d2c   Section        0  rt_mailbox.o(i.rt_mbx_check)
    i.rt_mbx_init                            0x00004d34   Section        0  rt_mailbox.o(i.rt_mbx_init)
    i.rt_mbx_psh                             0x00004d50   Section        0  rt_mailbox.o(i.rt_mbx_psh)
    i.rt_mbx_send                            0x00004e40   Section        0  rt_mailbox.o(i.rt_mbx_send)
    i.rt_mbx_wait                            0x00004ed8   Section        0  rt_mailbox.o(i.rt_mbx_wait)
    i.rt_ms2tick                             0x00004f8c   Section        0  rt_cmsis.o(i.rt_ms2tick)
    rt_ms2tick                               0x00004f8d   Thumb Code    58  rt_cmsis.o(i.rt_ms2tick)
    i.rt_mut_init                            0x00004fd0   Section        0  rt_mutex.o(i.rt_mut_init)
    i.rt_mut_release                         0x00004fe0   Section        0  rt_mutex.o(i.rt_mut_release)
    i.rt_mut_wait                            0x000050b8   Section        0  rt_mutex.o(i.rt_mut_wait)
    i.rt_pop_req                             0x00005130   Section        0  rt_system.o(i.rt_pop_req)
    i.rt_psh_req                             0x000051ac   Section        0  rt_system.o(i.rt_psh_req)
    i.rt_psq_enq                             0x000051cc   Section        0  rt_list.o(i.rt_psq_enq)
    i.rt_put_dly                             0x00005228   Section        0  rt_list.o(i.rt_put_dly)
    i.rt_put_prio                            0x00005270   Section        0  rt_list.o(i.rt_put_prio)
    i.rt_put_rdy_first                       0x000052a8   Section        0  rt_list.o(i.rt_put_rdy_first)
    i.rt_resort_prio                         0x000052bc   Section        0  rt_list.o(i.rt_resort_prio)
    i.rt_ret_regs                            0x000052f0   Section        0  hal_cm.o(i.rt_ret_regs)
    rt_ret_regs                              0x000052f1   Thumb Code    16  hal_cm.o(i.rt_ret_regs)
    i.rt_ret_val                             0x00005300   Section        0  hal_cm.o(i.rt_ret_val)
    i.rt_ret_val2                            0x0000530c   Section        0  hal_cm.o(i.rt_ret_val2)
    i.rt_rmv_dly                             0x0000531c   Section        0  rt_list.o(i.rt_rmv_dly)
    i.rt_rmv_list                            0x00005344   Section        0  rt_list.o(i.rt_rmv_list)
    i.rt_sem_psh                             0x00005374   Section        0  rt_semaphore.o(i.rt_sem_psh)
    i.rt_stk_check                           0x000053a8   Section        0  rt_system.o(i.rt_stk_check)
    i.rt_switch_req                          0x000053cc   Section        0  rt_task.o(i.rt_switch_req)
    i.rt_sys_init                            0x000053f4   Section        0  rt_task.o(i.rt_sys_init)
    i.rt_sys_start                           0x000054c0   Section        0  rt_task.o(i.rt_sys_start)
    i.rt_systick                             0x00005538   Section        0  rt_system.o(i.rt_systick)
    i.rt_tid2ptcb                            0x00005578   Section        0  rt_cmsis.o(i.rt_tid2ptcb)
    rt_tid2ptcb                              0x00005579   Thumb Code    18  rt_cmsis.o(i.rt_tid2ptcb)
    i.rt_timer_insert                        0x0000558c   Section        0  rt_cmsis.o(i.rt_timer_insert)
    rt_timer_insert                          0x0000558d   Thumb Code    48  rt_cmsis.o(i.rt_timer_insert)
    i.rt_tsk_create                          0x000055c0   Section        0  rt_task.o(i.rt_tsk_create)
    i.rt_tsk_delete                          0x00005648   Section        0  rt_task.o(i.rt_tsk_delete)
    i.rt_tsk_prio                            0x000057c4   Section        0  rt_task.o(i.rt_tsk_prio)
    i.rt_tsk_self                            0x00005840   Section        0  rt_task.o(i.rt_tsk_self)
    i.svcDelay                               0x00005850   Section        0  rt_cmsis.o(i.svcDelay)
    i.svcKernelInitialize                    0x00005864   Section        0  rt_cmsis.o(i.svcKernelInitialize)
    i.svcKernelStart                         0x000058d4   Section        0  rt_cmsis.o(i.svcKernelStart)
    i.svcMailCreate                          0x0000591c   Section        0  rt_cmsis.o(i.svcMailCreate)
    i.svcMessageCreate                       0x0000595e   Section        0  rt_cmsis.o(i.svcMessageCreate)
    i.svcMessageGet                          0x00005982   Section        0  rt_cmsis.o(i.svcMessageGet)
    i.svcMessagePut                          0x000059bc   Section        0  rt_cmsis.o(i.svcMessagePut)
    i.svcMutexCreate                         0x000059f2   Section        0  rt_cmsis.o(i.svcMutexCreate)
    i.svcMutexRelease                        0x00005a0e   Section        0  rt_cmsis.o(i.svcMutexRelease)
    i.svcMutexWait                           0x00005a30   Section        0  rt_cmsis.o(i.svcMutexWait)
    i.svcThreadCreate                        0x00005a6c   Section        0  rt_cmsis.o(i.svcThreadCreate)
    i.svcThreadGetId                         0x00005ad8   Section        0  rt_cmsis.o(i.svcThreadGetId)
    i.svcThreadTerminate                     0x00005af4   Section        0  rt_cmsis.o(i.svcThreadTerminate)
    i.svcTimerCall                           0x00005b2c   Section        0  rt_cmsis.o(i.svcTimerCall)
    i.sysMailAlloc                           0x00005b44   Section        0  rt_cmsis.o(i.sysMailAlloc)
    i.sysMailFree                            0x00005b9c   Section        0  rt_cmsis.o(i.sysMailFree)
    i.sysTimerTick                           0x00005bfc   Section        0  rt_cmsis.o(i.sysTimerTick)
    x$fpl$d2f                                0x00005c58   Section       98  d2f.o(x$fpl$d2f)
    $v0                                      0x00005c58   Number         0  d2f.o(x$fpl$d2f)
    x$fpl$dadd                               0x00005cbc   Section      336  daddsub_clz.o(x$fpl$dadd)
    $v0                                      0x00005cbc   Number         0  daddsub_clz.o(x$fpl$dadd)
    _dadd1                                   0x00005ccd   Thumb Code     0  daddsub_clz.o(x$fpl$dadd)
    x$fpl$ddiv                               0x00005e0c   Section      688  ddiv.o(x$fpl$ddiv)
    $v0                                      0x00005e0c   Number         0  ddiv.o(x$fpl$ddiv)
    ddiv_entry                               0x00005e13   Thumb Code     0  ddiv.o(x$fpl$ddiv)
    x$fpl$dflt                               0x000060bc   Section       46  dflt_clz.o(x$fpl$dflt)
    $v0                                      0x000060bc   Number         0  dflt_clz.o(x$fpl$dflt)
    x$fpl$dfltu                              0x000060ea   Section       38  dflt_clz.o(x$fpl$dfltu)
    $v0                                      0x000060ea   Number         0  dflt_clz.o(x$fpl$dfltu)
    x$fpl$dmul                               0x00006110   Section      340  dmul.o(x$fpl$dmul)
    $v0                                      0x00006110   Number         0  dmul.o(x$fpl$dmul)
    x$fpl$dnaninf                            0x00006264   Section      156  dnaninf.o(x$fpl$dnaninf)
    $v0                                      0x00006264   Number         0  dnaninf.o(x$fpl$dnaninf)
    x$fpl$dretinf                            0x00006300   Section       12  dretinf.o(x$fpl$dretinf)
    $v0                                      0x00006300   Number         0  dretinf.o(x$fpl$dretinf)
    x$fpl$dsub                               0x0000630c   Section      468  daddsub_clz.o(x$fpl$dsub)
    $v0                                      0x0000630c   Number         0  daddsub_clz.o(x$fpl$dsub)
    _dsub1                                   0x0000631d   Thumb Code     0  daddsub_clz.o(x$fpl$dsub)
    x$fpl$f2d                                0x000064e0   Section       86  f2d.o(x$fpl$f2d)
    $v0                                      0x000064e0   Number         0  f2d.o(x$fpl$f2d)
    x$fpl$fnaninf                            0x00006536   Section      140  fnaninf.o(x$fpl$fnaninf)
    $v0                                      0x00006536   Number         0  fnaninf.o(x$fpl$fnaninf)
    x$fpl$fpinit                             0x000065c2   Section       10  fpinit.o(x$fpl$fpinit)
    $v0                                      0x000065c2   Number         0  fpinit.o(x$fpl$fpinit)
    x$fpl$fretinf                            0x000065cc   Section       10  fretinf.o(x$fpl$fretinf)
    $v0                                      0x000065cc   Number         0  fretinf.o(x$fpl$fretinf)
    x$fpl$llsfromf                           0x000065d8   Section      134  ffixll.o(x$fpl$llsfromf)
    $v0                                      0x000065d8   Number         0  ffixll.o(x$fpl$llsfromf)
    x$fpl$usenofp                            0x0000665e   Section        0  usenofp.o(x$fpl$usenofp)
    .constdata                               0x00006660   Section      160  blinky.o(.constdata)
    .constdata                               0x00006700   Section       40  cfaf128x128x16.o(.constdata)
    .constdata                               0x00006728   Section       16  led.o(.constdata)
    .constdata                               0x00006738   Section        2  rtx_conf_cm.o(.constdata)
    .constdata                               0x0000673c   Section        4  rtx_conf_cm.o(.constdata)
    .constdata                               0x00006740   Section        4  rtx_conf_cm.o(.constdata)
    .constdata                               0x00006744   Section        4  rtx_conf_cm.o(.constdata)
    .constdata                               0x00006748   Section        1  rtx_conf_cm.o(.constdata)
    .constdata                               0x0000674c   Section       16  rtx_conf_cm.o(.constdata)
    __tagsym$$used                           0x0000674c   Number         0  rtx_conf_cm.o(.constdata)
    __tagsym$$used                           0x00006750   Number         0  rtx_conf_cm.o(.constdata)
    __tagsym$$used                           0x00006754   Number         0  rtx_conf_cm.o(.constdata)
    __tagsym$$used                           0x00006758   Number         0  rtx_conf_cm.o(.constdata)
    .constdata                               0x0000675c   Section        2  rtx_conf_cm.o(.constdata)
    .constdata                               0x00006760   Section        4  rtx_conf_cm.o(.constdata)
    .constdata                               0x00006764   Section        4  rtx_conf_cm.o(.constdata)
    .constdata                               0x00006768   Section        1  rtx_conf_cm.o(.constdata)
    .constdata                               0x0000676c   Section       16  rtx_conf_cm.o(.constdata)
    .constdata                               0x0000677c   Section        8  rtx_conf_cm.o(.constdata)
    .constdata                               0x00006784   Section        2  rtx_conf_cm.o(.constdata)
    .constdata                               0x00006788   Section       16  rtx_conf_cm.o(.constdata)
    .constdata                               0x00006798   Section      552  gpio.o(.constdata)
    g_ppui32GPIOIntMapBlizzard               0x00006798   Data         192  gpio.o(.constdata)
    g_ppui32GPIOIntMapSnowflake              0x00006858   Data         216  gpio.o(.constdata)
    g_pui32GPIOBaseAddrs                     0x00006930   Data         144  gpio.o(.constdata)
    .constdata                               0x000069c0   Section      128  i2c.o(.constdata)
    g_ppui32I2CIntMap                        0x000069c0   Data          48  i2c.o(.constdata)
    g_ppui32I2CIntMapSnowflake               0x000069f0   Data          80  i2c.o(.constdata)
    .constdata                               0x00006a40   Section      268  interrupt.o(.constdata)
    g_pui32Priority                          0x00006a40   Data          32  interrupt.o(.constdata)
    g_pui32Regs                              0x00006a60   Data         156  interrupt.o(.constdata)
    g_pui32EnRegs                            0x00006afc   Data          20  interrupt.o(.constdata)
    g_pui32Dii16Regs                         0x00006b10   Data          20  interrupt.o(.constdata)
    g_pui32PendRegs                          0x00006b24   Data          20  interrupt.o(.constdata)
    g_pui32UnpendRegs                        0x00006b38   Data          20  interrupt.o(.constdata)
    .constdata                               0x00006b4c   Section      596  sysctl.o(.constdata)
    g_pui32VCOFrequencies                    0x00006b4c   Data           8  sysctl.o(.constdata)
    g_pui32Xtals                             0x00006b54   Data         108  sysctl.o(.constdata)
    g_pppui32XTALtoVCO                       0x00006bc0   Data         432  sysctl.o(.constdata)
    g_sXTALtoMEMTIM                          0x00006d70   Data          48  sysctl.o(.constdata)
    .constdata                               0x00006da0   Section       16  context.o(.constdata)
    .constdata                               0x00006db0   Section      760  fontfixed6x8.o(.constdata)
    g_pui8FontFixed6x8Data                   0x00006db0   Data         760  fontfixed6x8.o(.constdata)
    .constdata                               0x000070a8   Section      200  fontfixed6x8.o(.constdata)
    .conststring                             0x00007170   Section       37  blinky.o(.conststring)
    .data                                    0x20000000   Section        8  blinky.o(.data)
    .data                                    0x20000008   Section        8  blinky.o(.data)
    .data                                    0x20000010   Section        8  blinky.o(.data)
    .data                                    0x20000018   Section       60  blinky.o(.data)
    pAscii                                   0x20000018   Data           4  blinky.o(.data)
    pAscii                                   0x2000001c   Data           4  blinky.o(.data)
    .data                                    0x20000054   Section       12  buzzer.o(.data)
    g_current_state                          0x20000054   Data           1  buzzer.o(.data)
    g_current_per                            0x20000056   Data           2  buzzer.o(.data)
    g_ui32SysClock                           0x20000058   Data           4  buzzer.o(.data)
    g_current_vol                            0x2000005c   Data           4  buzzer.o(.data)
    .data                                    0x20000060   Section        8  cfaf128x128x16.o(.data)
    _orientation                             0x20000060   Data           1  cfaf128x128x16.o(.data)
    g_ui32SysClock                           0x20000064   Data           4  cfaf128x128x16.o(.data)
    .data                                    0x20000068   Section       12  opt.o(.data)
    g_sentFlag                               0x20000068   Data           1  opt.o(.data)
    mid                                      0x2000006a   Data           2  opt.o(.data)
    did                                      0x2000006c   Data           2  opt.o(.data)
    g_timeout_count                          0x2000006e   Data           2  opt.o(.data)
    g_ui32SysClock                           0x20000070   Data           4  opt.o(.data)
    .data                                    0x20000074   Section        8  rgb.o(.data)
    enabled                                  0x20000074   Data           1  rgb.o(.data)
    enabled                                  0x20000075   Data           1  rgb.o(.data)
    enabled                                  0x20000076   Data           1  rgb.o(.data)
    g_ui32SysClock                           0x20000078   Data           4  rgb.o(.data)
    .data                                    0x2000007c   Section        8  servo.o(.data)
    g_ui16Period                             0x2000007c   Data           2  servo.o(.data)
    g_ui16perMin                             0x2000007e   Data           2  servo.o(.data)
    g_ui32SysClock                           0x20000080   Data           4  servo.o(.data)
    .data                                    0x20000084   Section       12  temp.o(.data)
    g_sentFlag                               0x20000084   Data           1  temp.o(.data)
    g_mid                                    0x20000086   Data           2  temp.o(.data)
    g_did                                    0x20000088   Data           2  temp.o(.data)
    g_timeout_count                          0x2000008a   Data           2  temp.o(.data)
    g_ui32SysClock                           0x2000008c   Data           4  temp.o(.data)
    .data                                    0x20000090   Section        4  rtx_conf_cm.o(.data)
    .data                                    0x20000094   Section        4  rtx_conf_cm.o(.data)
    .data                                    0x20000098   Section        4  rtx_conf_cm.o(.data)
    .data                                    0x2000009c   Section        4  rtx_conf_cm.o(.data)
    nr_mutex                                 0x2000009c   Data           4  rtx_conf_cm.o(.data)
    .data                                    0x200000a0   Section        4  system_tm4c129.o(.data)
    .data                                    0x200000a4   Section        4  context.o(.data)
    g_psGrLibDefaults                        0x200000a4   Data           4  context.o(.data)
    .data                                    0x200000a8   Section        8  rt_cmsis.o(.data)
    .data                                    0x200000b0   Section        8  rt_task.o(.data)
    .data                                    0x200000b8   Section        8  rt_system.o(.data)
    os_lock                                  0x200000b8   Data           1  rt_system.o(.data)
    os_psh_flag                              0x200000b9   Data           1  rt_system.o(.data)
    pend_flags                               0x200000ba   Data           1  rt_system.o(.data)
    .data                                    0x200000c0   Section        4  rt_time.o(.data)
    .data                                    0x200000c4   Section        8  rt_robin.o(.data)
    .data                                    0x200000cc   Section        1  hal_cm.o(.data)
    vtable                                   0x20000400   Section      620  interrupt.o(vtable)
    g_pfnRAMVectors                          0x20000400   Data         620  interrupt.o(vtable)
    .bss                                     0x2000066c   Section       16  blinky.o(.bss)
    .bss                                     0x2000067c   Section       16  blinky.o(.bss)
    .bss                                     0x2000068c   Section       16  blinky.o(.bss)
    .bss                                     0x2000069c   Section       80  blinky.o(.bss)
    .bss                                     0x200006ec   Section       80  blinky.o(.bss)
    .bss                                     0x2000073c   Section       80  blinky.o(.bss)
    .bss                                     0x2000078c   Section       44  blinky.o(.bss)
    .bss                                     0x200007b8   Section      140  blinky.o(.bss)
    .bss                                     0x20000844   Section      140  blinky.o(.bss)
    .bss                                     0x200008d0   Section      140  blinky.o(.bss)
    .bss                                     0x2000095c   Section       32  rtx_conf_cm.o(.bss)
    .bss                                     0x2000097c   Section      480  rtx_conf_cm.o(.bss)
    .bss                                     0x20000b60   Section     6416  rtx_conf_cm.o(.bss)
    .bss                                     0x20002470   Section     1032  rtx_conf_cm.o(.bss)
    .bss                                     0x20002878   Section      132  rtx_conf_cm.o(.bss)
    .bss                                     0x200028fc   Section       36  rtx_conf_cm.o(.bss)
    .bss                                     0x20002920   Section      992  rtx_conf_cm.o(.bss)
    std_libspace                             0x20002920   Data         864  rtx_conf_cm.o(.bss)
    std_libmutex                             0x20002c80   Data         128  rtx_conf_cm.o(.bss)
    .bss                                     0x20002d00   Section       52  rt_task.o(.bss)
    .bss                                     0x20002d34   Section       48  rt_list.o(.bss)
    .bss                                     0x20002d64   Section       96  libspace.o(.bss)
    HEAP                                     0x20002dc8   Section        0  startup_tm4c129.o(HEAP)
    STACK                                    0x20002dc8   Section      512  startup_tm4c129.o(STACK)
    Heap_Mem                                 0x20002dc8   Data           0  startup_tm4c129.o(HEAP)
    Stack_Mem                                0x20002dc8   Data         512  startup_tm4c129.o(STACK)
    __initial_sp                             0x20002fc8   Data           0  startup_tm4c129.o(STACK)

    Global Symbols

    Symbol Name                              Value     Ov Type        Size  Object(Section)

    BuildAttributes$$THM_ISAv4$E$P$D$K$B$S$7EM$VFPi3$EXTD16$VFPS$VFMA$PE$A:L22UL41UL21$X:L11$S22US41US21$IEEE1$IW$USESV6$~STKCKD$USESV7$~SHL$OTIME$ROPI$EBA8$UX$STANDARDLIB$REQ8$PRES8$EABIv2 0x00000000   Number         0  anon$$obj.o ABSOLUTE
    __ARM_use_no_argv                        0x00000000   Number         0  blinky.o ABSOLUTE
    __Vectors                                0x00000000   Data           4  startup_tm4c129.o(RESET)
    __ARM_exceptions_init                     - Undefined Weak Reference
    __alloca_initialize                       - Undefined Weak Reference
    __arm_preinit_                            - Undefined Weak Reference
    __cpp_initialize__aeabi_                  - Undefined Weak Reference
    __cxa_finalize                            - Undefined Weak Reference
    __rt_locale                               - Undefined Weak Reference
    __sigvec_lookup                           - Undefined Weak Reference
    _atexit_init                              - Undefined Weak Reference
    _call_atexit_fns                          - Undefined Weak Reference
    _clock_init                               - Undefined Weak Reference
    _fp_trap_init                             - Undefined Weak Reference
    _fp_trap_shutdown                         - Undefined Weak Reference
    _get_lc_collate                           - Undefined Weak Reference
    _get_lc_ctype                             - Undefined Weak Reference
    _get_lc_monetary                          - Undefined Weak Reference
    _get_lc_numeric                           - Undefined Weak Reference
    _get_lc_time                              - Undefined Weak Reference
    _getenv_init                              - Undefined Weak Reference
    _handle_redirection                       - Undefined Weak Reference
    _init_alloc                               - Undefined Weak Reference
    _init_user_alloc                          - Undefined Weak Reference
    _initio                                   - Undefined Weak Reference
    _rand_init                                - Undefined Weak Reference
    _signal_finish                            - Undefined Weak Reference
    _signal_init                              - Undefined Weak Reference
    _terminate_alloc                          - Undefined Weak Reference
    _terminate_user_alloc                     - Undefined Weak Reference
    _terminateio                              - Undefined Weak Reference
    __Vectors_End                            0x00000200   Data           0  startup_tm4c129.o(RESET)
    __Vectors_Size                           0x00000200   Number         0  startup_tm4c129.o ABSOLUTE
    __main                                   0x00000201   Thumb Code     8  __main.o(!!!main)
    __scatterload                            0x00000209   Thumb Code     0  __scatter.o(!!!scatter)
    __scatterload_rt2                        0x00000209   Thumb Code    44  __scatter.o(!!!scatter)
    __scatterload_rt2_thumb_only             0x00000209   Thumb Code     0  __scatter.o(!!!scatter)
    __scatterload_null                       0x00000217   Thumb Code     0  __scatter.o(!!!scatter)
    __decompress                             0x0000023d   Thumb Code    90  __dczerorl2.o(!!dczerorl2)
    __decompress1                            0x0000023d   Thumb Code     0  __dczerorl2.o(!!dczerorl2)
    __scatterload_zeroinit                   0x00000299   Thumb Code    28  __scatter_zi.o(!!handler_zi)
    __rt_lib_init                            0x000002b5   Thumb Code     0  libinit.o(.ARM.Collect$$libinit$$00000000)
    __rt_lib_init_fp_1                       0x000002b7   Thumb Code     0  libinit2.o(.ARM.Collect$$libinit$$00000001)
    __rt_lib_init_alloca_1                   0x000002bb   Thumb Code     0  libinit2.o(.ARM.Collect$$libinit$$0000002E)
    __rt_lib_init_argv_1                     0x000002bb   Thumb Code     0  libinit2.o(.ARM.Collect$$libinit$$0000002C)
    __rt_lib_init_atexit_1                   0x000002bb   Thumb Code     0  libinit2.o(.ARM.Collect$$libinit$$0000001B)
    __rt_lib_init_clock_1                    0x000002bb   Thumb Code     0  libinit2.o(.ARM.Collect$$libinit$$00000021)
    __rt_lib_init_cpp_1                      0x000002bb   Thumb Code     0  libinit2.o(.ARM.Collect$$libinit$$00000032)
    __rt_lib_init_exceptions_1               0x000002bb   Thumb Code     0  libinit2.o(.ARM.Collect$$libinit$$00000030)
    __rt_lib_init_fp_trap_1                  0x000002bb   Thumb Code     0  libinit2.o(.ARM.Collect$$libinit$$0000001F)
    __rt_lib_init_getenv_1                   0x000002bb   Thumb Code     0  libinit2.o(.ARM.Collect$$libinit$$00000023)
    __rt_lib_init_heap_1                     0x000002bb   Thumb Code     0  libinit2.o(.ARM.Collect$$libinit$$0000000A)
    __rt_lib_init_lc_collate_1               0x000002bb   Thumb Code     0  libinit2.o(.ARM.Collect$$libinit$$00000011)
    __rt_lib_init_lc_ctype_1                 0x000002bb   Thumb Code     0  libinit2.o(.ARM.Collect$$libinit$$00000013)
    __rt_lib_init_lc_monetary_1              0x000002bb   Thumb Code     0  libinit2.o(.ARM.Collect$$libinit$$00000015)
    __rt_lib_init_lc_numeric_1               0x000002bb   Thumb Code     0  libinit2.o(.ARM.Collect$$libinit$$00000017)
    __rt_lib_init_lc_time_1                  0x000002bb   Thumb Code     0  libinit2.o(.ARM.Collect$$libinit$$00000019)
    __rt_lib_init_preinit_1                  0x000002bb   Thumb Code     0  libinit2.o(.ARM.Collect$$libinit$$00000004)
    __rt_lib_init_rand_1                     0x000002bb   Thumb Code     0  libinit2.o(.ARM.Collect$$libinit$$0000000E)
    __rt_lib_init_return                     0x000002bb   Thumb Code     0  libinit2.o(.ARM.Collect$$libinit$$00000033)
    __rt_lib_init_signal_1                   0x000002bb   Thumb Code     0  libinit2.o(.ARM.Collect$$libinit$$0000001D)
    __rt_lib_init_stdio_1                    0x000002bb   Thumb Code     0  libinit2.o(.ARM.Collect$$libinit$$00000025)
    __rt_lib_init_user_alloc_1               0x000002bb   Thumb Code     0  libinit2.o(.ARM.Collect$$libinit$$0000000C)
    __rt_lib_shutdown                        0x000002bd   Thumb Code     0  libshutdown.o(.ARM.Collect$$libshutdown$$00000000)
    __rt_lib_shutdown_cpp_1                  0x000002bf   Thumb Code     0  libshutdown2.o(.ARM.Collect$$libshutdown$$00000002)
    __rt_lib_shutdown_fp_trap_1              0x000002bf   Thumb Code     0  libshutdown2.o(.ARM.Collect$$libshutdown$$00000007)
    __rt_lib_shutdown_heap_1                 0x000002bf   Thumb Code     0  libshutdown2.o(.ARM.Collect$$libshutdown$$0000000F)
    __rt_lib_shutdown_return                 0x000002bf   Thumb Code     0  libshutdown2.o(.ARM.Collect$$libshutdown$$00000010)
    __rt_lib_shutdown_signal_1               0x000002bf   Thumb Code     0  libshutdown2.o(.ARM.Collect$$libshutdown$$0000000A)
    __rt_lib_shutdown_stdio_1                0x000002bf   Thumb Code     0  libshutdown2.o(.ARM.Collect$$libshutdown$$00000004)
    __rt_lib_shutdown_user_alloc_1           0x000002bf   Thumb Code     0  libshutdown2.o(.ARM.Collect$$libshutdown$$0000000C)
    __rt_entry                               0x000002c1   Thumb Code     0  __rtentry.o(.ARM.Collect$$rtentry$$00000000)
    __rt_entry_presh_1                       0x000002c1   Thumb Code     0  __rtentry2.o(.ARM.Collect$$rtentry$$00000002)
    __rt_entry_sh                            0x000002c1   Thumb Code     0  __rtentry4.o(.ARM.Collect$$rtentry$$00000004)
    __rt_entry_li                            0x000002c7   Thumb Code     0  __rtentry2.o(.ARM.Collect$$rtentry$$0000000A)
    __rt_entry_postsh_1                      0x000002c7   Thumb Code     0  __rtentry2.o(.ARM.Collect$$rtentry$$00000009)
    __rt_entry_postli_1                      0x000002cb   Thumb Code     0  __rtentry2.o(.ARM.Collect$$rtentry$$0000000B)
    __rt_entry_main                          0x000002d3   Thumb Code     0  __rtentry2.o(.ARM.Collect$$rtentry$$0000000D)
    __rt_exit                                0x000002db   Thumb Code     0  rtexit.o(.ARM.Collect$$rtexit$$00000000)
    __rt_exit_ls                             0x000002dd   Thumb Code     0  rtexit2.o(.ARM.Collect$$rtexit$$00000003)
    __rt_exit_prels_1                        0x000002dd   Thumb Code     0  rtexit2.o(.ARM.Collect$$rtexit$$00000002)
    __rt_exit_exit                           0x000002e1   Thumb Code     0  rtexit2.o(.ARM.Collect$$rtexit$$00000004)
    _platform_post_lib_init                  0x000002e9   Thumb Code    24  rtx_conf_cm.o(.emb_text)
    SysCtlDelay                              0x00000305   Thumb Code     6  sysctl.o(.emb_text)
    rt_set_PSP                               0x0000030d   Thumb Code     6  hal_cm4.o(.emb_text)
    rt_get_PSP                               0x00000313   Thumb Code     6  hal_cm4.o(.emb_text)
    os_set_env                               0x00000319   Thumb Code    24  hal_cm4.o(.emb_text)
    _alloc_box                               0x00000335   Thumb Code    28  hal_cm4.o(.emb_text)
    _free_box                                0x00000355   Thumb Code    28  hal_cm4.o(.emb_text)
    SVC_Handler                              0x00000375   Thumb Code   168  hal_cm4.o(.emb_text)
    PendSV_Handler                           0x0000042d   Thumb Code    96  hal_cm4.o(.emb_text)
    __RL_RTX_VER                             0x00000482   Number         0  rt_system.o ABSOLUTE
    SysTick_Handler                          0x00000491   Thumb Code     8  hal_cm4.o(.emb_text)
    OS_Tick_Handler                          0x00000499   Thumb Code    12  hal_cm4.o(.emb_text)
    init_all                                 0x00000623   Thumb Code    50  blinky.o(.text)
    draw_circle                              0x00000655   Thumb Code    40  blinky.o(.text)
    fill_circle                              0x0000067d   Thumb Code    42  blinky.o(.text)
    init_sidelong_menu                       0x000006a7   Thumb Code   276  blinky.o(.text)
    saturate                                 0x000007bb   Thumb Code   114  blinky.o(.text)
    Switch_On                                0x0000082d   Thumb Code    10  blinky.o(.text)
    Switch_Off                               0x00000837   Thumb Code    10  blinky.o(.text)
    thread_status                            0x00000841   Thumb Code    62  blinky.o(.text)
    t_buzzer                                 0x0000087f   Thumb Code   386  blinky.o(.text)
    t_rgb                                    0x00000a01   Thumb Code   672  blinky.o(.text)
    t_mic                                    0x00000ca1   Thumb Code   410  blinky.o(.text)
    t_light                                  0x00000e3b   Thumb Code   176  blinky.o(.text)
    t_temp                                   0x00000eeb   Thumb Code   188  blinky.o(.text)
    t_servo                                  0x00000fa7   Thumb Code   184  blinky.o(.text)
    t_accel                                  0x0000105f   Thumb Code   416  blinky.o(.text)
    t_joy                                    0x000011ff   Thumb Code   424  blinky.o(.text)
    main                                     0x000013a7   Thumb Code   170  blinky.o(.text)
    buzzer_write                             0x000014a9   Thumb Code    14  buzzer.o(.text)
    buzzer_vol_set                           0x000014b7   Thumb Code    54  buzzer.o(.text)
    buzzer_per_set                           0x000014ed   Thumb Code    48  buzzer.o(.text)
    buzzer_init                              0x0000151d   Thumb Code   120  buzzer.o(.text)
    accel_init                               0x000015b1   Thumb Code    18  accel.o(.text)
    accel_read_x                             0x0000162b   Thumb Code     8  accel.o(.text)
    accel_read_y                             0x00001633   Thumb Code     8  accel.o(.text)
    accel_read_z                             0x0000163b   Thumb Code     8  accel.o(.text)
    button_init                              0x00001655   Thumb Code    42  buttons.o(.text)
    button_read_s1                           0x0000167f   Thumb Code    20  buttons.o(.text)
    button_read_s2                           0x00001693   Thumb Code    20  buttons.o(.text)
    cfaf128x128x16Rect                       0x00001841   Thumb Code   100  cfaf128x128x16.o(.text)
    cfaf128x128x16LineVer                    0x000018a5   Thumb Code    22  cfaf128x128x16.o(.text)
    cfaf128x128x16LineHor                    0x000018bb   Thumb Code    16  cfaf128x128x16.o(.text)
    cfaf128x128x16Dot                        0x000018cb   Thumb Code    22  cfaf128x128x16.o(.text)
    cfaf128x128x16SetOrientation             0x00001b25   Thumb Code    70  cfaf128x128x16.o(.text)
    cfaf128x128x16ClearColor                 0x00001b6b   Thumb Code    36  cfaf128x128x16.o(.text)
    cfaf128x128x16Clear                      0x00001b8f   Thumb Code     4  cfaf128x128x16.o(.text)
    InitSSICom                               0x00001b93   Thumb Code   138  cfaf128x128x16.o(.text)
    cfaf128x128x16Init                       0x00001c1d   Thumb Code   322  cfaf128x128x16.o(.text)
    led_init                                 0x00001dad   Thumb Code    52  led.o(.text)
    led_on                                   0x00001de1   Thumb Code    80  led.o(.text)
    led_off                                  0x00001e31   Thumb Code    80  led.o(.text)
    led_write                                0x00001e81   Thumb Code    38  led.o(.text)
    mic_init                                 0x00001ec9   Thumb Code    18  mic.o(.text)
    mic_read                                 0x00001f43   Thumb Code     8  mic.o(.text)
    opt_read                                 0x0000232b   Thumb Code     4  opt.o(.text)
    opt_read_lux                             0x00002351   Thumb Code    82  opt.o(.text)
    opt_init                                 0x000023a3   Thumb Code   244  opt.o(.text)
    rgb_write_r                              0x000024cd   Thumb Code    82  rgb.o(.text)
    rgb_write_g                              0x0000251f   Thumb Code    82  rgb.o(.text)
    rgb_write_b                              0x00002571   Thumb Code    82  rgb.o(.text)
    rgb_write                                0x000025c3   Thumb Code    24  rgb.o(.text)
    rgb_write_color                          0x000025db   Thumb Code    12  rgb.o(.text)
    rgb_init                                 0x000025e7   Thumb Code   272  rgb.o(.text)
    servo_write                              0x00002721   Thumb Code    26  servo.o(.text)
    servo_init                               0x0000273b   Thumb Code   164  servo.o(.text)
    joy_init                                 0x00002805   Thumb Code    46  joy.o(.text)
    joy_read_center                          0x0000289b   Thumb Code    20  joy.o(.text)
    joy_read_x                               0x000028af   Thumb Code     8  joy.o(.text)
    joy_read_y                               0x000028b7   Thumb Code     8  joy.o(.text)
    temp_read                                0x00002ca3   Thumb Code    12  temp.o(.text)
    temp_read_voltage                        0x00002caf   Thumb Code    22  temp.o(.text)
    temp_init                                0x00002cdf   Thumb Code   230  temp.o(.text)
    os_idle_demon                            0x00002df9   Thumb Code     2  rtx_conf_cm.o(.text)
    os_error                                 0x00002dfb   Thumb Code     2  rtx_conf_cm.o(.text)
    __user_perthread_libspace                0x00002dfd   Thumb Code    32  rtx_conf_cm.o(.text)
    _mutex_initialize                        0x00002e1d   Thumb Code    34  rtx_conf_cm.o(.text)
    _mutex_acquire                           0x00002e3f   Thumb Code    22  rtx_conf_cm.o(.text)
    _mutex_release                           0x00002e55   Thumb Code    18  rtx_conf_cm.o(.text)
    Reset_Handler                            0x00002e85   Thumb Code     8  startup_tm4c129.o(.text)
    NMI_Handler                              0x00002e8d   Thumb Code     2  startup_tm4c129.o(.text)
    HardFault_Handler                        0x00002e8f   Thumb Code     2  startup_tm4c129.o(.text)
    MemManage_Handler                        0x00002e91   Thumb Code     2  startup_tm4c129.o(.text)
    BusFault_Handler                         0x00002e93   Thumb Code     2  startup_tm4c129.o(.text)
    UsageFault_Handler                       0x00002e95   Thumb Code     2  startup_tm4c129.o(.text)
    DebugMon_Handler                         0x00002e99   Thumb Code     2  startup_tm4c129.o(.text)
    GPIOA_Handler                            0x00002e9f   Thumb Code     2  startup_tm4c129.o(.text)
    GPIOB_Handler                            0x00002ea1   Thumb Code     2  startup_tm4c129.o(.text)
    GPIOC_Handler                            0x00002ea3   Thumb Code     2  startup_tm4c129.o(.text)
    GPIOD_Handler                            0x00002ea5   Thumb Code     2  startup_tm4c129.o(.text)
    GPIOE_Handler                            0x00002ea7   Thumb Code     2  startup_tm4c129.o(.text)
    UART0_Handler                            0x00002ea9   Thumb Code     2  startup_tm4c129.o(.text)
    UART1_Handler                            0x00002eab   Thumb Code     2  startup_tm4c129.o(.text)
    SSI0_Handler                             0x00002ead   Thumb Code     2  startup_tm4c129.o(.text)
    I2C0_Handler                             0x00002eaf   Thumb Code     2  startup_tm4c129.o(.text)
    PMW0_FAULT_Handler                       0x00002eb1   Thumb Code     2  startup_tm4c129.o(.text)
    PWM0_0_Handler                           0x00002eb3   Thumb Code     2  startup_tm4c129.o(.text)
    PWM0_1_Handler                           0x00002eb5   Thumb Code     2  startup_tm4c129.o(.text)
    PWM0_2_Handler                           0x00002eb7   Thumb Code     2  startup_tm4c129.o(.text)
    QEI0_Handler                             0x00002eb9   Thumb Code     2  startup_tm4c129.o(.text)
    ADC0SS0_Handler                          0x00002ebb   Thumb Code     2  startup_tm4c129.o(.text)
    ADC0SS1_Handler                          0x00002ebd   Thumb Code     2  startup_tm4c129.o(.text)
    ADC0SS2_Handler                          0x00002ebf   Thumb Code     2  startup_tm4c129.o(.text)
    ADC0SS3_Handler                          0x00002ec1   Thumb Code     2  startup_tm4c129.o(.text)
    WDT0_Handler                             0x00002ec3   Thumb Code     2  startup_tm4c129.o(.text)
    TIMER0A_Handler                          0x00002ec5   Thumb Code     2  startup_tm4c129.o(.text)
    TIMER0B_Handler                          0x00002ec7   Thumb Code     2  startup_tm4c129.o(.text)
    TIMER1A_Handler                          0x00002ec9   Thumb Code     2  startup_tm4c129.o(.text)
    TIMER1B_Handler                          0x00002ecb   Thumb Code     2  startup_tm4c129.o(.text)
    TIMER2A_Handler                          0x00002ecd   Thumb Code     2  startup_tm4c129.o(.text)
    TIMER2B_Handler                          0x00002ecf   Thumb Code     2  startup_tm4c129.o(.text)
    COMP0_Handler                            0x00002ed1   Thumb Code     2  startup_tm4c129.o(.text)
    COMP1_Handler                            0x00002ed3   Thumb Code     2  startup_tm4c129.o(.text)
    COMP2_Handler                            0x00002ed5   Thumb Code     2  startup_tm4c129.o(.text)
    SYSCTL_Handler                           0x00002ed7   Thumb Code     2  startup_tm4c129.o(.text)
    FLASH_Handler                            0x00002ed9   Thumb Code     2  startup_tm4c129.o(.text)
    GPIOF_Handler                            0x00002edb   Thumb Code     2  startup_tm4c129.o(.text)
    GPIOG_Handler                            0x00002edd   Thumb Code     2  startup_tm4c129.o(.text)
    GPIOH_Handler                            0x00002edf   Thumb Code     2  startup_tm4c129.o(.text)
    UART2_Handler                            0x00002ee1   Thumb Code     2  startup_tm4c129.o(.text)
    SSI1_Handler                             0x00002ee3   Thumb Code     2  startup_tm4c129.o(.text)
    TIMER3A_Handler                          0x00002ee5   Thumb Code     2  startup_tm4c129.o(.text)
    TIMER3B_Handler                          0x00002ee7   Thumb Code     2  startup_tm4c129.o(.text)
    I2C1_Handler                             0x00002ee9   Thumb Code     2  startup_tm4c129.o(.text)
    CAN0_Handler                             0x00002eeb   Thumb Code     2  startup_tm4c129.o(.text)
    CAN1_Handler                             0x00002eed   Thumb Code     2  startup_tm4c129.o(.text)
    ETH_Handler                              0x00002eef   Thumb Code     2  startup_tm4c129.o(.text)
    HIB_Handler                              0x00002ef1   Thumb Code     2  startup_tm4c129.o(.text)
    USB0_Handler                             0x00002ef3   Thumb Code     2  startup_tm4c129.o(.text)
    PWM0_3_Handler                           0x00002ef5   Thumb Code     2  startup_tm4c129.o(.text)
    UDMA_Handler                             0x00002ef7   Thumb Code     2  startup_tm4c129.o(.text)
    UDMAERR_Handler                          0x00002ef9   Thumb Code     2  startup_tm4c129.o(.text)
    ADC1SS0_Handler                          0x00002efb   Thumb Code     2  startup_tm4c129.o(.text)
    ADC1SS1_Handler                          0x00002efd   Thumb Code     2  startup_tm4c129.o(.text)
    ADC1SS2_Handler                          0x00002eff   Thumb Code     2  startup_tm4c129.o(.text)
    ADC1SS3_Handler                          0x00002f01   Thumb Code     2  startup_tm4c129.o(.text)
    EBI0_Handler                             0x00002f03   Thumb Code     2  startup_tm4c129.o(.text)
    GPIOJ_Handler                            0x00002f05   Thumb Code     2  startup_tm4c129.o(.text)
    GPIOK_Handler                            0x00002f07   Thumb Code     2  startup_tm4c129.o(.text)
    GPIOL_Handler                            0x00002f09   Thumb Code     2  startup_tm4c129.o(.text)
    SSI2_Handler                             0x00002f0b   Thumb Code     2  startup_tm4c129.o(.text)
    SSI3_Handler                             0x00002f0d   Thumb Code     2  startup_tm4c129.o(.text)
    UART3_Handler                            0x00002f0f   Thumb Code     2  startup_tm4c129.o(.text)
    UART4_Handler                            0x00002f11   Thumb Code     2  startup_tm4c129.o(.text)
    UART5_Handler                            0x00002f13   Thumb Code     2  startup_tm4c129.o(.text)
    UART6_Handler                            0x00002f15   Thumb Code     2  startup_tm4c129.o(.text)
    UART7_Handler                            0x00002f17   Thumb Code     2  startup_tm4c129.o(.text)
    I2C2_Handler                             0x00002f19   Thumb Code     2  startup_tm4c129.o(.text)
    I2C3_Handler                             0x00002f1b   Thumb Code     2  startup_tm4c129.o(.text)
    TIMER4A_Handler                          0x00002f1d   Thumb Code     2  startup_tm4c129.o(.text)
    TIMER4B_Handler                          0x00002f1f   Thumb Code     2  startup_tm4c129.o(.text)
    TIMER5A_Handler                          0x00002f21   Thumb Code     2  startup_tm4c129.o(.text)
    TIMER5B_Handler                          0x00002f23   Thumb Code     2  startup_tm4c129.o(.text)
    WTIMER0A_Handler                         0x00002f25   Thumb Code     2  startup_tm4c129.o(.text)
    WTIMER0B_Handler                         0x00002f27   Thumb Code     2  startup_tm4c129.o(.text)
    WTIMER1A_Handler                         0x00002f29   Thumb Code     2  startup_tm4c129.o(.text)
    WTIMER1B_Handler                         0x00002f2b   Thumb Code     2  startup_tm4c129.o(.text)
    WTIMER2A_Handler                         0x00002f2d   Thumb Code     2  startup_tm4c129.o(.text)
    WTIMER2B_Handler                         0x00002f2f   Thumb Code     2  startup_tm4c129.o(.text)
    WTIMER3A_Handler                         0x00002f31   Thumb Code     2  startup_tm4c129.o(.text)
    WTIMER3B_Handler                         0x00002f33   Thumb Code     2  startup_tm4c129.o(.text)
    WTIMER4A_Handler                         0x00002f35   Thumb Code     2  startup_tm4c129.o(.text)
    WTIMER4B_Handler                         0x00002f37   Thumb Code     2  startup_tm4c129.o(.text)
    WTIMER5A_Handler                         0x00002f39   Thumb Code     2  startup_tm4c129.o(.text)
    WTIMER5B_Handler                         0x00002f3b   Thumb Code     2  startup_tm4c129.o(.text)
    FPU_Handler                              0x00002f3d   Thumb Code     2  startup_tm4c129.o(.text)
    I2C4_Handler                             0x00002f3f   Thumb Code     2  startup_tm4c129.o(.text)
    I2C5_Handler                             0x00002f41   Thumb Code     2  startup_tm4c129.o(.text)
    GPIOM_Handler                            0x00002f43   Thumb Code     2  startup_tm4c129.o(.text)
    GPION_Handler                            0x00002f45   Thumb Code     2  startup_tm4c129.o(.text)
    TAMPER_Handler                           0x00002f47   Thumb Code     2  startup_tm4c129.o(.text)
    GPIOP0_Handler                           0x00002f49   Thumb Code     2  startup_tm4c129.o(.text)
    GPIOP1_Handler                           0x00002f4b   Thumb Code     2  startup_tm4c129.o(.text)
    GPIOP2_Handler                           0x00002f4d   Thumb Code     2  startup_tm4c129.o(.text)
    GPIOP3_Handler                           0x00002f4f   Thumb Code     2  startup_tm4c129.o(.text)
    GPIOP4_Handler                           0x00002f51   Thumb Code     2  startup_tm4c129.o(.text)
    GPIOP5_Handler                           0x00002f53   Thumb Code     2  startup_tm4c129.o(.text)
    GPIOP6_Handler                           0x00002f55   Thumb Code     2  startup_tm4c129.o(.text)
    GPIOP7_Handler                           0x00002f57   Thumb Code     2  startup_tm4c129.o(.text)
    GPIOQ0_Handler                           0x00002f59   Thumb Code     2  startup_tm4c129.o(.text)
    GPIOQ1_Handler                           0x00002f5b   Thumb Code     2  startup_tm4c129.o(.text)
    GPIOQ2_Handler                           0x00002f5d   Thumb Code     2  startup_tm4c129.o(.text)
    GPIOQ3_Handler                           0x00002f5f   Thumb Code     2  startup_tm4c129.o(.text)
    GPIOQ4_Handler                           0x00002f61   Thumb Code     2  startup_tm4c129.o(.text)
    GPIOQ5_Handler                           0x00002f63   Thumb Code     2  startup_tm4c129.o(.text)
    GPIOQ6_Handler                           0x00002f65   Thumb Code     2  startup_tm4c129.o(.text)
    GPIOQ7_Handler                           0x00002f67   Thumb Code     2  startup_tm4c129.o(.text)
    GPIOR_Handler                            0x00002f69   Thumb Code     2  startup_tm4c129.o(.text)
    GPIOS_Handler                            0x00002f6b   Thumb Code     2  startup_tm4c129.o(.text)
    SHAMD5_Handler                           0x00002f6d   Thumb Code     2  startup_tm4c129.o(.text)
    AES_Handler                              0x00002f6f   Thumb Code     2  startup_tm4c129.o(.text)
    DES3DES_Handler                          0x00002f71   Thumb Code     2  startup_tm4c129.o(.text)
    LCDCONTROLLER_Handler                    0x00002f73   Thumb Code     2  startup_tm4c129.o(.text)
    TIMER6A_Handler                          0x00002f75   Thumb Code     2  startup_tm4c129.o(.text)
    TIMER6B_Handler                          0x00002f77   Thumb Code     2  startup_tm4c129.o(.text)
    TIMER7A_Handler                          0x00002f79   Thumb Code     2  startup_tm4c129.o(.text)
    TIMER7B_Handler                          0x00002f7b   Thumb Code     2  startup_tm4c129.o(.text)
    I2C6_Handler                             0x00002f7d   Thumb Code     2  startup_tm4c129.o(.text)
    I2C7_Handler                             0x00002f7f   Thumb Code     2  startup_tm4c129.o(.text)
    HIMSCANKEYBOARD_Handler                  0x00002f81   Thumb Code     2  startup_tm4c129.o(.text)
    ONEWIRE_Handler                          0x00002f83   Thumb Code     2  startup_tm4c129.o(.text)
    HIMPS2_Handler                           0x00002f85   Thumb Code     2  startup_tm4c129.o(.text)
    HIMLEDSEQUENCER_Handler                  0x00002f87   Thumb Code     2  startup_tm4c129.o(.text)
    HIMCONSUMERIR_Handler                    0x00002f89   Thumb Code     2  startup_tm4c129.o(.text)
    I2C8_Handler                             0x00002f8b   Thumb Code     2  startup_tm4c129.o(.text)
    I2C9_Handler                             0x00002f8d   Thumb Code     2  startup_tm4c129.o(.text)
    GPIOT_Handler                            0x00002f8f   Thumb Code     2  startup_tm4c129.o(.text)
    __user_initial_stackheap                 0x00002f91   Thumb Code     0  startup_tm4c129.o(.text)
    SystemCoreClockUpdate                    0x00002fb1   Thumb Code     8  system_tm4c129.o(.text)
    SystemInit                               0x00002fb9   Thumb Code    18  system_tm4c129.o(.text)
    __user_libspace                          0x00002fd9   Thumb Code     8  libspace.o(.text)
    __user_perproc_libspace                  0x00002fd9   Thumb Code     0  libspace.o(.text)
    __aeabi_uldivmod                         0x00002fe1   Thumb Code     0  lludivv7m.o(.text)
    _ll_udiv                                 0x00002fe1   Thumb Code   238  lludivv7m.o(.text)
    __aeabi_ldivmod                          0x000030cf   Thumb Code     0  llsdiv.o(.text)
    _ll_sdiv                                 0x000030cf   Thumb Code    72  llsdiv.o(.text)
    exit                                     0x00003117   Thumb Code    18  exit.o(.text)
    __use_two_region_memory                  0x00003129   Thumb Code     2  heapauxi.o(.text)
    __rt_heap_escrow$2region                 0x0000312b   Thumb Code     2  heapauxi.o(.text)
    __rt_heap_expand$2region                 0x0000312d   Thumb Code     2  heapauxi.o(.text)
    _sys_exit                                0x00003131   Thumb Code     8  sys_exit.o(.text)
    __user_setup_stackheap                   0x0000313d   Thumb Code    74  sys_stackheap_outer.o(.text)
    __I$use$semihosting                      0x00003187   Thumb Code     0  use_no_semi.o(.text)
    __use_no_semihosting_swi                 0x00003187   Thumb Code     2  use_no_semi.o(.text)
    SVC_Count                                0x00003188   Data           4  svc_table.o(SVC_TABLE)
    __semihosting_library_function           0x00003189   Thumb Code     0  indicate_semi.o(.text)
    ADCIntClear                              0x0000318d   Thumb Code    10  adc.o(i.ADCIntClear)
    SVC_Table                                0x0000318c   Data           0  svc_table.o(SVC_TABLE)
    ADCIntStatus                             0x00003197   Thumb Code    52  adc.o(i.ADCIntStatus)
    ADCProcessorTrigger                      0x000031cb   Thumb Code    26  adc.o(i.ADCProcessorTrigger)
    ADCSequenceConfigure                     0x000031e5   Thumb Code    96  adc.o(i.ADCSequenceConfigure)
    ADCSequenceDataGet                       0x00003245   Thumb Code    36  adc.o(i.ADCSequenceDataGet)
    ADCSequenceEnable                        0x00003269   Thumb Code    14  adc.o(i.ADCSequenceEnable)
    ADCSequenceStepConfigure                 0x00003277   Thumb Code   154  adc.o(i.ADCSequenceStepConfigure)
    GPIODirModeSet                           0x00003311   Thumb Code    40  gpio.o(i.GPIODirModeSet)
    GPIOPadConfigSet                         0x00003339   Thumb Code   312  gpio.o(i.GPIOPadConfigSet)
    GPIOPinConfigure                         0x00003471   Thumb Code    60  gpio.o(i.GPIOPinConfigure)
    GPIOPinRead                              0x000034b5   Thumb Code     6  gpio.o(i.GPIOPinRead)
    GPIOPinTypeADC                           0x000034bb   Thumb Code    28  gpio.o(i.GPIOPinTypeADC)
    GPIOPinTypeGPIOInput                     0x000034d7   Thumb Code    28  gpio.o(i.GPIOPinTypeGPIOInput)
    GPIOPinTypeI2C                           0x000034f3   Thumb Code    28  gpio.o(i.GPIOPinTypeI2C)
    GPIOPinTypeI2CSCL                        0x0000350f   Thumb Code    28  gpio.o(i.GPIOPinTypeI2CSCL)
    GPIOPinTypePWM                           0x0000352b   Thumb Code    28  gpio.o(i.GPIOPinTypePWM)
    GPIOPinTypeTimer                         0x00003547   Thumb Code    28  gpio.o(i.GPIOPinTypeTimer)
    GrCircleDraw                             0x00003563   Thumb Code   514  circle.o(i.GrCircleDraw)
    GrCircleFill                             0x00003765   Thumb Code   294  circle.o(i.GrCircleFill)
    GrContextFontSet                         0x0000388b   Thumb Code     6  string.o(i.GrContextFontSet)
    GrContextInit                            0x00003891   Thumb Code    88  context.o(i.GrContextInit)
    GrDefaultStringRenderer                  0x000038f5   Thumb Code   280  string.o(i.GrDefaultStringRenderer)
    GrFontGlyphDataGet                       0x00003a0d   Thumb Code   166  string.o(i.GrFontGlyphDataGet)
    GrFontGlyphRender                        0x00003ab3   Thumb Code   648  string.o(i.GrFontGlyphRender)
    GrLineDrawH                              0x00003d3b   Thumb Code    76  line.o(i.GrLineDrawH)
    GrMapISO8859_1_Unicode                   0x00003d87   Thumb Code     8  charmap.o(i.GrMapISO8859_1_Unicode)
    GrRectFill                               0x00003d8f   Thumb Code   180  rectangle.o(i.GrRectFill)
    GrStringDraw                             0x00003e43   Thumb Code    32  string.o(i.GrStringDraw)
    I2CIntRegister                           0x00003e65   Thumb Code    80  i2c.o(i.I2CIntRegister)
    I2CMasterBurstLengthSet                  0x00003ec5   Thumb Code     4  i2c.o(i.I2CMasterBurstLengthSet)
    I2CMasterBusBusy                         0x00003ec9   Thumb Code    12  i2c.o(i.I2CMasterBusBusy)
    I2CMasterBusy                            0x00003ed5   Thumb Code    12  i2c.o(i.I2CMasterBusy)
    I2CMasterControl                         0x00003ee1   Thumb Code     4  i2c.o(i.I2CMasterControl)
    I2CMasterDataGet                         0x00003ee5   Thumb Code     4  i2c.o(i.I2CMasterDataGet)
    I2CMasterDataPut                         0x00003ee9   Thumb Code     4  i2c.o(i.I2CMasterDataPut)
    I2CMasterEnable                          0x00003eed   Thumb Code    10  i2c.o(i.I2CMasterEnable)
    I2CMasterErr                             0x00003ef7   Thumb Code    24  i2c.o(i.I2CMasterErr)
    I2CMasterGlitchFilterConfigSet           0x00003f11   Thumb Code    74  i2c.o(i.I2CMasterGlitchFilterConfigSet)
    I2CMasterInitExpClk                      0x00003f65   Thumb Code    72  i2c.o(i.I2CMasterInitExpClk)
    I2CMasterIntClear                        0x00003fb9   Thumb Code     8  i2c.o(i.I2CMasterIntClear)
    I2CMasterIntClearEx                      0x00003fc1   Thumb Code     4  i2c.o(i.I2CMasterIntClearEx)
    I2CMasterIntEnableEx                     0x00003fc5   Thumb Code     8  i2c.o(i.I2CMasterIntEnableEx)
    I2CMasterSlaveAddrSet                    0x00003fcd   Thumb Code     8  i2c.o(i.I2CMasterSlaveAddrSet)
    I2CMasterTimeoutSet                      0x00003fd5   Thumb Code     4  i2c.o(i.I2CMasterTimeoutSet)
    IntEnable                                0x00003fd9   Thumb Code    92  interrupt.o(i.IntEnable)
    IntRegister                              0x0000403d   Thumb Code    44  interrupt.o(i.IntRegister)
    PWMClockSet                              0x00004071   Thumb Code    20  pwm.o(i.PWMClockSet)
    PWMGenConfigure                          0x00004085   Thumb Code    38  pwm.o(i.PWMGenConfigure)
    PWMGenDisable                            0x000040ab   Thumb Code    10  pwm.o(i.PWMGenDisable)
    PWMGenEnable                             0x000040b5   Thumb Code    10  pwm.o(i.PWMGenEnable)
    PWMGenPeriodGet                          0x000040bf   Thumb Code    18  pwm.o(i.PWMGenPeriodGet)
    PWMGenPeriodSet                          0x000040d1   Thumb Code    18  pwm.o(i.PWMGenPeriodSet)
    PWMOutputInvert                          0x000040e3   Thumb Code    16  pwm.o(i.PWMOutputInvert)
    PWMOutputState                           0x000040f3   Thumb Code    16  pwm.o(i.PWMOutputState)
    PWMPulseWidthSet                         0x00004103   Thumb Code    32  pwm.o(i.PWMPulseWidthSet)
    SysCtlClockFreqSet                       0x00004125   Thumb Code   706  sysctl.o(i.SysCtlClockFreqSet)
    SysCtlPeripheralEnable                   0x00004411   Thumb Code    36  sysctl.o(i.SysCtlPeripheralEnable)
    SysCtlPeripheralReady                    0x00004439   Thumb Code    40  sysctl.o(i.SysCtlPeripheralReady)
    SysCtlPeripheralReset                    0x00004465   Thumb Code    56  sysctl.o(i.SysCtlPeripheralReset)
    TimerClockSourceSet                      0x000044a1   Thumb Code     6  timer.o(i.TimerClockSourceSet)
    TimerConfigure                           0x000044a9   Thumb Code    88  timer.o(i.TimerConfigure)
    TimerControlLevel                        0x00004509   Thumb Code    22  timer.o(i.TimerControlLevel)
    TimerEnable                              0x0000451f   Thumb Code    14  timer.o(i.TimerEnable)
    TimerLoadSet                             0x0000452d   Thumb Code    18  timer.o(i.TimerLoadSet)
    TimerMatchSet                            0x0000453f   Thumb Code    18  timer.o(i.TimerMatchSet)
    TimerPrescaleSet                         0x00004551   Thumb Code    18  timer.o(i.TimerPrescaleSet)
    TimerUpdateMode                          0x00004563   Thumb Code    42  timer.o(i.TimerUpdateMode)
    _init_box                                0x000045f9   Thumb Code    70  rt_membox.o(i._init_box)
    dbg_init                                 0x00004641   Thumb Code    34  hal_cm.o(i.dbg_init)
    dbg_task_notify                          0x00004671   Thumb Code    32  hal_cm.o(i.dbg_task_notify)
    dbg_task_switch                          0x00004691   Thumb Code    16  hal_cm.o(i.dbg_task_switch)
    isrMessageGet                            0x000046a1   Thumb Code    42  rt_cmsis.o(i.isrMessageGet)
    isrMessagePut                            0x000046cb   Thumb Code    44  rt_cmsis.o(i.isrMessagePut)
    isr_mbx_receive                          0x000046f9   Thumb Code    86  rt_mailbox.o(i.isr_mbx_receive)
    isr_mbx_send                             0x0000474f   Thumb Code    14  rt_mailbox.o(i.isr_mbx_send)
    osDelay                                  0x0000475d   Thumb Code    18  rt_cmsis.o(i.osDelay)
    osKernelInitialize                       0x00004775   Thumb Code    30  rt_cmsis.o(i.osKernelInitialize)
    osKernelStart                            0x00004799   Thumb Code    98  rt_cmsis.o(i.osKernelStart)
    osMailAlloc                              0x00004805   Thumb Code    22  rt_cmsis.o(i.osMailAlloc)
    osMailCreate                             0x00004821   Thumb Code    36  rt_cmsis.o(i.osMailCreate)
    osMailFree                               0x0000484d   Thumb Code    22  rt_cmsis.o(i.osMailFree)
    osMailGet                                0x00004869   Thumb Code    22  rt_cmsis.o(i.osMailGet)
    osMailPut                                0x0000487f   Thumb Code    20  rt_cmsis.o(i.osMailPut)
    osMessageGet                             0x00004895   Thumb Code    18  rt_cmsis.o(i.osMessageGet)
    osMessagePut                             0x000048ad   Thumb Code    18  rt_cmsis.o(i.osMessagePut)
    osMutexCreate                            0x000048c5   Thumb Code    36  rt_cmsis.o(i.osMutexCreate)
    osMutexRelease                           0x000048f1   Thumb Code    18  rt_cmsis.o(i.osMutexRelease)
    osMutexWait                              0x00004909   Thumb Code    18  rt_cmsis.o(i.osMutexWait)
    osThreadCreate                           0x00004921   Thumb Code    36  rt_cmsis.o(i.osThreadCreate)
    osThreadExit                             0x0000494d   Thumb Code    14  rt_cmsis.o(i.osThreadExit)
    osTimerCall                              0x00004965   Thumb Code     8  rt_cmsis.o(i.osTimerCall)
    osTimerThread                            0x00004971   Thumb Code    38  rt_cmsis.o(i.osTimerThread)
    os_tick_init                             0x0000499d   Thumb Code    32  rt_system.o(i.os_tick_init)
    os_tick_irqack                           0x000049c5   Thumb Code     2  rt_system.o(i.os_tick_irqack)
    rt_alloc_box                             0x000049c7   Thumb Code    26  rt_membox.o(i.rt_alloc_box)
    rt_alloc_mem                             0x000049e1   Thumb Code    62  rt_memory.o(i.rt_alloc_mem)
    rt_block                                 0x00004a21   Thumb Code    48  rt_task.o(i.rt_block)
    rt_chk_robin                             0x00004a59   Thumb Code    60  rt_robin.o(i.rt_chk_robin)
    rt_dec_dly                               0x00004aa1   Thumb Code   102  rt_list.o(i.rt_dec_dly)
    rt_dispatch                              0x00004b11   Thumb Code    60  rt_task.o(i.rt_dispatch)
    rt_dly_wait                              0x00004b55   Thumb Code     6  rt_time.o(i.rt_dly_wait)
    rt_evt_psh                               0x00004b5d   Thumb Code    76  rt_event.o(i.rt_evt_psh)
    rt_free_box                              0x00004bad   Thumb Code    44  rt_membox.o(i.rt_free_box)
    rt_free_mem                              0x00004bd9   Thumb Code    40  rt_memory.o(i.rt_free_mem)
    rt_get_first                             0x00004c01   Thumb Code    40  rt_list.o(i.rt_get_first)
    rt_init_mem                              0x00004c79   Thumb Code    26  rt_memory.o(i.rt_init_mem)
    rt_init_robin                            0x00004c95   Thumb Code    14  rt_robin.o(i.rt_init_robin)
    rt_init_stack                            0x00004cad   Thumb Code   118  hal_cm.o(i.rt_init_stack)
    rt_mbx_check                             0x00004d2d   Thumb Code     8  rt_mailbox.o(i.rt_mbx_check)
    rt_mbx_init                              0x00004d35   Thumb Code    26  rt_mailbox.o(i.rt_mbx_init)
    rt_mbx_psh                               0x00004d51   Thumb Code   236  rt_mailbox.o(i.rt_mbx_psh)
    rt_mbx_send                              0x00004e41   Thumb Code   148  rt_mailbox.o(i.rt_mbx_send)
    rt_mbx_wait                              0x00004ed9   Thumb Code   174  rt_mailbox.o(i.rt_mbx_wait)
    rt_mut_init                              0x00004fd1   Thumb Code    16  rt_mutex.o(i.rt_mut_init)
    rt_mut_release                           0x00004fe1   Thumb Code   208  rt_mutex.o(i.rt_mut_release)
    rt_mut_wait                              0x000050b9   Thumb Code   114  rt_mutex.o(i.rt_mut_wait)
    rt_pop_req                               0x00005131   Thumb Code   112  rt_system.o(i.rt_pop_req)
    rt_psh_req                               0x000051ad   Thumb Code    22  rt_system.o(i.rt_psh_req)
    rt_psq_enq                               0x000051cd   Thumb Code    88  rt_list.o(i.rt_psq_enq)
    rt_put_dly                               0x00005229   Thumb Code    68  rt_list.o(i.rt_put_dly)
    rt_put_prio                              0x00005271   Thumb Code    54  rt_list.o(i.rt_put_prio)
    rt_put_rdy_first                         0x000052a9   Thumb Code    14  rt_list.o(i.rt_put_rdy_first)
    rt_resort_prio                           0x000052bd   Thumb Code    46  rt_list.o(i.rt_resort_prio)
    rt_ret_val                               0x00005301   Thumb Code    12  hal_cm.o(i.rt_ret_val)
    rt_ret_val2                              0x0000530d   Thumb Code    16  hal_cm.o(i.rt_ret_val2)
    rt_rmv_dly                               0x0000531d   Thumb Code    40  rt_list.o(i.rt_rmv_dly)
    rt_rmv_list                              0x00005345   Thumb Code    44  rt_list.o(i.rt_rmv_list)
    rt_sem_psh                               0x00005375   Thumb Code    48  rt_semaphore.o(i.rt_sem_psh)
    rt_stk_check                             0x000053a9   Thumb Code    28  rt_system.o(i.rt_stk_check)
    rt_switch_req                            0x000053cd   Thumb Code    30  rt_task.o(i.rt_switch_req)
    rt_sys_init                              0x000053f5   Thumb Code   138  rt_task.o(i.rt_sys_init)
    rt_sys_start                             0x000054c1   Thumb Code   110  rt_task.o(i.rt_sys_start)
    rt_systick                               0x00005539   Thumb Code    50  rt_system.o(i.rt_systick)
    rt_tsk_create                            0x000055c1   Thumb Code   118  rt_task.o(i.rt_tsk_create)
    rt_tsk_delete                            0x00005649   Thumb Code   352  rt_task.o(i.rt_tsk_delete)
    rt_tsk_prio                              0x000057c5   Thumb Code   108  rt_task.o(i.rt_tsk_prio)
    rt_tsk_self                              0x00005841   Thumb Code    12  rt_task.o(i.rt_tsk_self)
    svcDelay                                 0x00005851   Thumb Code    18  rt_cmsis.o(i.svcDelay)
    svcKernelInitialize                      0x00005865   Thumb Code    80  rt_cmsis.o(i.svcKernelInitialize)
    svcKernelStart                           0x000058d5   Thumb Code    62  rt_cmsis.o(i.svcKernelStart)
    svcMailCreate                            0x0000591d   Thumb Code    66  rt_cmsis.o(i.svcMailCreate)
    svcMessageCreate                         0x0000595f   Thumb Code    36  rt_cmsis.o(i.svcMessageCreate)
    svcMessageGet                            0x00005983   Thumb Code    58  rt_cmsis.o(i.svcMessageGet)
    svcMessagePut                            0x000059bd   Thumb Code    54  rt_cmsis.o(i.svcMessagePut)
    svcMutexCreate                           0x000059f3   Thumb Code    28  rt_cmsis.o(i.svcMutexCreate)
    svcMutexRelease                          0x00005a0f   Thumb Code    34  rt_cmsis.o(i.svcMutexRelease)
    svcMutexWait                             0x00005a31   Thumb Code    58  rt_cmsis.o(i.svcMutexWait)
    svcThreadCreate                          0x00005a6d   Thumb Code    96  rt_cmsis.o(i.svcThreadCreate)
    svcThreadGetId                           0x00005ad9   Thumb Code    22  rt_cmsis.o(i.svcThreadGetId)
    svcThreadTerminate                       0x00005af5   Thumb Code    50  rt_cmsis.o(i.svcThreadTerminate)
    svcTimerCall                             0x00005b2d   Thumb Code    24  rt_cmsis.o(i.svcTimerCall)
    sysMailAlloc                             0x00005b45   Thumb Code    84  rt_cmsis.o(i.sysMailAlloc)
    sysMailFree                              0x00005b9d   Thumb Code    96  rt_cmsis.o(i.sysMailFree)
    sysTimerTick                             0x00005bfd   Thumb Code    84  rt_cmsis.o(i.sysTimerTick)
    __aeabi_d2f                              0x00005c59   Thumb Code     0  d2f.o(x$fpl$d2f)
    _d2f                                     0x00005c59   Thumb Code    98  d2f.o(x$fpl$d2f)
    __aeabi_dadd                             0x00005cbd   Thumb Code     0  daddsub_clz.o(x$fpl$dadd)
    _dadd                                    0x00005cbd   Thumb Code   332  daddsub_clz.o(x$fpl$dadd)
    __aeabi_ddiv                             0x00005e0d   Thumb Code     0  ddiv.o(x$fpl$ddiv)
    _ddiv                                    0x00005e0d   Thumb Code   552  ddiv.o(x$fpl$ddiv)
    __aeabi_i2d                              0x000060bd   Thumb Code     0  dflt_clz.o(x$fpl$dflt)
    _dflt                                    0x000060bd   Thumb Code    46  dflt_clz.o(x$fpl$dflt)
    __aeabi_ui2d                             0x000060eb   Thumb Code     0  dflt_clz.o(x$fpl$dfltu)
    _dfltu                                   0x000060eb   Thumb Code    38  dflt_clz.o(x$fpl$dfltu)
    __aeabi_dmul                             0x00006111   Thumb Code     0  dmul.o(x$fpl$dmul)
    _dmul                                    0x00006111   Thumb Code   332  dmul.o(x$fpl$dmul)
    __fpl_dnaninf                            0x00006265   Thumb Code   156  dnaninf.o(x$fpl$dnaninf)
    __fpl_dretinf                            0x00006301   Thumb Code    12  dretinf.o(x$fpl$dretinf)
    __aeabi_dsub                             0x0000630d   Thumb Code     0  daddsub_clz.o(x$fpl$dsub)
    _dsub                                    0x0000630d   Thumb Code   464  daddsub_clz.o(x$fpl$dsub)
    __aeabi_f2d                              0x000064e1   Thumb Code     0  f2d.o(x$fpl$f2d)
    _f2d                                     0x000064e1   Thumb Code    86  f2d.o(x$fpl$f2d)
    __fpl_fnaninf                            0x00006537   Thumb Code   140  fnaninf.o(x$fpl$fnaninf)
    _fp_init                                 0x000065c3   Thumb Code    10  fpinit.o(x$fpl$fpinit)
    __fplib_config_fpu_vfp                   0x000065cb   Thumb Code     0  fpinit.o(x$fpl$fpinit)
    __fplib_config_pureend_doubles           0x000065cb   Thumb Code     0  fpinit.o(x$fpl$fpinit)
    __fpl_fretinf                            0x000065cd   Thumb Code    10  fretinf.o(x$fpl$fretinf)
    __aeabi_f2lz                             0x000065d9   Thumb Code     0  ffixll.o(x$fpl$llsfromf)
    _ll_sfrom_f                              0x000065d9   Thumb Code   134  ffixll.o(x$fpl$llsfromf)
    __I$use$fp                               0x0000665e   Number         0  usenofp.o(x$fpl$usenofp)
    os_mutex_def_m_display                   0x00006660   Data           4  blinky.o(.constdata)
    os_mutex_def_m_adc                       0x00006664   Data           4  blinky.o(.constdata)
    os_mutex_def_m_i2c                       0x00006668   Data           4  blinky.o(.constdata)
    os_thread_def_t_buzzer                   0x0000666c   Data          16  blinky.o(.constdata)
    os_thread_def_t_rgb                      0x0000667c   Data          16  blinky.o(.constdata)
    os_thread_def_t_mic                      0x0000668c   Data          16  blinky.o(.constdata)
    os_thread_def_t_light                    0x0000669c   Data          16  blinky.o(.constdata)
    os_thread_def_t_temp                     0x000066ac   Data          16  blinky.o(.constdata)
    os_thread_def_t_servo                    0x000066bc   Data          16  blinky.o(.constdata)
    os_thread_def_t_accel                    0x000066cc   Data          16  blinky.o(.constdata)
    os_mailQ_def_mq_accel_to_rgb             0x000066dc   Data          12  blinky.o(.constdata)
    os_mailQ_def_mq_joy_to_rgb               0x000066e8   Data          12  blinky.o(.constdata)
    os_mailQ_def_mq_joy_to_servo             0x000066f4   Data          12  blinky.o(.constdata)
    g_sCfaf128x128x16                        0x00006700   Data          40  cfaf128x128x16.o(.constdata)
    led_mask                                 0x00006728   Data          16  led.o(.constdata)
    os_maxtaskrun                            0x00006738   Data           2  rtx_conf_cm.o(.constdata)
    os_stackinfo                             0x0000673c   Data           4  rtx_conf_cm.o(.constdata)
    os_rrobin                                0x00006740   Data           4  rtx_conf_cm.o(.constdata)
    os_trv                                   0x00006744   Data           4  rtx_conf_cm.o(.constdata)
    os_flags                                 0x00006748   Data           1  rtx_conf_cm.o(.constdata)
    CMSIS_RTOS_API_Version                   0x0000674c   Data           4  rtx_conf_cm.o(.constdata)
    CMSIS_RTOS_RTX_Version                   0x00006750   Data           4  rtx_conf_cm.o(.constdata)
    os_clockrate                             0x00006754   Data           4  rtx_conf_cm.o(.constdata)
    os_timernum                              0x00006758   Data           4  rtx_conf_cm.o(.constdata)
    mp_tcb_size                              0x0000675c   Data           2  rtx_conf_cm.o(.constdata)
    mp_stk_size                              0x00006760   Data           4  rtx_conf_cm.o(.constdata)
    os_stack_sz                              0x00006764   Data           4  rtx_conf_cm.o(.constdata)
    os_fifo_size                             0x00006768   Data           1  rtx_conf_cm.o(.constdata)
    os_thread_def_osTimerThread              0x0000676c   Data          16  rtx_conf_cm.o(.constdata)
    os_messageQ_def_osTimerMessageQ          0x0000677c   Data           8  rtx_conf_cm.o(.constdata)
    mp_tmr_size                              0x00006784   Data           2  rtx_conf_cm.o(.constdata)
    os_thread_def_main                       0x00006788   Data          16  rtx_conf_cm.o(.constdata)
    g_psDefaultCodePointMapTable             0x00006da0   Data          16  context.o(.constdata)
    g_sFontFixed6x8                          0x000070a8   Data         200  fontfixed6x8.o(.constdata)
    Region$$Table$$Base                      0x00007198   Number         0  anon$$obj.o(Region$$Table)
    Region$$Table$$Limit                     0x000071b8   Number         0  anon$$obj.o(Region$$Table)
    os_mailQ_p_mq_accel_to_rgb               0x20000000   Data           8  blinky.o(.data)
    os_mailQ_p_mq_joy_to_rgb                 0x20000008   Data           8  blinky.o(.data)
    os_mailQ_p_mq_joy_to_servo               0x20000010   Data           8  blinky.o(.data)
    tid_buzzer                               0x20000020   Data           4  blinky.o(.data)
    tid_servo                                0x20000024   Data           4  blinky.o(.data)
    tid_rgb                                  0x20000028   Data           4  blinky.o(.data)
    tid_accel                                0x2000002c   Data           4  blinky.o(.data)
    tid_temp                                 0x20000030   Data           4  blinky.o(.data)
    tid_light                                0x20000034   Data           4  blinky.o(.data)
    tid_mic                                  0x20000038   Data           4  blinky.o(.data)
    mid_display                              0x2000003c   Data           4  blinky.o(.data)
    mid_adc                                  0x20000040   Data           4  blinky.o(.data)
    mid_i2c                                  0x20000044   Data           4  blinky.o(.data)
    mqid_accel_to_rgb                        0x20000048   Data           4  blinky.o(.data)
    mqid_joy_to_rgb                          0x2000004c   Data           4  blinky.o(.data)
    mqid_joy_to_servo                        0x20000050   Data           4  blinky.o(.data)
    m_tmr                                    0x20000090   Data           4  rtx_conf_cm.o(.data)
    osThreadId_osTimerThread                 0x20000094   Data           4  rtx_conf_cm.o(.data)
    osMessageQId_osTimerMessageQ             0x20000098   Data           4  rtx_conf_cm.o(.data)
    SystemCoreClock                          0x200000a0   Data           4  system_tm4c129.o(.data)
    os_initialized                           0x200000a8   Data           1  rt_cmsis.o(.data)
    os_running                               0x200000a9   Data           1  rt_cmsis.o(.data)
    os_timer_head                            0x200000ac   Data           4  rt_cmsis.o(.data)
    os_tsk                                   0x200000b0   Data           8  rt_task.o(.data)
    os_tick_irqn                             0x200000bc   Data           4  rt_system.o(.data)
    os_time                                  0x200000c0   Data           4  rt_time.o(.data)
    os_robin                                 0x200000c4   Data           8  rt_robin.o(.data)
    dbg_msg                                  0x200000cc   Data           1  hal_cm.o(.data)
    os_mutex_cb_m_display                    0x2000066c   Data          16  blinky.o(.bss)
    os_mutex_cb_m_adc                        0x2000067c   Data          16  blinky.o(.bss)
    os_mutex_cb_m_i2c                        0x2000068c   Data          16  blinky.o(.bss)
    os_mailQ_q_mq_accel_to_rgb               0x2000069c   Data          80  blinky.o(.bss)
    os_mailQ_q_mq_joy_to_rgb                 0x200006ec   Data          80  blinky.o(.bss)
    os_mailQ_q_mq_joy_to_servo               0x2000073c   Data          80  blinky.o(.bss)
    sContext                                 0x2000078c   Data          44  blinky.o(.bss)
    os_mailQ_m_mq_accel_to_rgb               0x200007b8   Data         140  blinky.o(.bss)
    os_mailQ_m_mq_joy_to_rgb                 0x20000844   Data         140  blinky.o(.bss)
    os_mailQ_m_mq_joy_to_servo               0x200008d0   Data         140  blinky.o(.bss)
    os_messageQ_q_osTimerMessageQ            0x2000095c   Data          32  rtx_conf_cm.o(.bss)
    mp_tcb                                   0x2000097c   Data         480  rtx_conf_cm.o(.bss)
    mp_stk                                   0x20000b60   Data        6416  rtx_conf_cm.o(.bss)
    os_stack_mem                             0x20002470   Data        1032  rtx_conf_cm.o(.bss)
    os_fifo                                  0x20002878   Data         132  rtx_conf_cm.o(.bss)
    os_active_TCB                            0x200028fc   Data          36  rtx_conf_cm.o(.bss)
    os_idle_TCB                              0x20002d00   Data          52  rt_task.o(.bss)
    os_rdy                                   0x20002d34   Data          24  rt_list.o(.bss)
    os_dly                                   0x20002d4c   Data          24  rt_list.o(.bss)
    __libspace_start                         0x20002d64   Data          96  libspace.o(.bss)
    __temporary_stack_top$libspace           0x20002dc4   Data           0  libspace.o(.bss)



==============================================================================

Memory Map of the image

  Image Entry point : 0x00000201

  Load Region LR_IROM1 (Base: 0x00000000, Size: 0x00007824, Max: 0x00100000, ABSOLUTE, COMPRESSED[0x000071e4])

    Execution Region ER_IROM1 (Exec base: 0x00000000, Load base: 0x00000000, Size: 0x000071b8, Max: 0x00100000, ABSOLUTE)

    Exec Addr    Load Addr    Size         Type   Attr      Idx    E Section Name        Object

    0x00000000   0x00000000   0x00000200   Data   RO          416    RESET               startup_tm4c129.o
    0x00000200   0x00000200   0x00000008   Code   RO         3954  * !!!main             c_w.l(__main.o)
    0x00000208   0x00000208   0x00000034   Code   RO         4152    !!!scatter          c_w.l(__scatter.o)
    0x0000023c   0x0000023c   0x0000005a   Code   RO         4150    !!dczerorl2         c_w.l(__dczerorl2.o)
    0x00000296   0x00000296   0x00000002   PAD
    0x00000298   0x00000298   0x0000001c   Code   RO         4154    !!handler_zi        c_w.l(__scatter_zi.o)
    0x000002b4   0x000002b4   0x00000002   Code   RO         4036    .ARM.Collect$$libinit$$00000000  c_w.l(libinit.o)
    0x000002b6   0x000002b6   0x00000004   Code   RO         4047    .ARM.Collect$$libinit$$00000001  c_w.l(libinit2.o)
    0x000002ba   0x000002ba   0x00000000   Code   RO         4050    .ARM.Collect$$libinit$$00000004  c_w.l(libinit2.o)
    0x000002ba   0x000002ba   0x00000000   Code   RO         4053    .ARM.Collect$$libinit$$0000000A  c_w.l(libinit2.o)
    0x000002ba   0x000002ba   0x00000000   Code   RO         4055    .ARM.Collect$$libinit$$0000000C  c_w.l(libinit2.o)
    0x000002ba   0x000002ba   0x00000000   Code   RO         4057    .ARM.Collect$$libinit$$0000000E  c_w.l(libinit2.o)
    0x000002ba   0x000002ba   0x00000000   Code   RO         4060    .ARM.Collect$$libinit$$00000011  c_w.l(libinit2.o)
    0x000002ba   0x000002ba   0x00000000   Code   RO         4062    .ARM.Collect$$libinit$$00000013  c_w.l(libinit2.o)
    0x000002ba   0x000002ba   0x00000000   Code   RO         4064    .ARM.Collect$$libinit$$00000015  c_w.l(libinit2.o)
    0x000002ba   0x000002ba   0x00000000   Code   RO         4066    .ARM.Collect$$libinit$$00000017  c_w.l(libinit2.o)
    0x000002ba   0x000002ba   0x00000000   Code   RO         4068    .ARM.Collect$$libinit$$00000019  c_w.l(libinit2.o)
    0x000002ba   0x000002ba   0x00000000   Code   RO         4070    .ARM.Collect$$libinit$$0000001B  c_w.l(libinit2.o)
    0x000002ba   0x000002ba   0x00000000   Code   RO         4072    .ARM.Collect$$libinit$$0000001D  c_w.l(libinit2.o)
    0x000002ba   0x000002ba   0x00000000   Code   RO         4074    .ARM.Collect$$libinit$$0000001F  c_w.l(libinit2.o)
    0x000002ba   0x000002ba   0x00000000   Code   RO         4076    .ARM.Collect$$libinit$$00000021  c_w.l(libinit2.o)
    0x000002ba   0x000002ba   0x00000000   Code   RO         4078    .ARM.Collect$$libinit$$00000023  c_w.l(libinit2.o)
    0x000002ba   0x000002ba   0x00000000   Code   RO         4080    .ARM.Collect$$libinit$$00000025  c_w.l(libinit2.o)
    0x000002ba   0x000002ba   0x00000000   Code   RO         4084    .ARM.Collect$$libinit$$0000002C  c_w.l(libinit2.o)
    0x000002ba   0x000002ba   0x00000000   Code   RO         4086    .ARM.Collect$$libinit$$0000002E  c_w.l(libinit2.o)
    0x000002ba   0x000002ba   0x00000000   Code   RO         4088    .ARM.Collect$$libinit$$00000030  c_w.l(libinit2.o)
    0x000002ba   0x000002ba   0x00000000   Code   RO         4090    .ARM.Collect$$libinit$$00000032  c_w.l(libinit2.o)
    0x000002ba   0x000002ba   0x00000002   Code   RO         4091    .ARM.Collect$$libinit$$00000033  c_w.l(libinit2.o)
    0x000002bc   0x000002bc   0x00000002   Code   RO         4037    .ARM.Collect$$libshutdown$$00000000  c_w.l(libshutdown.o)
    0x000002be   0x000002be   0x00000000   Code   RO         4093    .ARM.Collect$$libshutdown$$00000002  c_w.l(libshutdown2.o)
    0x000002be   0x000002be   0x00000000   Code   RO         4095    .ARM.Collect$$libshutdown$$00000004  c_w.l(libshutdown2.o)
    0x000002be   0x000002be   0x00000000   Code   RO         4098    .ARM.Collect$$libshutdown$$00000007  c_w.l(libshutdown2.o)
    0x000002be   0x000002be   0x00000000   Code   RO         4101    .ARM.Collect$$libshutdown$$0000000A  c_w.l(libshutdown2.o)
    0x000002be   0x000002be   0x00000000   Code   RO         4103    .ARM.Collect$$libshutdown$$0000000C  c_w.l(libshutdown2.o)
    0x000002be   0x000002be   0x00000000   Code   RO         4106    .ARM.Collect$$libshutdown$$0000000F  c_w.l(libshutdown2.o)
    0x000002be   0x000002be   0x00000002   Code   RO         4107    .ARM.Collect$$libshutdown$$00000010  c_w.l(libshutdown2.o)
    0x000002c0   0x000002c0   0x00000000   Code   RO         3982    .ARM.Collect$$rtentry$$00000000  c_w.l(__rtentry.o)
    0x000002c0   0x000002c0   0x00000000   Code   RO         3999    .ARM.Collect$$rtentry$$00000002  c_w.l(__rtentry2.o)
    0x000002c0   0x000002c0   0x00000006   Code   RO         4011    .ARM.Collect$$rtentry$$00000004  c_w.l(__rtentry4.o)
    0x000002c6   0x000002c6   0x00000000   Code   RO         4001    .ARM.Collect$$rtentry$$00000009  c_w.l(__rtentry2.o)
    0x000002c6   0x000002c6   0x00000004   Code   RO         4002    .ARM.Collect$$rtentry$$0000000A  c_w.l(__rtentry2.o)
    0x000002ca   0x000002ca   0x00000008   Code   RO         4003    .ARM.Collect$$rtentry$$0000000B  c_w.l(__rtentry2.o)
    0x000002d2   0x000002d2   0x00000008   Code   RO         4005    .ARM.Collect$$rtentry$$0000000D  c_w.l(__rtentry2.o)
    0x000002da   0x000002da   0x00000002   Code   RO         3983    .ARM.Collect$$rtexit$$00000000  c_w.l(rtexit.o)
    0x000002dc   0x000002dc   0x00000000   Code   RO         4014    .ARM.Collect$$rtexit$$00000002  c_w.l(rtexit2.o)
    0x000002dc   0x000002dc   0x00000004   Code   RO         4015    .ARM.Collect$$rtexit$$00000003  c_w.l(rtexit2.o)
    0x000002e0   0x000002e0   0x00000006   Code   RO         4016    .ARM.Collect$$rtexit$$00000004  c_w.l(rtexit2.o)
    0x000002e6   0x000002e6   0x00000002   PAD
    0x000002e8   0x000002e8   0x0000001c   Code   RO          360    .emb_text           rtx_conf_cm.o
    0x00000304   0x00000304   0x00000006   Code   RO         1722    .emb_text           driverlib.lib(sysctl.o)
    0x0000030a   0x0000030a   0x00000002   PAD
    0x0000030c   0x0000030c   0x00000198   Code   RO         3928    .emb_text           RTX_CM4.lib(hal_cm4.o)
    0x000004a4   0x000004a4   0x00000fb8   Code   RO            4    .text               blinky.o
    0x0000145c   0x0000145c   0x00000154   Code   RO          120    .text               buzzer.o
    0x000015b0   0x000015b0   0x000000a4   Code   RO          158    .text               accel.o
    0x00001654   0x00001654   0x0000005c   Code   RO          176    .text               buttons.o
    0x000016b0   0x000016b0   0x000006fc   Code   RO          191    .text               cfaf128x128x16.o
    0x00001dac   0x00001dac   0x0000011c   Code   RO          231    .text               led.o
    0x00001ec8   0x00001ec8   0x00000094   Code   RO          258    .text               mic.o
    0x00001f5c   0x00001f5c   0x00000570   Code   RO          270    .text               opt.o
    0x000024cc   0x000024cc   0x00000254   Code   RO          299    .text               rgb.o
    0x00002720   0x00002720   0x000000e4   Code   RO          313    .text               servo.o
    0x00002804   0x00002804   0x000000d0   Code   RO          330    .text               joy.o
    0x000028d4   0x000028d4   0x00000524   Code   RO          342    .text               temp.o
    0x00002df8   0x00002df8   0x0000008c   Code   RO          361    .text               rtx_conf_cm.o
    0x00002e84   0x00002e84   0x0000012c   Code   RO          417    .text               startup_tm4c129.o
    0x00002fb0   0x00002fb0   0x00000028   Code   RO          424    .text               system_tm4c129.o
    0x00002fd8   0x00002fd8   0x00000008   Code   RO         3943    .text               c_w.l(libspace.o)
    0x00002fe0   0x00002fe0   0x000000ee   Code   RO         3946    .text               c_w.l(lludivv7m.o)
    0x000030ce   0x000030ce   0x00000048   Code   RO         3948    .text               c_w.l(llsdiv.o)
    0x00003116   0x00003116   0x00000012   Code   RO         3950    .text               c_w.l(exit.o)
    0x00003128   0x00003128   0x00000006   Code   RO         3952    .text               c_w.l(heapauxi.o)
    0x0000312e   0x0000312e   0x00000002   PAD
    0x00003130   0x00003130   0x0000000c   Code   RO         4022    .text               c_w.l(sys_exit.o)
    0x0000313c   0x0000313c   0x0000004a   Code   RO         4024    .text               c_w.l(sys_stackheap_outer.o)
    0x00003186   0x00003186   0x00000002   Code   RO         4038    .text               c_w.l(use_no_semi.o)
    0x00003188   0x00003188   0x00000000   Code   RO         4040    .text               c_w.l(indicate_semi.o)
    0x00003188   0x00003188   0x00000004   Code   RO         3938    SVC_TABLE           RTX_CM4.lib(svc_table.o)
    0x0000318c   0x0000318c   0x0000000a   Code   RO          462    i.ADCIntClear       driverlib.lib(adc.o)
    0x00003196   0x00003196   0x00000034   Code   RO          469    i.ADCIntStatus      driverlib.lib(adc.o)
    0x000031ca   0x000031ca   0x0000001a   Code   RO          474    i.ADCProcessorTrigger  driverlib.lib(adc.o)
    0x000031e4   0x000031e4   0x00000060   Code   RO          477    i.ADCSequenceConfigure  driverlib.lib(adc.o)
    0x00003244   0x00003244   0x00000024   Code   RO          480    i.ADCSequenceDataGet  driverlib.lib(adc.o)
    0x00003268   0x00003268   0x0000000e   Code   RO          482    i.ADCSequenceEnable  driverlib.lib(adc.o)
    0x00003276   0x00003276   0x0000009a   Code   RO          485    i.ADCSequenceStepConfigure  driverlib.lib(adc.o)
    0x00003310   0x00003310   0x00000028   Code   RO          734    i.GPIODirModeSet    driverlib.lib(gpio.o)
    0x00003338   0x00003338   0x00000138   Code   RO          746    i.GPIOPadConfigSet  driverlib.lib(gpio.o)
    0x00003470   0x00003470   0x00000044   Code   RO          747    i.GPIOPinConfigure  driverlib.lib(gpio.o)
    0x000034b4   0x000034b4   0x00000006   Code   RO          748    i.GPIOPinRead       driverlib.lib(gpio.o)
    0x000034ba   0x000034ba   0x0000001c   Code   RO          749    i.GPIOPinTypeADC    driverlib.lib(gpio.o)
    0x000034d6   0x000034d6   0x0000001c   Code   RO          757    i.GPIOPinTypeGPIOInput  driverlib.lib(gpio.o)
    0x000034f2   0x000034f2   0x0000001c   Code   RO          761    i.GPIOPinTypeI2C    driverlib.lib(gpio.o)
    0x0000350e   0x0000350e   0x0000001c   Code   RO          762    i.GPIOPinTypeI2CSCL  driverlib.lib(gpio.o)
    0x0000352a   0x0000352a   0x0000001c   Code   RO          765    i.GPIOPinTypePWM    driverlib.lib(gpio.o)
    0x00003546   0x00003546   0x0000001c   Code   RO          768    i.GPIOPinTypeTimer  driverlib.lib(gpio.o)
    0x00003562   0x00003562   0x00000202   Code   RO         2312    i.GrCircleDraw      grlib.lib(circle.o)
    0x00003764   0x00003764   0x00000126   Code   RO         2313    i.GrCircleFill      grlib.lib(circle.o)
    0x0000388a   0x0000388a   0x00000006   Code   RO         2410    i.GrContextFontSet  grlib.lib(string.o)
    0x00003890   0x00003890   0x00000064   Code   RO         2338    i.GrContextInit     grlib.lib(context.o)
    0x000038f4   0x000038f4   0x00000118   Code   RO         2411    i.GrDefaultStringRenderer  grlib.lib(string.o)
    0x00003a0c   0x00003a0c   0x000000a6   Code   RO         2415    i.GrFontGlyphDataGet  grlib.lib(string.o)
    0x00003ab2   0x00003ab2   0x00000288   Code   RO         2416    i.GrFontGlyphRender  grlib.lib(string.o)
    0x00003d3a   0x00003d3a   0x0000004c   Code   RO         3446    i.GrLineDrawH       grlib.lib(line.o)
    0x00003d86   0x00003d86   0x00000008   Code   RO         3293    i.GrMapISO8859_1_Unicode  grlib.lib(charmap.o)
    0x00003d8e   0x00003d8e   0x000000b4   Code   RO         2380    i.GrRectFill        grlib.lib(rectangle.o)
    0x00003e42   0x00003e42   0x00000020   Code   RO         2422    i.GrStringDraw      grlib.lib(string.o)
    0x00003e62   0x00003e62   0x00000002   PAD
    0x00003e64   0x00003e64   0x00000060   Code   RO         1041    i.I2CIntRegister    driverlib.lib(i2c.o)
    0x00003ec4   0x00003ec4   0x00000004   Code   RO         1045    i.I2CMasterBurstLengthSet  driverlib.lib(i2c.o)
    0x00003ec8   0x00003ec8   0x0000000c   Code   RO         1046    i.I2CMasterBusBusy  driverlib.lib(i2c.o)
    0x00003ed4   0x00003ed4   0x0000000c   Code   RO         1047    i.I2CMasterBusy     driverlib.lib(i2c.o)
    0x00003ee0   0x00003ee0   0x00000004   Code   RO         1048    i.I2CMasterControl  driverlib.lib(i2c.o)
    0x00003ee4   0x00003ee4   0x00000004   Code   RO         1049    i.I2CMasterDataGet  driverlib.lib(i2c.o)
    0x00003ee8   0x00003ee8   0x00000004   Code   RO         1050    i.I2CMasterDataPut  driverlib.lib(i2c.o)
    0x00003eec   0x00003eec   0x0000000a   Code   RO         1052    i.I2CMasterEnable   driverlib.lib(i2c.o)
    0x00003ef6   0x00003ef6   0x00000018   Code   RO         1053    i.I2CMasterErr      driverlib.lib(i2c.o)
    0x00003f0e   0x00003f0e   0x00000002   PAD
    0x00003f10   0x00003f10   0x00000054   Code   RO         1054    i.I2CMasterGlitchFilterConfigSet  driverlib.lib(i2c.o)
    0x00003f64   0x00003f64   0x00000054   Code   RO         1055    i.I2CMasterInitExpClk  driverlib.lib(i2c.o)
    0x00003fb8   0x00003fb8   0x00000008   Code   RO         1056    i.I2CMasterIntClear  driverlib.lib(i2c.o)
    0x00003fc0   0x00003fc0   0x00000004   Code   RO         1057    i.I2CMasterIntClearEx  driverlib.lib(i2c.o)
    0x00003fc4   0x00003fc4   0x00000008   Code   RO         1061    i.I2CMasterIntEnableEx  driverlib.lib(i2c.o)
    0x00003fcc   0x00003fcc   0x00000008   Code   RO         1065    i.I2CMasterSlaveAddrSet  driverlib.lib(i2c.o)
    0x00003fd4   0x00003fd4   0x00000004   Code   RO         1066    i.I2CMasterTimeoutSet  driverlib.lib(i2c.o)
    0x00003fd8   0x00003fd8   0x00000064   Code   RO         1374    i.IntEnable         driverlib.lib(interrupt.o)
    0x0000403c   0x0000403c   0x00000034   Code   RO         1386    i.IntRegister       driverlib.lib(interrupt.o)
    0x00004070   0x00004070   0x00000014   Code   RO         1490    i.PWMClockSet       driverlib.lib(pwm.o)
    0x00004084   0x00004084   0x00000026   Code   RO         1497    i.PWMGenConfigure   driverlib.lib(pwm.o)
    0x000040aa   0x000040aa   0x0000000a   Code   RO         1498    i.PWMGenDisable     driverlib.lib(pwm.o)
    0x000040b4   0x000040b4   0x0000000a   Code   RO         1499    i.PWMGenEnable      driverlib.lib(pwm.o)
    0x000040be   0x000040be   0x00000012   Code   RO         1511    i.PWMGenPeriodGet   driverlib.lib(pwm.o)
    0x000040d0   0x000040d0   0x00000012   Code   RO         1512    i.PWMGenPeriodSet   driverlib.lib(pwm.o)
    0x000040e2   0x000040e2   0x00000010   Code   RO         1518    i.PWMOutputInvert   driverlib.lib(pwm.o)
    0x000040f2   0x000040f2   0x00000010   Code   RO         1519    i.PWMOutputState    driverlib.lib(pwm.o)
    0x00004102   0x00004102   0x00000020   Code   RO         1522    i.PWMPulseWidthSet  driverlib.lib(pwm.o)
    0x00004122   0x00004122   0x00000002   PAD
    0x00004124   0x00004124   0x000002ec   Code   RO         1724    i.SysCtlClockFreqSet  driverlib.lib(sysctl.o)
    0x00004410   0x00004410   0x00000028   Code   RO         1756    i.SysCtlPeripheralEnable  driverlib.lib(sysctl.o)
    0x00004438   0x00004438   0x0000002c   Code   RO         1760    i.SysCtlPeripheralReady  driverlib.lib(sysctl.o)
    0x00004464   0x00004464   0x0000003c   Code   RO         1761    i.SysCtlPeripheralReset  driverlib.lib(sysctl.o)
    0x000044a0   0x000044a0   0x00000006   Code   RO         2073    i.TimerClockSourceSet  driverlib.lib(timer.o)
    0x000044a6   0x000044a6   0x00000002   PAD
    0x000044a8   0x000044a8   0x00000060   Code   RO         2074    i.TimerConfigure    driverlib.lib(timer.o)
    0x00004508   0x00004508   0x00000016   Code   RO         2076    i.TimerControlLevel  driverlib.lib(timer.o)
    0x0000451e   0x0000451e   0x0000000e   Code   RO         2083    i.TimerEnable       driverlib.lib(timer.o)
    0x0000452c   0x0000452c   0x00000012   Code   RO         2092    i.TimerLoadSet      driverlib.lib(timer.o)
    0x0000453e   0x0000453e   0x00000012   Code   RO         2096    i.TimerMatchSet     driverlib.lib(timer.o)
    0x00004550   0x00004550   0x00000012   Code   RO         2101    i.TimerPrescaleSet  driverlib.lib(timer.o)
    0x00004562   0x00004562   0x0000002a   Code   RO         2105    i.TimerUpdateMode   driverlib.lib(timer.o)
    0x0000458c   0x0000458c   0x0000006c   Code   RO         2428    i.UpdateContextCharMapping  grlib.lib(string.o)
    0x000045f8   0x000045f8   0x00000046   Code   RO         3822    i._init_box         RTX_CM4.lib(rt_membox.o)
    0x0000463e   0x0000463e   0x00000002   PAD
    0x00004640   0x00004640   0x00000030   Code   RO         3875    i.dbg_init          RTX_CM4.lib(hal_cm.o)
    0x00004670   0x00004670   0x00000020   Code   RO         3876    i.dbg_task_notify   RTX_CM4.lib(hal_cm.o)
    0x00004690   0x00004690   0x00000010   Code   RO         3877    i.dbg_task_switch   RTX_CM4.lib(hal_cm.o)
    0x000046a0   0x000046a0   0x0000002a   Code   RO         2540    i.isrMessageGet     RTX_CM4.lib(rt_cmsis.o)
    0x000046ca   0x000046ca   0x0000002c   Code   RO         2541    i.isrMessagePut     RTX_CM4.lib(rt_cmsis.o)
    0x000046f6   0x000046f6   0x00000002   PAD
    0x000046f8   0x000046f8   0x00000056   Code   RO         3677    i.isr_mbx_receive   RTX_CM4.lib(rt_mailbox.o)
    0x0000474e   0x0000474e   0x0000000e   Code   RO         3678    i.isr_mbx_send      RTX_CM4.lib(rt_mailbox.o)
    0x0000475c   0x0000475c   0x00000018   Code   RO         2544    i.osDelay           RTX_CM4.lib(rt_cmsis.o)
    0x00004774   0x00004774   0x00000024   Code   RO         2545    i.osKernelInitialize  RTX_CM4.lib(rt_cmsis.o)
    0x00004798   0x00004798   0x0000006c   Code   RO         2547    i.osKernelStart     RTX_CM4.lib(rt_cmsis.o)
    0x00004804   0x00004804   0x0000001c   Code   RO         2549    i.osMailAlloc       RTX_CM4.lib(rt_cmsis.o)
    0x00004820   0x00004820   0x0000002c   Code   RO         2551    i.osMailCreate      RTX_CM4.lib(rt_cmsis.o)
    0x0000484c   0x0000484c   0x0000001c   Code   RO         2552    i.osMailFree        RTX_CM4.lib(rt_cmsis.o)
    0x00004868   0x00004868   0x00000016   Code   RO         2553    i.osMailGet         RTX_CM4.lib(rt_cmsis.o)
    0x0000487e   0x0000487e   0x00000014   Code   RO         2554    i.osMailPut         RTX_CM4.lib(rt_cmsis.o)
    0x00004892   0x00004892   0x00000002   PAD
    0x00004894   0x00004894   0x00000018   Code   RO         2556    i.osMessageGet      RTX_CM4.lib(rt_cmsis.o)
    0x000048ac   0x000048ac   0x00000018   Code   RO         2557    i.osMessagePut      RTX_CM4.lib(rt_cmsis.o)
    0x000048c4   0x000048c4   0x0000002c   Code   RO         2558    i.osMutexCreate     RTX_CM4.lib(rt_cmsis.o)
    0x000048f0   0x000048f0   0x00000018   Code   RO         2560    i.osMutexRelease    RTX_CM4.lib(rt_cmsis.o)
    0x00004908   0x00004908   0x00000018   Code   RO         2561    i.osMutexWait       RTX_CM4.lib(rt_cmsis.o)
    0x00004920   0x00004920   0x0000002c   Code   RO         2573    i.osThreadCreate    RTX_CM4.lib(rt_cmsis.o)
    0x0000494c   0x0000494c   0x00000018   Code   RO         2574    i.osThreadExit      RTX_CM4.lib(rt_cmsis.o)
    0x00004964   0x00004964   0x0000000c   Code   RO         2580    i.osTimerCall       RTX_CM4.lib(rt_cmsis.o)
    0x00004970   0x00004970   0x0000002c   Code   RO         2585    i.osTimerThread     RTX_CM4.lib(rt_cmsis.o)
    0x0000499c   0x0000499c   0x00000028   Code   RO         3469    i.os_tick_init      RTX_CM4.lib(rt_system.o)
    0x000049c4   0x000049c4   0x00000002   Code   RO         3470    i.os_tick_irqack    RTX_CM4.lib(rt_system.o)
    0x000049c6   0x000049c6   0x0000001a   Code   RO         3823    i.rt_alloc_box      RTX_CM4.lib(rt_membox.o)
    0x000049e0   0x000049e0   0x0000003e   Code   RO         3851    i.rt_alloc_mem      RTX_CM4.lib(rt_memory.o)
    0x00004a1e   0x00004a1e   0x00000002   PAD
    0x00004a20   0x00004a20   0x00000038   Code   RO         3159    i.rt_block          RTX_CM4.lib(rt_task.o)
    0x00004a58   0x00004a58   0x00000048   Code   RO         3800    i.rt_chk_robin      RTX_CM4.lib(rt_robin.o)
    0x00004aa0   0x00004aa0   0x00000070   Code   RO         3601    i.rt_dec_dly        RTX_CM4.lib(rt_list.o)
    0x00004b10   0x00004b10   0x00000044   Code   RO         3160    i.rt_dispatch       RTX_CM4.lib(rt_task.o)
    0x00004b54   0x00004b54   0x00000006   Code   RO         3767    i.rt_dly_wait       RTX_CM4.lib(rt_time.o)
    0x00004b5a   0x00004b5a   0x00000002   PAD
    0x00004b5c   0x00004b5c   0x00000050   Code   RO         3562    i.rt_evt_psh        RTX_CM4.lib(rt_event.o)
    0x00004bac   0x00004bac   0x0000002c   Code   RO         3824    i.rt_free_box       RTX_CM4.lib(rt_membox.o)
    0x00004bd8   0x00004bd8   0x00000028   Code   RO         3852    i.rt_free_mem       RTX_CM4.lib(rt_memory.o)
    0x00004c00   0x00004c00   0x00000028   Code   RO         3602    i.rt_get_first      RTX_CM4.lib(rt_list.o)
    0x00004c28   0x00004c28   0x00000008   Code   RO         2590    i.rt_id2obj         RTX_CM4.lib(rt_cmsis.o)
    0x00004c30   0x00004c30   0x00000048   Code   RO         3161    i.rt_init_context   RTX_CM4.lib(rt_task.o)
    0x00004c78   0x00004c78   0x0000001a   Code   RO         3853    i.rt_init_mem       RTX_CM4.lib(rt_memory.o)
    0x00004c92   0x00004c92   0x00000002   PAD
    0x00004c94   0x00004c94   0x00000018   Code   RO         3801    i.rt_init_robin     RTX_CM4.lib(rt_robin.o)
    0x00004cac   0x00004cac   0x00000080   Code   RO         3878    i.rt_init_stack     RTX_CM4.lib(hal_cm.o)
    0x00004d2c   0x00004d2c   0x00000008   Code   RO         3679    i.rt_mbx_check      RTX_CM4.lib(rt_mailbox.o)
    0x00004d34   0x00004d34   0x0000001a   Code   RO         3680    i.rt_mbx_init       RTX_CM4.lib(rt_mailbox.o)
    0x00004d4e   0x00004d4e   0x00000002   PAD
    0x00004d50   0x00004d50   0x000000f0   Code   RO         3681    i.rt_mbx_psh        RTX_CM4.lib(rt_mailbox.o)
    0x00004e40   0x00004e40   0x00000098   Code   RO         3682    i.rt_mbx_send       RTX_CM4.lib(rt_mailbox.o)
    0x00004ed8   0x00004ed8   0x000000b4   Code   RO         3683    i.rt_mbx_wait       RTX_CM4.lib(rt_mailbox.o)
    0x00004f8c   0x00004f8c   0x00000044   Code   RO         2591    i.rt_ms2tick        RTX_CM4.lib(rt_cmsis.o)
    0x00004fd0   0x00004fd0   0x00000010   Code   RO         3244    i.rt_mut_init       RTX_CM4.lib(rt_mutex.o)
    0x00004fe0   0x00004fe0   0x000000d8   Code   RO         3245    i.rt_mut_release    RTX_CM4.lib(rt_mutex.o)
    0x000050b8   0x000050b8   0x00000078   Code   RO         3246    i.rt_mut_wait       RTX_CM4.lib(rt_mutex.o)
    0x00005130   0x00005130   0x0000007c   Code   RO         3473    i.rt_pop_req        RTX_CM4.lib(rt_system.o)
    0x000051ac   0x000051ac   0x00000020   Code   RO         3474    i.rt_psh_req        RTX_CM4.lib(rt_system.o)
    0x000051cc   0x000051cc   0x0000005c   Code   RO         3604    i.rt_psq_enq        RTX_CM4.lib(rt_list.o)
    0x00005228   0x00005228   0x00000048   Code   RO         3605    i.rt_put_dly        RTX_CM4.lib(rt_list.o)
    0x00005270   0x00005270   0x00000036   Code   RO         3606    i.rt_put_prio       RTX_CM4.lib(rt_list.o)
    0x000052a6   0x000052a6   0x00000002   PAD
    0x000052a8   0x000052a8   0x00000014   Code   RO         3607    i.rt_put_rdy_first  RTX_CM4.lib(rt_list.o)
    0x000052bc   0x000052bc   0x00000034   Code   RO         3608    i.rt_resort_prio    RTX_CM4.lib(rt_list.o)
    0x000052f0   0x000052f0   0x00000010   Code   RO         3879    i.rt_ret_regs       RTX_CM4.lib(hal_cm.o)
    0x00005300   0x00005300   0x0000000c   Code   RO         3880    i.rt_ret_val        RTX_CM4.lib(hal_cm.o)
    0x0000530c   0x0000530c   0x00000010   Code   RO         3881    i.rt_ret_val2       RTX_CM4.lib(hal_cm.o)
    0x0000531c   0x0000531c   0x00000028   Code   RO         3609    i.rt_rmv_dly        RTX_CM4.lib(rt_list.o)
    0x00005344   0x00005344   0x00000030   Code   RO         3610    i.rt_rmv_list       RTX_CM4.lib(rt_list.o)
    0x00005374   0x00005374   0x00000034   Code   RO         3728    i.rt_sem_psh        RTX_CM4.lib(rt_semaphore.o)
    0x000053a8   0x000053a8   0x00000024   Code   RO         3476    i.rt_stk_check      RTX_CM4.lib(rt_system.o)
    0x000053cc   0x000053cc   0x00000028   Code   RO         3162    i.rt_switch_req     RTX_CM4.lib(rt_task.o)
    0x000053f4   0x000053f4   0x000000cc   Code   RO         3163    i.rt_sys_init       RTX_CM4.lib(rt_task.o)
    0x000054c0   0x000054c0   0x00000078   Code   RO         3164    i.rt_sys_start      RTX_CM4.lib(rt_task.o)
    0x00005538   0x00005538   0x00000040   Code   RO         3478    i.rt_systick        RTX_CM4.lib(rt_system.o)
    0x00005578   0x00005578   0x00000012   Code   RO         2592    i.rt_tid2ptcb       RTX_CM4.lib(rt_cmsis.o)
    0x0000558a   0x0000558a   0x00000002   PAD
    0x0000558c   0x0000558c   0x00000034   Code   RO         2593    i.rt_timer_insert   RTX_CM4.lib(rt_cmsis.o)
    0x000055c0   0x000055c0   0x00000088   Code   RO         3165    i.rt_tsk_create     RTX_CM4.lib(rt_task.o)
    0x00005648   0x00005648   0x0000017c   Code   RO         3166    i.rt_tsk_delete     RTX_CM4.lib(rt_task.o)
    0x000057c4   0x000057c4   0x0000007c   Code   RO         3168    i.rt_tsk_prio       RTX_CM4.lib(rt_task.o)
    0x00005840   0x00005840   0x00000010   Code   RO         3169    i.rt_tsk_self       RTX_CM4.lib(rt_task.o)
    0x00005850   0x00005850   0x00000012   Code   RO         2595    i.svcDelay          RTX_CM4.lib(rt_cmsis.o)
    0x00005862   0x00005862   0x00000002   PAD
    0x00005864   0x00005864   0x00000070   Code   RO         2596    i.svcKernelInitialize  RTX_CM4.lib(rt_cmsis.o)
    0x000058d4   0x000058d4   0x00000048   Code   RO         2598    i.svcKernelStart    RTX_CM4.lib(rt_cmsis.o)
    0x0000591c   0x0000591c   0x00000042   Code   RO         2600    i.svcMailCreate     RTX_CM4.lib(rt_cmsis.o)
    0x0000595e   0x0000595e   0x00000024   Code   RO         2601    i.svcMessageCreate  RTX_CM4.lib(rt_cmsis.o)
    0x00005982   0x00005982   0x0000003a   Code   RO         2602    i.svcMessageGet     RTX_CM4.lib(rt_cmsis.o)
    0x000059bc   0x000059bc   0x00000036   Code   RO         2603    i.svcMessagePut     RTX_CM4.lib(rt_cmsis.o)
    0x000059f2   0x000059f2   0x0000001c   Code   RO         2604    i.svcMutexCreate    RTX_CM4.lib(rt_cmsis.o)
    0x00005a0e   0x00005a0e   0x00000022   Code   RO         2606    i.svcMutexRelease   RTX_CM4.lib(rt_cmsis.o)
    0x00005a30   0x00005a30   0x0000003a   Code   RO         2607    i.svcMutexWait      RTX_CM4.lib(rt_cmsis.o)
    0x00005a6a   0x00005a6a   0x00000002   PAD
    0x00005a6c   0x00005a6c   0x0000006c   Code   RO         2616    i.svcThreadCreate   RTX_CM4.lib(rt_cmsis.o)
    0x00005ad8   0x00005ad8   0x0000001c   Code   RO         2617    i.svcThreadGetId    RTX_CM4.lib(rt_cmsis.o)
    0x00005af4   0x00005af4   0x00000038   Code   RO         2620    i.svcThreadTerminate  RTX_CM4.lib(rt_cmsis.o)
    0x00005b2c   0x00005b2c   0x00000018   Code   RO         2622    i.svcTimerCall      RTX_CM4.lib(rt_cmsis.o)
    0x00005b44   0x00005b44   0x00000058   Code   RO         2627    i.sysMailAlloc      RTX_CM4.lib(rt_cmsis.o)
    0x00005b9c   0x00005b9c   0x00000060   Code   RO         2628    i.sysMailFree       RTX_CM4.lib(rt_cmsis.o)
    0x00005bfc   0x00005bfc   0x0000005c   Code   RO         2631    i.sysTimerTick      RTX_CM4.lib(rt_cmsis.o)
    0x00005c58   0x00005c58   0x00000062   Code   RO         3956    x$fpl$d2f           fz_wm.l(d2f.o)
    0x00005cba   0x00005cba   0x00000002   PAD
    0x00005cbc   0x00005cbc   0x00000150   Code   RO         3958    x$fpl$dadd          fz_wm.l(daddsub_clz.o)
    0x00005e0c   0x00005e0c   0x000002b0   Code   RO         3965    x$fpl$ddiv          fz_wm.l(ddiv.o)
    0x000060bc   0x000060bc   0x0000002e   Code   RO         3969    x$fpl$dflt          fz_wm.l(dflt_clz.o)
    0x000060ea   0x000060ea   0x00000026   Code   RO         3968    x$fpl$dfltu         fz_wm.l(dflt_clz.o)
    0x00006110   0x00006110   0x00000154   Code   RO         3974    x$fpl$dmul          fz_wm.l(dmul.o)
    0x00006264   0x00006264   0x0000009c   Code   RO         3989    x$fpl$dnaninf       fz_wm.l(dnaninf.o)
    0x00006300   0x00006300   0x0000000c   Code   RO         3991    x$fpl$dretinf       fz_wm.l(dretinf.o)
    0x0000630c   0x0000630c   0x000001d4   Code   RO         3960    x$fpl$dsub          fz_wm.l(daddsub_clz.o)
    0x000064e0   0x000064e0   0x00000056   Code   RO         3976    x$fpl$f2d           fz_wm.l(f2d.o)
    0x00006536   0x00006536   0x0000008c   Code   RO         3993    x$fpl$fnaninf       fz_wm.l(fnaninf.o)
    0x000065c2   0x000065c2   0x0000000a   Code   RO         4114    x$fpl$fpinit        fz_wm.l(fpinit.o)
    0x000065cc   0x000065cc   0x0000000a   Code   RO         3995    x$fpl$fretinf       fz_wm.l(fretinf.o)
    0x000065d6   0x000065d6   0x00000002   PAD
    0x000065d8   0x000065d8   0x00000086   Code   RO         3978    x$fpl$llsfromf      fz_wm.l(ffixll.o)
    0x0000665e   0x0000665e   0x00000000   Code   RO         3997    x$fpl$usenofp       fz_wm.l(usenofp.o)
    0x0000665e   0x0000665e   0x00000002   PAD
    0x00006660   0x00006660   0x000000a0   Data   RO           15    .constdata          blinky.o
    0x00006700   0x00006700   0x00000028   Data   RO          204    .constdata          cfaf128x128x16.o
    0x00006728   0x00006728   0x00000010   Data   RO          232    .constdata          led.o
    0x00006738   0x00006738   0x00000002   Data   RO          369    .constdata          rtx_conf_cm.o
    0x0000673a   0x0000673a   0x00000002   PAD
    0x0000673c   0x0000673c   0x00000004   Data   RO          370    .constdata          rtx_conf_cm.o
    0x00006740   0x00006740   0x00000004   Data   RO          371    .constdata          rtx_conf_cm.o
    0x00006744   0x00006744   0x00000004   Data   RO          375    .constdata          rtx_conf_cm.o
    0x00006748   0x00006748   0x00000001   Data   RO          376    .constdata          rtx_conf_cm.o
    0x00006749   0x00006749   0x00000003   PAD
    0x0000674c   0x0000674c   0x00000010   Data   RO          377    .constdata          rtx_conf_cm.o
    0x0000675c   0x0000675c   0x00000002   Data   RO          378    .constdata          rtx_conf_cm.o
    0x0000675e   0x0000675e   0x00000002   PAD
    0x00006760   0x00006760   0x00000004   Data   RO          379    .constdata          rtx_conf_cm.o
    0x00006764   0x00006764   0x00000004   Data   RO          380    .constdata          rtx_conf_cm.o
    0x00006768   0x00006768   0x00000001   Data   RO          381    .constdata          rtx_conf_cm.o
    0x00006769   0x00006769   0x00000003   PAD
    0x0000676c   0x0000676c   0x00000010   Data   RO          382    .constdata          rtx_conf_cm.o
    0x0000677c   0x0000677c   0x00000008   Data   RO          383    .constdata          rtx_conf_cm.o
    0x00006784   0x00006784   0x00000002   Data   RO          384    .constdata          rtx_conf_cm.o
    0x00006786   0x00006786   0x00000002   PAD
    0x00006788   0x00006788   0x00000010   Data   RO          385    .constdata          rtx_conf_cm.o
    0x00006798   0x00006798   0x00000228   Data   RO          778    .constdata          driverlib.lib(gpio.o)
    0x000069c0   0x000069c0   0x00000080   Data   RO         1090    .constdata          driverlib.lib(i2c.o)
    0x00006a40   0x00006a40   0x0000010c   Data   RO         1390    .constdata          driverlib.lib(interrupt.o)
    0x00006b4c   0x00006b4c   0x00000254   Data   RO         1778    .constdata          driverlib.lib(sysctl.o)
    0x00006da0   0x00006da0   0x00000010   Data   RO         2340    .constdata          grlib.lib(context.o)
    0x00006db0   0x00006db0   0x000002f8   Data   RO         2365    .constdata          grlib.lib(fontfixed6x8.o)
    0x000070a8   0x000070a8   0x000000c8   Data   RO         2366    .constdata          grlib.lib(fontfixed6x8.o)
    0x00007170   0x00007170   0x00000025   Data   RO           16    .conststring        blinky.o
    0x00007195   0x00007195   0x00000003   PAD
    0x00007198   0x00007198   0x00000020   Data   RO         4148    Region$$Table       anon$$obj.o


    Execution Region RW_IRAM1 (Exec base: 0x20000000, Load base: 0x000071b8, Size: 0x00002fc8, Max: 0x00040000, ABSOLUTE, COMPRESSED[0x0000002c])

    Exec Addr    Load Addr    Size         Type   Attr      Idx    E Section Name        Object

    0x20000000   COMPRESSED   0x00000008   Data   RW           17    .data               blinky.o
    0x20000008   COMPRESSED   0x00000008   Data   RW           18    .data               blinky.o
    0x20000010   COMPRESSED   0x00000008   Data   RW           19    .data               blinky.o
    0x20000018   COMPRESSED   0x0000003c   Data   RW           20    .data               blinky.o
    0x20000054   COMPRESSED   0x0000000c   Data   RW          121    .data               buzzer.o
    0x20000060   COMPRESSED   0x00000008   Data   RW          205    .data               cfaf128x128x16.o
    0x20000068   COMPRESSED   0x0000000c   Data   RW          271    .data               opt.o
    0x20000074   COMPRESSED   0x00000008   Data   RW          300    .data               rgb.o
    0x2000007c   COMPRESSED   0x00000008   Data   RW          314    .data               servo.o
    0x20000084   COMPRESSED   0x0000000c   Data   RW          343    .data               temp.o
    0x20000090   COMPRESSED   0x00000004   Data   RW          387    .data               rtx_conf_cm.o
    0x20000094   COMPRESSED   0x00000004   Data   RW          388    .data               rtx_conf_cm.o
    0x20000098   COMPRESSED   0x00000004   Data   RW          389    .data               rtx_conf_cm.o
    0x2000009c   COMPRESSED   0x00000004   Data   RW          390    .data               rtx_conf_cm.o
    0x200000a0   COMPRESSED   0x00000004   Data   RW          425    .data               system_tm4c129.o
    0x200000a4   COMPRESSED   0x00000004   Data   RW         2341    .data               grlib.lib(context.o)
    0x200000a8   COMPRESSED   0x00000008   Data   RW         2634    .data               RTX_CM4.lib(rt_cmsis.o)
    0x200000b0   COMPRESSED   0x00000008   Data   RW         3171    .data               RTX_CM4.lib(rt_task.o)
    0x200000b8   COMPRESSED   0x00000008   Data   RW         3481    .data               RTX_CM4.lib(rt_system.o)
    0x200000c0   COMPRESSED   0x00000004   Data   RW         3771    .data               RTX_CM4.lib(rt_time.o)
    0x200000c4   COMPRESSED   0x00000008   Data   RW         3802    .data               RTX_CM4.lib(rt_robin.o)
    0x200000cc   COMPRESSED   0x00000001   Data   RW         3882    .data               RTX_CM4.lib(hal_cm.o)
    0x200000cd   COMPRESSED   0x00000333   PAD
    0x20000400   COMPRESSED   0x0000026c   Data   RW         1391    vtable              driverlib.lib(interrupt.o)
    0x2000066c        -       0x00000010   Zero   RW            5    .bss                blinky.o
    0x2000067c        -       0x00000010   Zero   RW            6    .bss                blinky.o
    0x2000068c        -       0x00000010   Zero   RW            7    .bss                blinky.o
    0x2000069c        -       0x00000050   Zero   RW            8    .bss                blinky.o
    0x200006ec        -       0x00000050   Zero   RW            9    .bss                blinky.o
    0x2000073c        -       0x00000050   Zero   RW           10    .bss                blinky.o
    0x2000078c        -       0x0000002c   Zero   RW           11    .bss                blinky.o
    0x200007b8        -       0x0000008c   Zero   RW           12    .bss                blinky.o
    0x20000844        -       0x0000008c   Zero   RW           13    .bss                blinky.o
    0x200008d0        -       0x0000008c   Zero   RW           14    .bss                blinky.o
    0x2000095c        -       0x00000020   Zero   RW          362    .bss                rtx_conf_cm.o
    0x2000097c        -       0x000001e0   Zero   RW          363    .bss                rtx_conf_cm.o
    0x20000b5c   COMPRESSED   0x00000004   PAD
    0x20000b60        -       0x00001910   Zero   RW          364    .bss                rtx_conf_cm.o
    0x20002470        -       0x00000408   Zero   RW          365    .bss                rtx_conf_cm.o
    0x20002878        -       0x00000084   Zero   RW          366    .bss                rtx_conf_cm.o
    0x200028fc        -       0x00000024   Zero   RW          367    .bss                rtx_conf_cm.o
    0x20002920        -       0x000003e0   Zero   RW          368    .bss                rtx_conf_cm.o
    0x20002d00        -       0x00000034   Zero   RW         3170    .bss                RTX_CM4.lib(rt_task.o)
    0x20002d34        -       0x00000030   Zero   RW         3611    .bss                RTX_CM4.lib(rt_list.o)
    0x20002d64        -       0x00000060   Zero   RW         3944    .bss                c_w.l(libspace.o)
    0x20002dc4   COMPRESSED   0x00000004   PAD
    0x20002dc8        -       0x00000000   Zero   RW          415    HEAP                startup_tm4c129.o
    0x20002dc8        -       0x00000200   Zero   RW          414    STACK               startup_tm4c129.o


==============================================================================

Image component sizes


      Code (inc. data)   RO Data    RW Data    ZI Data      Debug   Object Name

       164         18          0          0          0       1172   accel.o
      4024        166        197         84        752      45555   blinky.o
        92         10          0          0          0        892   buttons.o
       340         36          0         12          0       2377   buzzer.o
      1788         94         40          8          0      10794   cfaf128x128x16.o
       208         22          0          0          0       1257   joy.o
       284         34         16          0          0       1811   led.o
       148         18          0          0          0        932   mic.o
      1392         74          0         12          0       5257   opt.o
       596         42          0          8          0       1945   rgb.o
       168         36         84         16       9120       9001   rtx_conf_cm.o
       228         38          0          8          0        977   servo.o
       300         22        512          0        512       6052   startup_tm4c129.o
        40         14          0          4          0        925   system_tm4c129.o
      1316         62          0         12          0       5092   temp.o

    ----------------------------------------------------------------------
     11088        686        896        164      10388      94039   Object Totals
         0          0         32          0          0          0   (incl. Generated)
         0          0         15          0          4          0   (incl. Padding)

    ----------------------------------------------------------------------

      Code (inc. data)   RO Data    RW Data    ZI Data      Debug   Library Member Name

       268         24          0          1          0       4524   hal_cm.o
       408         34          0          0          0        824   hal_cm4.o
      1834        194          0          8          0      47209   rt_cmsis.o
        80          4          0          0          0        709   rt_event.o
       530         34          0          0         48       8685   rt_list.o
       706         14          0          0          0       5123   rt_mailbox.o
       140          0          0          0          0       2069   rt_membox.o
       128          0          0          0          0       2451   rt_memory.o
       352         14          0          0          0       2249   rt_mutex.o
        96         22          0          8          0       1254   rt_robin.o
        52          4          0          0          0        621   rt_semaphore.o
       298         52          0          8          0       6511   rt_system.o
      1216        174          0          8         52      10129   rt_task.o
         6          0          0          4          0        700   rt_time.o
         4          4          0          0          0        208   svc_table.o
        90          0          0          0          0          0   __dczerorl2.o
         8          0          0          0          0         68   __main.o
         0          0          0          0          0          0   __rtentry.o
        20          0          0          0          0          0   __rtentry2.o
         6          0          0          0          0          0   __rtentry4.o
        52          8          0          0          0          0   __scatter.o
        28          0          0          0          0          0   __scatter_zi.o
        18          0          0          0          0         80   exit.o
         6          0          0          0          0        152   heapauxi.o
         0          0          0          0          0          0   indicate_semi.o
         2          0          0          0          0          0   libinit.o
         6          0          0          0          0          0   libinit2.o
         2          0          0          0          0          0   libshutdown.o
         2          0          0          0          0          0   libshutdown2.o
         8          4          0          0         96         68   libspace.o
        72          0          0          0          0         76   llsdiv.o
       238          0          0          0          0        100   lludivv7m.o
         2          0          0          0          0          0   rtexit.o
        10          0          0          0          0          0   rtexit2.o
        12          4          0          0          0         68   sys_exit.o
        74          0          0          0          0         80   sys_stackheap_outer.o
         2          0          0          0          0         68   use_no_semi.o
       388          0          0          0          0       8710   adc.o
       594          8        552          0          0       7570   gpio.o
       370         38        128          0          0      10381   i2c.o
       152         16        268        620          0       2302   interrupt.o
       178          0          0          0          0       5173   pwm.o
       898         54        596          0          0       6462   sysctl.o
       234          8          0          0          0       4785   timer.o
        98          4          0          0          0        140   d2f.o
       804         16          0          0          0        368   daddsub_clz.o
       688        140          0          0          0        256   ddiv.o
        84          0          0          0          0        232   dflt_clz.o
       340         12          0          0          0        152   dmul.o
       156          4          0          0          0        140   dnaninf.o
        12          0          0          0          0        116   dretinf.o
        86          4          0          0          0        132   f2d.o
       134          4          0          0          0        132   ffixll.o
       140          4          0          0          0        132   fnaninf.o
        10          0          0          0          0        116   fpinit.o
        10          0          0          0          0        116   fretinf.o
         0          0          0          0          0          0   usenofp.o
         8          0          0          0          0       1526   charmap.o
       808          0          0          0          0      28662   circle.o
       100         12         16          4          0       1419   context.o
         0          0        960          0          0      25758   fontfixed6x8.o
        76          0          0          0          0       1550   line.o
       180          0          0          0          0       1526   rectangle.o
      1240          0          0          0          0       9123   string.o

    ----------------------------------------------------------------------
     14608        914       2520       1480        200     211005   Library Totals
        44          0          0        819          4          0   (incl. Padding)

    ----------------------------------------------------------------------

      Code (inc. data)   RO Data    RW Data    ZI Data      Debug   Library Name

      6118        574          0         37        100      93266   RTX_CM4.lib
       658         16          0          0         96        760   c_w.l
      2814        124       1544        620          0      45383   driverlib.lib
      2562        188          0          0          0       2032   fz_wm.l
      2412         12        976          4          0      69564   grlib.lib

    ----------------------------------------------------------------------
     14608        914       2520       1480        200     211005   Library Totals

    ----------------------------------------------------------------------

==============================================================================


      Code (inc. data)   RO Data    RW Data    ZI Data      Debug   

     25696       1600       3416       1644      10588     286184   Grand Totals
     25696       1600       3416         44      10588     286184   ELF Image Totals (compressed)
     25696       1600       3416         44          0          0   ROM Totals

==============================================================================

    Total RO  Size (Code + RO Data)                29112 (  28.43kB)
    Total RW  Size (RW Data + ZI Data)             12232 (  11.95kB)
    Total ROM Size (Code + RO Data + RW Data)      29156 (  28.47kB)

==============================================================================

