Component: ARM Compiler 5.06 update 5 (build 528) Tool: armlink [4d35e2]

==============================================================================

Section Cross References

    led.o(.text) refers to led.o(.constdata) for led_mask
    blinky.o(.text) refers to led.o(.text) for LED_On
    blinky.o(.text) refers to rt_cmsis.o(i.osSignalSet) for osSignalSet
    blinky.o(.text) refers to rt_cmsis.o(i.osDelay) for osDelay
    blinky.o(.text) refers to rt_cmsis.o(i.osSignalWait) for osSignalWait
    blinky.o(.text) refers to sysctl.o(i.SysCtlDeepSleepPowerSet) for SysCtlDeepSleepPowerSet
    blinky.o(.text) refers to rt_cmsis.o(i.osKernelInitialize) for osKernelInitialize
    blinky.o(.text) refers to system_tm4c129.o(.text) for SystemCoreClockUpdate
    blinky.o(.text) refers to cfaf128x128x16.o(.text) for cfaf128x128x16Init
    blinky.o(.text) refers to context.o(i.GrContextInit) for GrContextInit
    blinky.o(.text) refers to rt_cmsis.o(i.osThreadCreate) for osThreadCreate
    blinky.o(.text) refers to rt_cmsis.o(i.osKernelStart) for osKernelStart
    blinky.o(.text) refers to rectangle.o(i.GrRectFill) for GrRectFill
    blinky.o(.text) refers to rectangle.o(i.GrRectDraw) for GrRectDraw
    blinky.o(.text) refers to string.o(i.GrContextFontSet) for GrContextFontSet
    blinky.o(.text) refers to string.o(i.GrFontBaselineGet) for GrFontBaselineGet
    blinky.o(.text) refers to string.o(i.GrStringWidthGet) for GrStringWidthGet
    blinky.o(.text) refers to string.o(i.GrStringDraw) for GrStringDraw
    blinky.o(.text) refers to blinky.o(.data) for tid_clock
    blinky.o(.text) refers to cfaf128x128x16.o(.constdata) for g_sCfaf128x128x16
    blinky.o(.text) refers to blinky.o(.constdata) for os_thread_def_phaseA
    blinky.o(.text) refers to fontcm12.o(.constdata) for g_sFontCm12
    blinky.o(.constdata) refers to blinky.o(.text) for phaseA
    cfaf128x128x16.o(.text) refers to cfaf128x128x16.o(.data) for _orientation
    cfaf128x128x16.o(.constdata) refers to cfaf128x128x16.o(.text) for cfaf128x128x16PixelDraw
    rtx_conf_cm.o(.emb_text) refers to rt_cmsis.o(i.osKernelInitialize) for osKernelInitialize
    rtx_conf_cm.o(.emb_text) refers to rt_cmsis.o(i.osThreadCreate) for osThreadCreate
    rtx_conf_cm.o(.emb_text) refers to rt_cmsis.o(i.osKernelStart) for osKernelStart
    rtx_conf_cm.o(.emb_text) refers to exit.o(.text) for exit
    rtx_conf_cm.o(.emb_text) refers to rtx_conf_cm.o(.constdata) for os_thread_def_main
    rtx_conf_cm.o(.text) refers to rt_task.o(i.rt_tsk_self) for rt_tsk_self
    rtx_conf_cm.o(.text) refers to rt_mutex.o(i.rt_mut_init) for rt_mut_init
    rtx_conf_cm.o(.text) refers to rt_cmsis.o(.data) for os_running
    rtx_conf_cm.o(.text) refers to rtx_conf_cm.o(.bss) for .bss
    rtx_conf_cm.o(.text) refers to libspace.o(.bss) for __libspace_start
    rtx_conf_cm.o(.text) refers to rtx_conf_cm.o(.data) for .data
    rtx_conf_cm.o(.text) refers to rt_mutex.o(i.rt_mut_wait) for rt_mut_wait
    rtx_conf_cm.o(.text) refers to rt_mutex.o(i.rt_mut_release) for rt_mut_release
    rtx_conf_cm.o(.constdata) refers to rt_cmsis.o(i.osTimerThread) for osTimerThread
    rtx_conf_cm.o(.constdata) refers to rtx_conf_cm.o(.bss) for os_messageQ_q_osTimerMessageQ
    rtx_conf_cm.o(.constdata) refers to blinky.o(.text) for main
    startup_tm4c129.o(STACK) refers (Special) to heapauxi.o(.text) for __use_two_region_memory
    startup_tm4c129.o(HEAP) refers (Special) to heapauxi.o(.text) for __use_two_region_memory
    startup_tm4c129.o(RESET) refers (Special) to heapauxi.o(.text) for __use_two_region_memory
    startup_tm4c129.o(RESET) refers to startup_tm4c129.o(STACK) for __initial_sp
    startup_tm4c129.o(RESET) refers to startup_tm4c129.o(.text) for Reset_Handler
    startup_tm4c129.o(RESET) refers to hal_cm4.o(.emb_text) for SVC_Handler
    startup_tm4c129.o(.text) refers (Special) to heapauxi.o(.text) for __use_two_region_memory
    startup_tm4c129.o(.text) refers to system_tm4c129.o(.text) for SystemInit
    startup_tm4c129.o(.text) refers to __main.o(!!!main) for __main
    startup_tm4c129.o(.text) refers to startup_tm4c129.o(HEAP) for Heap_Mem
    startup_tm4c129.o(.text) refers to startup_tm4c129.o(STACK) for Stack_Mem
    system_tm4c129.o(.text) refers to system_tm4c129.o(.data) for SystemCoreClock
    sysctl.o(i.SysCtlClockFreqSet) refers to sysctl.o(.constdata) for .constdata
    sysctl.o(i.SysCtlClockGet) refers to sysctl.o(.constdata) for .constdata
    sysctl.o(i.SysCtlClockSet) refers to sysctl.o(.emb_text) for SysCtlDelay
    sysctl.o(i.SysCtlDeepSleep) refers to cpu.o(.emb_text) for CPUwfi
    sysctl.o(i.SysCtlIntRegister) refers to interrupt.o(i.IntRegister) for IntRegister
    sysctl.o(i.SysCtlIntRegister) refers to interrupt.o(i.IntEnable) for IntEnable
    sysctl.o(i.SysCtlIntUnregister) refers to interrupt.o(i.IntDisable) for IntDisable
    sysctl.o(i.SysCtlIntUnregister) refers to interrupt.o(i.IntUnregister) for IntUnregister
    sysctl.o(i.SysCtlSleep) refers to cpu.o(.emb_text) for CPUwfi
    sysctl.o(i.SysCtlVCOGet) refers to sysctl.o(.constdata) for .constdata
    context.o(i.GrContextInit) refers to context.o(.data) for .data
    context.o(i.GrContextInit) refers to string.o(i.GrDefaultStringRenderer) for GrDefaultStringRenderer
    context.o(i.GrContextInit) refers to context.o(.constdata) for .constdata
    context.o(i.GrLibInit) refers to context.o(.data) for .data
    context.o(.constdata) refers to charmap.o(i.GrMapISO8859_1_Unicode) for GrMapISO8859_1_Unicode
    fontcm12.o(.constdata) refers to fontcm12.o(.constdata) for g_pui8Cm12Data
    rectangle.o(i.GrRectDraw) refers to line.o(i.GrLineDrawH) for GrLineDrawH
    rectangle.o(i.GrRectDraw) refers to line.o(i.GrLineDrawV) for GrLineDrawV
    string.o(i.GrCodepageMapTableSet) refers to string.o(i.UpdateContextCharMapping) for UpdateContextCharMapping
    string.o(i.GrContextFontSet) refers to string.o(i.UpdateContextCharMapping) for UpdateContextCharMapping
    string.o(i.GrDefaultStringRenderer) refers to string.o(i.GrFontGlyphDataGet) for GrFontGlyphDataGet
    string.o(i.GrDefaultStringRenderer) refers to string.o(i.GrFontGlyphRender) for GrFontGlyphRender
    string.o(i.GrStringCodepageSet) refers to string.o(i.UpdateContextCharMapping) for UpdateContextCharMapping
    string.o(i.GrStringGet) refers to string.o(.data) for .data
    string.o(i.GrStringLanguageSet) refers to string.o(.data) for .data
    string.o(i.GrStringTableSet) refers to string.o(.data) for .data
    string.o(i.GrStringWidthGet) refers to string.o(i.GrFontGlyphDataGet) for GrFontGlyphDataGet
    rt_cmsis.o(i.isrMessageGet) refers to rt_mailbox.o(i.isr_mbx_receive) for isr_mbx_receive
    rt_cmsis.o(i.isrMessagePut) refers to rt_mailbox.o(i.rt_mbx_check) for rt_mbx_check
    rt_cmsis.o(i.isrMessagePut) refers to rt_mailbox.o(i.isr_mbx_send) for isr_mbx_send
    rt_cmsis.o(i.isrSemaphoreRelease) refers to rt_cmsis.o(i.rt_id2obj) for rt_id2obj
    rt_cmsis.o(i.isrSemaphoreRelease) refers to rt_semaphore.o(i.isr_sem_send) for isr_sem_send
    rt_cmsis.o(i.isrSignalSet) refers to rt_cmsis.o(i.rt_tid2ptcb) for rt_tid2ptcb
    rt_cmsis.o(i.isrSignalSet) refers to rt_event.o(i.isr_evt_set) for isr_evt_set
    rt_cmsis.o(i.osDelay) refers to rt_cmsis.o(i.svcDelay) for svcDelay
    rt_cmsis.o(i.osKernelInitialize) refers to rt_cmsis.o(i.svcKernelInitialize) for svcKernelInitialize
    rt_cmsis.o(i.osKernelRunning) refers to rt_cmsis.o(i.svcKernelRunning) for svcKernelRunning
    rt_cmsis.o(i.osKernelRunning) refers to rt_cmsis.o(.data) for .data
    rt_cmsis.o(i.osKernelStart) refers to rtx_conf_cm.o(.constdata) for os_flags
    rt_cmsis.o(i.osKernelStart) refers to rt_cmsis.o(i.svcKernelStart) for svcKernelStart
    rt_cmsis.o(i.osKernelSysTick) refers to rt_cmsis.o(i.svcKernelSysTick) for svcKernelSysTick
    rt_cmsis.o(i.osMailAlloc) refers to rt_cmsis.o(i.sysMailAlloc) for sysMailAlloc
    rt_cmsis.o(i.osMailCAlloc) refers to rt_cmsis.o(i.sysMailAlloc) for sysMailAlloc
    rt_cmsis.o(i.osMailCAlloc) refers to rt_cmsis.o(i.rt_clr_box) for rt_clr_box
    rt_cmsis.o(i.osMailCreate) refers to rt_cmsis.o(i.svcMailCreate) for svcMailCreate
    rt_cmsis.o(i.osMailCreate) refers to rt_cmsis.o(.data) for .data
    rt_cmsis.o(i.osMailFree) refers to rt_cmsis.o(i.sysMailFree) for sysMailFree
    rt_cmsis.o(i.osMailGet) refers to rt_cmsis.o(i.osMessageGet) for osMessageGet
    rt_cmsis.o(i.osMailPut) refers to rt_cmsis.o(i.osMessagePut) for osMessagePut
    rt_cmsis.o(i.osMessageCreate) refers to rt_cmsis.o(i.svcMessageCreate) for svcMessageCreate
    rt_cmsis.o(i.osMessageCreate) refers to rt_cmsis.o(.data) for .data
    rt_cmsis.o(i.osMessageGet) refers to rt_cmsis.o(i.isrMessageGet) for isrMessageGet
    rt_cmsis.o(i.osMessageGet) refers to rt_cmsis.o(i.svcMessageGet) for svcMessageGet
    rt_cmsis.o(i.osMessagePut) refers to rt_cmsis.o(i.isrMessagePut) for isrMessagePut
    rt_cmsis.o(i.osMessagePut) refers to rt_cmsis.o(i.svcMessagePut) for svcMessagePut
    rt_cmsis.o(i.osMutexCreate) refers to rt_cmsis.o(i.svcMutexCreate) for svcMutexCreate
    rt_cmsis.o(i.osMutexCreate) refers to rt_cmsis.o(.data) for .data
    rt_cmsis.o(i.osMutexDelete) refers to rt_cmsis.o(i.svcMutexDelete) for svcMutexDelete
    rt_cmsis.o(i.osMutexRelease) refers to rt_cmsis.o(i.svcMutexRelease) for svcMutexRelease
    rt_cmsis.o(i.osMutexWait) refers to rt_cmsis.o(i.svcMutexWait) for svcMutexWait
    rt_cmsis.o(i.osPoolAlloc) refers to rt_cmsis.o(i.sysPoolAlloc) for sysPoolAlloc
    rt_cmsis.o(i.osPoolCAlloc) refers to rt_cmsis.o(i.rt_clr_box) for rt_clr_box
    rt_cmsis.o(i.osPoolCAlloc) refers to rt_cmsis.o(i.sysPoolAlloc) for sysPoolAlloc
    rt_cmsis.o(i.osPoolCreate) refers to rt_cmsis.o(i.svcPoolCreate) for svcPoolCreate
    rt_cmsis.o(i.osPoolCreate) refers to rt_cmsis.o(.data) for .data
    rt_cmsis.o(i.osPoolFree) refers to rt_cmsis.o(i.sysPoolFree) for sysPoolFree
    rt_cmsis.o(i.osSemaphoreCreate) refers to rt_cmsis.o(i.svcSemaphoreCreate) for svcSemaphoreCreate
    rt_cmsis.o(i.osSemaphoreCreate) refers to rt_cmsis.o(.data) for .data
    rt_cmsis.o(i.osSemaphoreDelete) refers to rt_cmsis.o(i.svcSemaphoreDelete) for svcSemaphoreDelete
    rt_cmsis.o(i.osSemaphoreRelease) refers to rt_cmsis.o(i.isrSemaphoreRelease) for isrSemaphoreRelease
    rt_cmsis.o(i.osSemaphoreRelease) refers to rt_cmsis.o(i.svcSemaphoreRelease) for svcSemaphoreRelease
    rt_cmsis.o(i.osSemaphoreWait) refers to rt_cmsis.o(i.svcSemaphoreWait) for svcSemaphoreWait
    rt_cmsis.o(i.osSignalClear) refers to rt_cmsis.o(i.svcSignalClear) for svcSignalClear
    rt_cmsis.o(i.osSignalSet) refers to rt_cmsis.o(i.isrSignalSet) for isrSignalSet
    rt_cmsis.o(i.osSignalSet) refers to rt_cmsis.o(i.svcSignalSet) for svcSignalSet
    rt_cmsis.o(i.osSignalWait) refers to rt_cmsis.o(i.svcSignalWait) for svcSignalWait
    rt_cmsis.o(i.osThreadCreate) refers to rt_cmsis.o(i.svcThreadCreate) for svcThreadCreate
    rt_cmsis.o(i.osThreadCreate) refers to rt_cmsis.o(.data) for .data
    rt_cmsis.o(i.osThreadExit) refers to rt_cmsis.o(i.svcThreadGetId) for svcThreadGetId
    rt_cmsis.o(i.osThreadExit) refers to rt_cmsis.o(i.svcThreadTerminate) for svcThreadTerminate
    rt_cmsis.o(i.osThreadGetId) refers to rt_cmsis.o(i.svcThreadGetId) for svcThreadGetId
    rt_cmsis.o(i.osThreadGetPriority) refers to rt_cmsis.o(i.svcThreadGetPriority) for svcThreadGetPriority
    rt_cmsis.o(i.osThreadSetPriority) refers to rt_cmsis.o(i.svcThreadSetPriority) for svcThreadSetPriority
    rt_cmsis.o(i.osThreadTerminate) refers to rt_cmsis.o(i.svcThreadTerminate) for svcThreadTerminate
    rt_cmsis.o(i.osThreadYield) refers to rt_cmsis.o(i.svcThreadYield) for svcThreadYield
    rt_cmsis.o(i.osTimerCall) refers to rt_cmsis.o(i.svcTimerCall) for svcTimerCall
    rt_cmsis.o(i.osTimerCreate) refers to rt_cmsis.o(i.svcTimerCreate) for svcTimerCreate
    rt_cmsis.o(i.osTimerCreate) refers to rt_cmsis.o(.data) for .data
    rt_cmsis.o(i.osTimerDelete) refers to rt_cmsis.o(i.svcTimerDelete) for svcTimerDelete
    rt_cmsis.o(i.osTimerStart) refers to rt_cmsis.o(i.svcTimerStart) for svcTimerStart
    rt_cmsis.o(i.osTimerStop) refers to rt_cmsis.o(i.svcTimerStop) for svcTimerStop
    rt_cmsis.o(i.osTimerThread) refers to rt_cmsis.o(i.osMessageGet) for osMessageGet
    rt_cmsis.o(i.osTimerThread) refers to rt_cmsis.o(i.osTimerCall) for osTimerCall
    rt_cmsis.o(i.osTimerThread) refers to rtx_conf_cm.o(.data) for osMessageQId_osTimerMessageQ
    rt_cmsis.o(i.os_resume) refers to rt_system.o(i.rt_resume) for rt_resume
    rt_cmsis.o(i.os_suspend) refers to rt_system.o(i.rt_suspend) for rt_suspend
    rt_cmsis.o(i.rt_ms2tick) refers to rtx_conf_cm.o(.constdata) for os_clockrate
    rt_cmsis.o(i.rt_timer_insert) refers to rt_cmsis.o(.data) for .data
    rt_cmsis.o(i.rt_timer_remove) refers to rt_cmsis.o(.data) for .data
    rt_cmsis.o(i.svcDelay) refers to rt_cmsis.o(i.rt_ms2tick) for rt_ms2tick
    rt_cmsis.o(i.svcDelay) refers to rt_time.o(i.rt_dly_wait) for rt_dly_wait
    rt_cmsis.o(i.svcKernelInitialize) refers to rt_memory.o(i.rt_init_mem) for rt_init_mem
    rt_cmsis.o(i.svcKernelInitialize) refers to rt_task.o(i.rt_sys_init) for rt_sys_init
    rt_cmsis.o(i.svcKernelInitialize) refers to rt_cmsis.o(i.svcMessageCreate) for svcMessageCreate
    rt_cmsis.o(i.svcKernelInitialize) refers to rt_cmsis.o(i.svcThreadCreate) for svcThreadCreate
    rt_cmsis.o(i.svcKernelInitialize) refers to rt_cmsis.o(.data) for .data
    rt_cmsis.o(i.svcKernelInitialize) refers to rtx_conf_cm.o(.bss) for os_stack_mem
    rt_cmsis.o(i.svcKernelInitialize) refers to rtx_conf_cm.o(.constdata) for os_stack_sz
    rt_cmsis.o(i.svcKernelInitialize) refers to rt_task.o(.data) for os_tsk
    rt_cmsis.o(i.svcKernelInitialize) refers to rtx_conf_cm.o(.data) for osMessageQId_osTimerMessageQ
    rt_cmsis.o(i.svcKernelRunning) refers to rt_cmsis.o(.data) for .data
    rt_cmsis.o(i.svcKernelStart) refers to rt_task.o(i.rt_tsk_prio) for rt_tsk_prio
    rt_cmsis.o(i.svcKernelStart) refers to rt_task.o(i.rt_sys_start) for rt_sys_start
    rt_cmsis.o(i.svcKernelStart) refers to rt_cmsis.o(.data) for .data
    rt_cmsis.o(i.svcKernelStart) refers to rt_task.o(.data) for os_tsk
    rt_cmsis.o(i.svcKernelSysTick) refers to rt_system.o(i.os_tick_val) for os_tick_val
    rt_cmsis.o(i.svcKernelSysTick) refers to rt_system.o(i.os_tick_ovf) for os_tick_ovf
    rt_cmsis.o(i.svcKernelSysTick) refers to rtx_conf_cm.o(.constdata) for os_trv
    rt_cmsis.o(i.svcKernelSysTick) refers to rt_time.o(.data) for os_time
    rt_cmsis.o(i.svcMailCreate) refers to rt_membox.o(i._init_box) for _init_box
    rt_cmsis.o(i.svcMailCreate) refers to rt_mailbox.o(i.rt_mbx_init) for rt_mbx_init
    rt_cmsis.o(i.svcMessageCreate) refers to rt_mailbox.o(i.rt_mbx_init) for rt_mbx_init
    rt_cmsis.o(i.svcMessageGet) refers to rt_cmsis.o(i.rt_ms2tick) for rt_ms2tick
    rt_cmsis.o(i.svcMessageGet) refers to rt_mailbox.o(i.rt_mbx_wait) for rt_mbx_wait
    rt_cmsis.o(i.svcMessagePut) refers to rt_cmsis.o(i.rt_ms2tick) for rt_ms2tick
    rt_cmsis.o(i.svcMessagePut) refers to rt_mailbox.o(i.rt_mbx_send) for rt_mbx_send
    rt_cmsis.o(i.svcMutexCreate) refers to rt_mutex.o(i.rt_mut_init) for rt_mut_init
    rt_cmsis.o(i.svcMutexDelete) refers to rt_cmsis.o(i.rt_id2obj) for rt_id2obj
    rt_cmsis.o(i.svcMutexDelete) refers to rt_mutex.o(i.rt_mut_delete) for rt_mut_delete
    rt_cmsis.o(i.svcMutexRelease) refers to rt_cmsis.o(i.rt_id2obj) for rt_id2obj
    rt_cmsis.o(i.svcMutexRelease) refers to rt_mutex.o(i.rt_mut_release) for rt_mut_release
    rt_cmsis.o(i.svcMutexWait) refers to rt_cmsis.o(i.rt_id2obj) for rt_id2obj
    rt_cmsis.o(i.svcMutexWait) refers to rt_cmsis.o(i.rt_ms2tick) for rt_ms2tick
    rt_cmsis.o(i.svcMutexWait) refers to rt_mutex.o(i.rt_mut_wait) for rt_mut_wait
    rt_cmsis.o(i.svcPoolCreate) refers to rt_membox.o(i._init_box) for _init_box
    rt_cmsis.o(i.svcSemaphoreCreate) refers to rt_semaphore.o(i.rt_sem_init) for rt_sem_init
    rt_cmsis.o(i.svcSemaphoreDelete) refers to rt_cmsis.o(i.rt_id2obj) for rt_id2obj
    rt_cmsis.o(i.svcSemaphoreDelete) refers to rt_semaphore.o(i.rt_sem_delete) for rt_sem_delete
    rt_cmsis.o(i.svcSemaphoreRelease) refers to rt_cmsis.o(i.rt_id2obj) for rt_id2obj
    rt_cmsis.o(i.svcSemaphoreRelease) refers to rt_semaphore.o(i.rt_sem_send) for rt_sem_send
    rt_cmsis.o(i.svcSemaphoreWait) refers to rt_cmsis.o(i.rt_id2obj) for rt_id2obj
    rt_cmsis.o(i.svcSemaphoreWait) refers to rt_cmsis.o(i.rt_ms2tick) for rt_ms2tick
    rt_cmsis.o(i.svcSemaphoreWait) refers to rt_semaphore.o(i.rt_sem_wait) for rt_sem_wait
    rt_cmsis.o(i.svcSignalClear) refers to rt_cmsis.o(i.rt_tid2ptcb) for rt_tid2ptcb
    rt_cmsis.o(i.svcSignalClear) refers to rt_event.o(i.rt_evt_clr) for rt_evt_clr
    rt_cmsis.o(i.svcSignalSet) refers to rt_cmsis.o(i.rt_tid2ptcb) for rt_tid2ptcb
    rt_cmsis.o(i.svcSignalSet) refers to rt_event.o(i.rt_evt_set) for rt_evt_set
    rt_cmsis.o(i.svcSignalWait) refers to rt_cmsis.o(i.rt_ms2tick) for rt_ms2tick
    rt_cmsis.o(i.svcSignalWait) refers to rt_event.o(i.rt_evt_wait) for rt_evt_wait
    rt_cmsis.o(i.svcSignalWait) refers to rt_task.o(.data) for os_tsk
    rt_cmsis.o(i.svcThreadCreate) refers to rt_memory.o(i.rt_alloc_mem) for rt_alloc_mem
    rt_cmsis.o(i.svcThreadCreate) refers to rt_task.o(i.rt_tsk_create) for rt_tsk_create
    rt_cmsis.o(i.svcThreadCreate) refers to rt_memory.o(i.rt_free_mem) for rt_free_mem
    rt_cmsis.o(i.svcThreadCreate) refers to rtx_conf_cm.o(.bss) for os_stack_mem
    rt_cmsis.o(i.svcThreadCreate) refers to rt_cmsis.o(i.osThreadExit) for osThreadExit
    rt_cmsis.o(i.svcThreadGetId) refers to rt_task.o(i.rt_tsk_self) for rt_tsk_self
    rt_cmsis.o(i.svcThreadGetId) refers to rtx_conf_cm.o(.bss) for os_active_TCB
    rt_cmsis.o(i.svcThreadGetPriority) refers to rt_cmsis.o(i.rt_tid2ptcb) for rt_tid2ptcb
    rt_cmsis.o(i.svcThreadSetPriority) refers to rt_cmsis.o(i.rt_tid2ptcb) for rt_tid2ptcb
    rt_cmsis.o(i.svcThreadSetPriority) refers to rt_task.o(i.rt_tsk_prio) for rt_tsk_prio
    rt_cmsis.o(i.svcThreadTerminate) refers to rt_cmsis.o(i.rt_tid2ptcb) for rt_tid2ptcb
    rt_cmsis.o(i.svcThreadTerminate) refers to rt_task.o(i.rt_tsk_delete) for rt_tsk_delete
    rt_cmsis.o(i.svcThreadTerminate) refers to rt_memory.o(i.rt_free_mem) for rt_free_mem
    rt_cmsis.o(i.svcThreadTerminate) refers to rtx_conf_cm.o(.bss) for os_stack_mem
    rt_cmsis.o(i.svcThreadYield) refers to rt_task.o(i.rt_tsk_pass) for rt_tsk_pass
    rt_cmsis.o(i.svcTimerCall) refers to rt_cmsis.o(i.rt_id2obj) for rt_id2obj
    rt_cmsis.o(i.svcTimerCreate) refers to rtx_conf_cm.o(.data) for osThreadId_osTimerThread
    rt_cmsis.o(i.svcTimerDelete) refers to rt_cmsis.o(i.rt_id2obj) for rt_id2obj
    rt_cmsis.o(i.svcTimerDelete) refers to rt_cmsis.o(i.rt_timer_remove) for rt_timer_remove
    rt_cmsis.o(i.svcTimerStart) refers to rt_cmsis.o(i.rt_id2obj) for rt_id2obj
    rt_cmsis.o(i.svcTimerStart) refers to lludivv7m.o(.text) for __aeabi_uldivmod
    rt_cmsis.o(i.svcTimerStart) refers to rt_cmsis.o(i.rt_timer_remove) for rt_timer_remove
    rt_cmsis.o(i.svcTimerStart) refers to rt_cmsis.o(i.rt_timer_insert) for rt_timer_insert
    rt_cmsis.o(i.svcTimerStart) refers to rtx_conf_cm.o(.constdata) for os_clockrate
    rt_cmsis.o(i.svcTimerStop) refers to rt_cmsis.o(i.rt_id2obj) for rt_id2obj
    rt_cmsis.o(i.svcTimerStop) refers to rt_cmsis.o(i.rt_timer_remove) for rt_timer_remove
    rt_cmsis.o(i.sysMailAlloc) refers to rt_membox.o(i.rt_alloc_box) for rt_alloc_box
    rt_cmsis.o(i.sysMailAlloc) refers to rt_list.o(i.rt_put_prio) for rt_put_prio
    rt_cmsis.o(i.sysMailAlloc) refers to rt_cmsis.o(i.rt_ms2tick) for rt_ms2tick
    rt_cmsis.o(i.sysMailAlloc) refers to rt_task.o(i.rt_block) for rt_block
    rt_cmsis.o(i.sysMailAlloc) refers to rt_task.o(.data) for os_tsk
    rt_cmsis.o(i.sysMailFree) refers to rt_membox.o(i.rt_free_box) for rt_free_box
    rt_cmsis.o(i.sysMailFree) refers to rt_list.o(i.rt_psq_enq) for rt_psq_enq
    rt_cmsis.o(i.sysMailFree) refers to rt_system.o(i.rt_psh_req) for rt_psh_req
    rt_cmsis.o(i.sysMailFree) refers to rt_membox.o(i.rt_alloc_box) for rt_alloc_box
    rt_cmsis.o(i.sysMailFree) refers to rt_list.o(i.rt_get_first) for rt_get_first
    rt_cmsis.o(i.sysMailFree) refers to hal_cm.o(i.rt_ret_val) for rt_ret_val
    rt_cmsis.o(i.sysMailFree) refers to rt_list.o(i.rt_rmv_dly) for rt_rmv_dly
    rt_cmsis.o(i.sysMailFree) refers to rt_task.o(i.rt_dispatch) for rt_dispatch
    rt_cmsis.o(i.sysPoolAlloc) refers to rt_membox.o(i.rt_alloc_box) for rt_alloc_box
    rt_cmsis.o(i.sysPoolFree) refers to rt_membox.o(i.rt_free_box) for rt_free_box
    rt_cmsis.o(i.sysTimerTick) refers to rt_cmsis.o(i.isrMessagePut) for isrMessagePut
    rt_cmsis.o(i.sysTimerTick) refers to rtx_conf_cm.o(.text) for os_error
    rt_cmsis.o(i.sysTimerTick) refers to rt_cmsis.o(i.rt_timer_insert) for rt_timer_insert
    rt_cmsis.o(i.sysTimerTick) refers to rt_cmsis.o(.data) for .data
    rt_cmsis.o(i.sysTimerTick) refers to rtx_conf_cm.o(.data) for osMessageQId_osTimerMessageQ
    rt_cmsis.o(i.sysUserTimerUpdate) refers to rt_cmsis.o(i.sysTimerTick) for sysTimerTick
    rt_cmsis.o(i.sysUserTimerUpdate) refers to rt_cmsis.o(.data) for .data
    rt_cmsis.o(i.sysUserTimerWakeupTime) refers to rt_cmsis.o(.data) for .data
    rt_task.o(i.rt_block) refers to rt_list.o(i.rt_put_dly) for rt_put_dly
    rt_task.o(i.rt_block) refers to rt_list.o(i.rt_get_first) for rt_get_first
    rt_task.o(i.rt_block) refers to rt_task.o(i.rt_switch_req) for rt_switch_req
    rt_task.o(i.rt_block) refers to rt_task.o(.data) for .data
    rt_task.o(i.rt_block) refers to rt_list.o(.bss) for os_rdy
    rt_task.o(i.rt_dispatch) refers to rt_list.o(i.rt_put_rdy_first) for rt_put_rdy_first
    rt_task.o(i.rt_dispatch) refers to rt_task.o(i.rt_switch_req) for rt_switch_req
    rt_task.o(i.rt_dispatch) refers to rt_list.o(i.rt_get_first) for rt_get_first
    rt_task.o(i.rt_dispatch) refers to rt_list.o(i.rt_put_prio) for rt_put_prio
    rt_task.o(i.rt_dispatch) refers to rt_task.o(.data) for .data
    rt_task.o(i.rt_dispatch) refers to rt_list.o(.bss) for os_rdy
    rt_task.o(i.rt_init_context) refers to rt_membox.o(i.rt_alloc_box) for rt_alloc_box
    rt_task.o(i.rt_init_context) refers to hal_cm.o(i.rt_init_stack) for rt_init_stack
    rt_task.o(i.rt_init_context) refers to rtx_conf_cm.o(.bss) for mp_stk
    rt_task.o(i.rt_switch_req) refers to hal_cm.o(i.dbg_task_switch) for dbg_task_switch
    rt_task.o(i.rt_switch_req) refers to rt_task.o(.data) for .data
    rt_task.o(i.rt_switch_req) refers to hal_cm.o(.data) for dbg_msg
    rt_task.o(i.rt_sys_init) refers to hal_cm.o(i.dbg_init) for dbg_init
    rt_task.o(i.rt_sys_init) refers to rt_membox.o(i._init_box) for _init_box
    rt_task.o(i.rt_sys_init) refers to rt_task.o(i.rt_init_context) for rt_init_context
    rt_task.o(i.rt_sys_init) refers to rt_robin.o(i.rt_init_robin) for rt_init_robin
    rt_task.o(i.rt_sys_init) refers to rtx_conf_cm.o(.bss) for os_active_TCB
    rt_task.o(i.rt_sys_init) refers to rtx_conf_cm.o(.constdata) for os_maxtaskrun
    rt_task.o(i.rt_sys_init) refers to rtx_conf_cm.o(.data) for m_tmr
    rt_task.o(i.rt_sys_init) refers to rt_task.o(.bss) for .bss
    rt_task.o(i.rt_sys_init) refers to rtx_conf_cm.o(.text) for os_idle_demon
    rt_task.o(i.rt_sys_init) refers to rt_list.o(.bss) for os_rdy
    rt_task.o(i.rt_sys_init) refers to rt_task.o(.data) for .data
    rt_task.o(i.rt_sys_start) refers to rt_system.o(i.os_tick_init) for os_tick_init
    rt_task.o(i.rt_sys_start) refers to rt_system.o(.data) for os_tick_irqn
    rt_task.o(i.rt_tsk_create) refers to rt_membox.o(i.rt_alloc_box) for rt_alloc_box
    rt_task.o(i.rt_tsk_create) refers to rt_task.o(i.rt_init_context) for rt_init_context
    rt_task.o(i.rt_tsk_create) refers to hal_cm.o(i.dbg_task_notify) for dbg_task_notify
    rt_task.o(i.rt_tsk_create) refers to rt_task.o(i.rt_dispatch) for rt_dispatch
    rt_task.o(i.rt_tsk_create) refers to rtx_conf_cm.o(.bss) for mp_tcb
    rt_task.o(i.rt_tsk_create) refers to rtx_conf_cm.o(.constdata) for os_maxtaskrun
    rt_task.o(i.rt_tsk_create) refers to hal_cm.o(.data) for dbg_msg
    rt_task.o(i.rt_tsk_delete) refers to hal_cm4.o(.emb_text) for rt_get_PSP
    rt_task.o(i.rt_tsk_delete) refers to rt_system.o(i.rt_stk_check) for rt_stk_check
    rt_task.o(i.rt_tsk_delete) refers to rt_list.o(i.rt_get_first) for rt_get_first
    rt_task.o(i.rt_tsk_delete) refers to hal_cm.o(i.rt_ret_val) for rt_ret_val
    rt_task.o(i.rt_tsk_delete) refers to rt_list.o(i.rt_rmv_dly) for rt_rmv_dly
    rt_task.o(i.rt_tsk_delete) refers to rt_list.o(i.rt_put_prio) for rt_put_prio
    rt_task.o(i.rt_tsk_delete) refers to rt_membox.o(i.rt_free_box) for rt_free_box
    rt_task.o(i.rt_tsk_delete) refers to hal_cm.o(i.dbg_task_notify) for dbg_task_notify
    rt_task.o(i.rt_tsk_delete) refers to rt_list.o(i.rt_rmv_list) for rt_rmv_list
    rt_task.o(i.rt_tsk_delete) refers to rt_task.o(i.rt_dispatch) for rt_dispatch
    rt_task.o(i.rt_tsk_delete) refers to hal_cm.o(.data) for dbg_msg
    rt_task.o(i.rt_tsk_delete) refers to rtx_conf_cm.o(.bss) for os_active_TCB
    rt_task.o(i.rt_tsk_delete) refers to rt_task.o(.data) for .data
    rt_task.o(i.rt_tsk_delete) refers to rt_list.o(.bss) for os_rdy
    rt_task.o(i.rt_tsk_delete) refers to rtx_conf_cm.o(.constdata) for os_maxtaskrun
    rt_task.o(i.rt_tsk_pass) refers to rt_list.o(i.rt_get_same_rdy_prio) for rt_get_same_rdy_prio
    rt_task.o(i.rt_tsk_pass) refers to rt_list.o(i.rt_put_prio) for rt_put_prio
    rt_task.o(i.rt_tsk_pass) refers to rt_task.o(i.rt_switch_req) for rt_switch_req
    rt_task.o(i.rt_tsk_pass) refers to rt_task.o(.data) for .data
    rt_task.o(i.rt_tsk_pass) refers to rt_list.o(.bss) for os_rdy
    rt_task.o(i.rt_tsk_prio) refers to rt_list.o(i.rt_put_prio) for rt_put_prio
    rt_task.o(i.rt_tsk_prio) refers to rt_list.o(i.rt_resort_prio) for rt_resort_prio
    rt_task.o(i.rt_tsk_prio) refers to rt_list.o(i.rt_get_first) for rt_get_first
    rt_task.o(i.rt_tsk_prio) refers to rt_task.o(i.rt_dispatch) for rt_dispatch
    rt_task.o(i.rt_tsk_prio) refers to rt_task.o(.data) for .data
    rt_task.o(i.rt_tsk_prio) refers to rtx_conf_cm.o(.constdata) for os_maxtaskrun
    rt_task.o(i.rt_tsk_prio) refers to rtx_conf_cm.o(.bss) for os_active_TCB
    rt_task.o(i.rt_tsk_prio) refers to rt_list.o(.bss) for os_rdy
    rt_task.o(i.rt_tsk_self) refers to rt_task.o(.data) for .data
    rt_mutex.o(i.rt_mut_delete) refers to rt_list.o(i.rt_resort_prio) for rt_resort_prio
    rt_mutex.o(i.rt_mut_delete) refers to rt_list.o(i.rt_get_first) for rt_get_first
    rt_mutex.o(i.rt_mut_delete) refers to hal_cm.o(i.rt_ret_val) for rt_ret_val
    rt_mutex.o(i.rt_mut_delete) refers to rt_list.o(i.rt_rmv_dly) for rt_rmv_dly
    rt_mutex.o(i.rt_mut_delete) refers to rt_list.o(i.rt_put_prio) for rt_put_prio
    rt_mutex.o(i.rt_mut_delete) refers to rt_task.o(i.rt_dispatch) for rt_dispatch
    rt_mutex.o(i.rt_mut_delete) refers to rt_task.o(.data) for os_tsk
    rt_mutex.o(i.rt_mut_delete) refers to rt_list.o(.bss) for os_rdy
    rt_mutex.o(i.rt_mut_release) refers to rt_list.o(i.rt_get_first) for rt_get_first
    rt_mutex.o(i.rt_mut_release) refers to hal_cm.o(i.rt_ret_val) for rt_ret_val
    rt_mutex.o(i.rt_mut_release) refers to rt_list.o(i.rt_rmv_dly) for rt_rmv_dly
    rt_mutex.o(i.rt_mut_release) refers to rt_list.o(i.rt_put_prio) for rt_put_prio
    rt_mutex.o(i.rt_mut_release) refers to rt_task.o(i.rt_dispatch) for rt_dispatch
    rt_mutex.o(i.rt_mut_release) refers to rt_task.o(.data) for os_tsk
    rt_mutex.o(i.rt_mut_release) refers to rt_list.o(.bss) for os_rdy
    rt_mutex.o(i.rt_mut_wait) refers to rt_list.o(i.rt_resort_prio) for rt_resort_prio
    rt_mutex.o(i.rt_mut_wait) refers to rt_list.o(i.rt_put_prio) for rt_put_prio
    rt_mutex.o(i.rt_mut_wait) refers to rt_task.o(i.rt_block) for rt_block
    rt_mutex.o(i.rt_mut_wait) refers to rt_task.o(.data) for os_tsk
    interrupt.o(i.IntDisable) refers to interrupt.o(.constdata) for .constdata
    interrupt.o(i.IntEnable) refers to interrupt.o(.constdata) for .constdata
    interrupt.o(i.IntIsEnabled) refers to interrupt.o(.constdata) for .constdata
    interrupt.o(i.IntMasterDisable) refers to cpu.o(.emb_text) for CPUcpsid
    interrupt.o(i.IntMasterEnable) refers to cpu.o(.emb_text) for CPUcpsie
    interrupt.o(i.IntPendClear) refers to interrupt.o(.constdata) for .constdata
    interrupt.o(i.IntPendSet) refers to interrupt.o(.constdata) for .constdata
    interrupt.o(i.IntPriorityGet) refers to interrupt.o(.constdata) for .constdata
    interrupt.o(i.IntPriorityGroupingGet) refers to interrupt.o(.constdata) for .constdata
    interrupt.o(i.IntPriorityGroupingSet) refers to interrupt.o(.constdata) for .constdata
    interrupt.o(i.IntPriorityMaskGet) refers to cpu.o(.emb_text) for CPUbasepriGet
    interrupt.o(i.IntPriorityMaskSet) refers to cpu.o(.emb_text) for CPUbasepriSet
    interrupt.o(i.IntPrioritySet) refers to interrupt.o(.constdata) for .constdata
    interrupt.o(i.IntRegister) refers to interrupt.o(vtable) for vtable
    interrupt.o(i.IntUnregister) refers to interrupt.o(i._IntDefaultHandler) for _IntDefaultHandler
    interrupt.o(i.IntUnregister) refers to interrupt.o(vtable) for vtable
    charmap.o(i.GrMapISO8859_10_Unicode) refers to charmap.o(.constdata) for .constdata
    charmap.o(i.GrMapISO8859_13_Unicode) refers to charmap.o(.constdata) for .constdata
    charmap.o(i.GrMapISO8859_14_Unicode) refers to charmap.o(.constdata) for .constdata
    charmap.o(i.GrMapISO8859_16_Unicode) refers to charmap.o(.constdata) for .constdata
    charmap.o(i.GrMapISO8859_2_Unicode) refers to charmap.o(.constdata) for .constdata
    charmap.o(i.GrMapISO8859_3_Unicode) refers to charmap.o(.constdata) for .constdata
    charmap.o(i.GrMapISO8859_4_Unicode) refers to charmap.o(.constdata) for .constdata
    charmap.o(i.GrMapISO8859_7_Unicode) refers to charmap.o(.constdata) for .constdata
    charmap.o(i.GrMapUTF16BE_Unicode) refers to charmap.o(i.GrMapUTF16_Unicode) for GrMapUTF16_Unicode
    charmap.o(i.GrMapUTF16LE_Unicode) refers to charmap.o(i.GrMapUTF16_Unicode) for GrMapUTF16_Unicode
    charmap.o(i.GrMapWIN1250_Unicode) refers to charmap.o(.constdata) for .constdata
    charmap.o(i.GrMapWIN1251_Unicode) refers to charmap.o(.constdata) for .constdata
    charmap.o(i.GrMapWIN1252_Unicode) refers to charmap.o(.constdata) for .constdata
    charmap.o(i.GrMapWIN1253_Unicode) refers to charmap.o(.constdata) for .constdata
    charmap.o(i.GrMapWIN1254_Unicode) refers to charmap.o(.constdata) for .constdata
    rt_system.o(i.os_tick_init) refers to rtx_conf_cm.o(.constdata) for os_trv
    rt_system.o(i.os_tick_val) refers to rtx_conf_cm.o(.constdata) for os_trv
    rt_system.o(i.rt_pop_req) refers to rt_list.o(i.rt_put_rdy_first) for rt_put_rdy_first
    rt_system.o(i.rt_pop_req) refers to rt_semaphore.o(i.rt_sem_psh) for rt_sem_psh
    rt_system.o(i.rt_pop_req) refers to rt_list.o(i.rt_get_first) for rt_get_first
    rt_system.o(i.rt_pop_req) refers to rt_task.o(i.rt_switch_req) for rt_switch_req
    rt_system.o(i.rt_pop_req) refers to rt_event.o(i.rt_evt_psh) for rt_evt_psh
    rt_system.o(i.rt_pop_req) refers to rt_mailbox.o(i.rt_mbx_psh) for rt_mbx_psh
    rt_system.o(i.rt_pop_req) refers to rt_task.o(.data) for os_tsk
    rt_system.o(i.rt_pop_req) refers to rtx_conf_cm.o(.bss) for os_fifo
    rt_system.o(i.rt_pop_req) refers to rt_list.o(.bss) for os_rdy
    rt_system.o(i.rt_psh_req) refers to rt_system.o(.data) for .data
    rt_system.o(i.rt_resume) refers to rt_list.o(i.rt_put_rdy_first) for rt_put_rdy_first
    rt_system.o(i.rt_resume) refers to rt_list.o(i.rt_dec_dly) for rt_dec_dly
    rt_system.o(i.rt_resume) refers to rt_cmsis.o(i.sysUserTimerUpdate) for sysUserTimerUpdate
    rt_system.o(i.rt_resume) refers to rt_list.o(i.rt_get_first) for rt_get_first
    rt_system.o(i.rt_resume) refers to rt_task.o(i.rt_switch_req) for rt_switch_req
    rt_system.o(i.rt_resume) refers to rt_system.o(i.rt_tsk_unlock) for rt_tsk_unlock
    rt_system.o(i.rt_resume) refers to rt_task.o(.data) for os_tsk
    rt_system.o(i.rt_resume) refers to rt_robin.o(.data) for os_robin
    rt_system.o(i.rt_resume) refers to rt_list.o(.bss) for os_dly
    rt_system.o(i.rt_resume) refers to rt_time.o(.data) for os_time
    rt_system.o(i.rt_stk_check) refers to rtx_conf_cm.o(.text) for os_error
    rt_system.o(i.rt_stk_check) refers to rt_task.o(.data) for os_tsk
    rt_system.o(i.rt_suspend) refers to rt_system.o(i.rt_tsk_lock) for rt_tsk_lock
    rt_system.o(i.rt_suspend) refers to rt_cmsis.o(i.sysUserTimerWakeupTime) for sysUserTimerWakeupTime
    rt_system.o(i.rt_suspend) refers to rt_list.o(.bss) for os_dly
    rt_system.o(i.rt_systick) refers to rt_list.o(i.rt_put_rdy_first) for rt_put_rdy_first
    rt_system.o(i.rt_systick) refers to rt_robin.o(i.rt_chk_robin) for rt_chk_robin
    rt_system.o(i.rt_systick) refers to rt_list.o(i.rt_dec_dly) for rt_dec_dly
    rt_system.o(i.rt_systick) refers to rt_cmsis.o(i.sysTimerTick) for sysTimerTick
    rt_system.o(i.rt_systick) refers to rt_list.o(i.rt_get_first) for rt_get_first
    rt_system.o(i.rt_systick) refers to rt_task.o(i.rt_switch_req) for rt_switch_req
    rt_system.o(i.rt_systick) refers to rt_task.o(.data) for os_tsk
    rt_system.o(i.rt_systick) refers to rt_time.o(.data) for os_time
    rt_system.o(i.rt_systick) refers to rt_list.o(.bss) for os_rdy
    rt_system.o(i.rt_tsk_lock) refers to rt_system.o(.data) for .data
    rt_system.o(i.rt_tsk_unlock) refers to rt_system.o(.data) for .data
    rt_event.o(i.isr_evt_set) refers to rt_list.o(i.rt_psq_enq) for rt_psq_enq
    rt_event.o(i.isr_evt_set) refers to rt_system.o(i.rt_psh_req) for rt_psh_req
    rt_event.o(i.isr_evt_set) refers to rtx_conf_cm.o(.bss) for os_active_TCB
    rt_event.o(i.rt_evt_clr) refers to rtx_conf_cm.o(.bss) for os_active_TCB
    rt_event.o(i.rt_evt_get) refers to rt_task.o(.data) for os_tsk
    rt_event.o(i.rt_evt_psh) refers to rt_list.o(i.rt_rmv_dly) for rt_rmv_dly
    rt_event.o(i.rt_evt_psh) refers to hal_cm.o(i.rt_ret_val2) for rt_ret_val2
    rt_event.o(i.rt_evt_psh) refers to rt_list.o(i.rt_put_prio) for rt_put_prio
    rt_event.o(i.rt_evt_psh) refers to rt_list.o(.bss) for os_rdy
    rt_event.o(i.rt_evt_set) refers to rt_list.o(i.rt_rmv_dly) for rt_rmv_dly
    rt_event.o(i.rt_evt_set) refers to hal_cm.o(i.rt_ret_val2) for rt_ret_val2
    rt_event.o(i.rt_evt_set) refers to rt_task.o(i.rt_dispatch) for rt_dispatch
    rt_event.o(i.rt_evt_set) refers to rtx_conf_cm.o(.bss) for os_active_TCB
    rt_event.o(i.rt_evt_wait) refers to rt_task.o(i.rt_block) for rt_block
    rt_event.o(i.rt_evt_wait) refers to rt_task.o(.data) for os_tsk
    rt_list.o(i.rt_dec_dly) refers to rt_list.o(i.rt_put_prio) for rt_put_prio
    rt_list.o(i.rt_dec_dly) refers to rt_list.o(.bss) for .bss
    rt_list.o(i.rt_dec_dly) refers to rt_time.o(.data) for os_time
    rt_list.o(i.rt_get_same_rdy_prio) refers to rt_list.o(.bss) for .bss
    rt_list.o(i.rt_get_same_rdy_prio) refers to rt_task.o(.data) for os_tsk
    rt_list.o(i.rt_psq_enq) refers to rtx_conf_cm.o(.text) for os_error
    rt_list.o(i.rt_psq_enq) refers to rtx_conf_cm.o(.bss) for os_fifo
    rt_list.o(i.rt_put_dly) refers to rt_list.o(.bss) for .bss
    rt_list.o(i.rt_put_rdy_first) refers to rt_list.o(.bss) for .bss
    rt_list.o(i.rt_resort_prio) refers to rt_list.o(i.rt_rmv_list) for rt_rmv_list
    rt_list.o(i.rt_resort_prio) refers to rt_list.o(i.rt_put_prio) for rt_put_prio
    rt_list.o(i.rt_resort_prio) refers to rt_list.o(.bss) for .bss
    rt_list.o(i.rt_rmv_list) refers to rt_list.o(.bss) for .bss
    rt_mailbox.o(i.isr_mbx_receive) refers to rt_list.o(i.rt_psq_enq) for rt_psq_enq
    rt_mailbox.o(i.isr_mbx_receive) refers to rt_system.o(i.rt_psh_req) for rt_psh_req
    rt_mailbox.o(i.isr_mbx_send) refers to rt_list.o(i.rt_psq_enq) for rt_psq_enq
    rt_mailbox.o(i.isr_mbx_send) refers to rt_system.o(i.rt_psh_req) for rt_psh_req
    rt_mailbox.o(i.rt_mbx_psh) refers to rt_membox.o(i.rt_alloc_box) for rt_alloc_box
    rt_mailbox.o(i.rt_mbx_psh) refers to rt_list.o(i.rt_get_first) for rt_get_first
    rt_mailbox.o(i.rt_mbx_psh) refers to hal_cm.o(i.rt_ret_val) for rt_ret_val
    rt_mailbox.o(i.rt_mbx_psh) refers to rt_list.o(i.rt_rmv_dly) for rt_rmv_dly
    rt_mailbox.o(i.rt_mbx_psh) refers to rt_list.o(i.rt_put_prio) for rt_put_prio
    rt_mailbox.o(i.rt_mbx_psh) refers to hal_cm.o(i.rt_ret_val2) for rt_ret_val2
    rt_mailbox.o(i.rt_mbx_psh) refers to rtx_conf_cm.o(.text) for os_error
    rt_mailbox.o(i.rt_mbx_psh) refers to rt_list.o(.bss) for os_rdy
    rt_mailbox.o(i.rt_mbx_send) refers to rt_list.o(i.rt_put_prio) for rt_put_prio
    rt_mailbox.o(i.rt_mbx_send) refers to rt_list.o(i.rt_get_first) for rt_get_first
    rt_mailbox.o(i.rt_mbx_send) refers to hal_cm.o(i.rt_ret_val2) for rt_ret_val2
    rt_mailbox.o(i.rt_mbx_send) refers to rt_list.o(i.rt_rmv_dly) for rt_rmv_dly
    rt_mailbox.o(i.rt_mbx_send) refers to rt_task.o(i.rt_dispatch) for rt_dispatch
    rt_mailbox.o(i.rt_mbx_send) refers to rt_task.o(i.rt_block) for rt_block
    rt_mailbox.o(i.rt_mbx_send) refers to rt_task.o(.data) for os_tsk
    rt_mailbox.o(i.rt_mbx_wait) refers to rt_list.o(i.rt_get_first) for rt_get_first
    rt_mailbox.o(i.rt_mbx_wait) refers to hal_cm.o(i.rt_ret_val) for rt_ret_val
    rt_mailbox.o(i.rt_mbx_wait) refers to rt_list.o(i.rt_rmv_dly) for rt_rmv_dly
    rt_mailbox.o(i.rt_mbx_wait) refers to rt_task.o(i.rt_dispatch) for rt_dispatch
    rt_mailbox.o(i.rt_mbx_wait) refers to rt_list.o(i.rt_put_prio) for rt_put_prio
    rt_mailbox.o(i.rt_mbx_wait) refers to rt_task.o(i.rt_block) for rt_block
    rt_mailbox.o(i.rt_mbx_wait) refers to rt_task.o(.data) for os_tsk
    rt_semaphore.o(i.isr_sem_send) refers to rt_list.o(i.rt_psq_enq) for rt_psq_enq
    rt_semaphore.o(i.isr_sem_send) refers to rt_system.o(i.rt_psh_req) for rt_psh_req
    rt_semaphore.o(i.rt_sem_delete) refers to rt_list.o(i.rt_get_first) for rt_get_first
    rt_semaphore.o(i.rt_sem_delete) refers to hal_cm.o(i.rt_ret_val) for rt_ret_val
    rt_semaphore.o(i.rt_sem_delete) refers to rt_list.o(i.rt_rmv_dly) for rt_rmv_dly
    rt_semaphore.o(i.rt_sem_delete) refers to rt_list.o(i.rt_put_prio) for rt_put_prio
    rt_semaphore.o(i.rt_sem_delete) refers to rt_task.o(i.rt_dispatch) for rt_dispatch
    rt_semaphore.o(i.rt_sem_delete) refers to rt_list.o(.bss) for os_rdy
    rt_semaphore.o(i.rt_sem_delete) refers to rt_task.o(.data) for os_tsk
    rt_semaphore.o(i.rt_sem_psh) refers to rt_list.o(i.rt_get_first) for rt_get_first
    rt_semaphore.o(i.rt_sem_psh) refers to rt_list.o(i.rt_rmv_dly) for rt_rmv_dly
    rt_semaphore.o(i.rt_sem_psh) refers to hal_cm.o(i.rt_ret_val) for rt_ret_val
    rt_semaphore.o(i.rt_sem_psh) refers to rt_list.o(i.rt_put_prio) for rt_put_prio
    rt_semaphore.o(i.rt_sem_psh) refers to rt_list.o(.bss) for os_rdy
    rt_semaphore.o(i.rt_sem_send) refers to rt_list.o(i.rt_get_first) for rt_get_first
    rt_semaphore.o(i.rt_sem_send) refers to hal_cm.o(i.rt_ret_val) for rt_ret_val
    rt_semaphore.o(i.rt_sem_send) refers to rt_list.o(i.rt_rmv_dly) for rt_rmv_dly
    rt_semaphore.o(i.rt_sem_send) refers to rt_task.o(i.rt_dispatch) for rt_dispatch
    rt_semaphore.o(i.rt_sem_wait) refers to rt_list.o(i.rt_put_prio) for rt_put_prio
    rt_semaphore.o(i.rt_sem_wait) refers to rt_task.o(i.rt_block) for rt_block
    rt_semaphore.o(i.rt_sem_wait) refers to rt_task.o(.data) for os_tsk
    rt_time.o(i.rt_dly_wait) refers to rt_task.o(i.rt_block) for rt_block
    rt_time.o(i.rt_itv_set) refers to rt_task.o(.data) for os_tsk
    rt_time.o(i.rt_itv_set) refers to rt_time.o(.data) for .data
    rt_time.o(i.rt_itv_wait) refers to rt_task.o(i.rt_block) for rt_block
    rt_time.o(i.rt_itv_wait) refers to rt_task.o(.data) for os_tsk
    rt_time.o(i.rt_itv_wait) refers to rt_time.o(.data) for .data
    rt_time.o(i.rt_time_get) refers to rt_time.o(.data) for .data
    rt_robin.o(i.rt_chk_robin) refers to rt_list.o(i.rt_get_first) for rt_get_first
    rt_robin.o(i.rt_chk_robin) refers to rt_list.o(i.rt_put_prio) for rt_put_prio
    rt_robin.o(i.rt_chk_robin) refers to rt_robin.o(.data) for .data
    rt_robin.o(i.rt_chk_robin) refers to rt_list.o(.bss) for os_rdy
    rt_robin.o(i.rt_chk_robin) refers to rt_time.o(.data) for os_time
    rt_robin.o(i.rt_init_robin) refers to rt_robin.o(.data) for .data
    rt_robin.o(i.rt_init_robin) refers to rtx_conf_cm.o(.constdata) for os_rrobin
    rt_membox.o(i._calloc_box) refers to hal_cm4.o(.emb_text) for _alloc_box
    hal_cm.o(i.dbg_init) refers to hal_cm.o(.data) for .data
    hal_cm.o(i.rt_init_stack) refers to rtx_conf_cm.o(.constdata) for os_stackinfo
    hal_cm.o(i.rt_ret_val) refers to hal_cm.o(i.rt_ret_regs) for rt_ret_regs
    hal_cm.o(i.rt_ret_val2) refers to hal_cm.o(i.rt_ret_regs) for rt_ret_regs
    hal_cm4.o(.emb_text) refers to rtx_conf_cm.o(.constdata) for os_flags
    hal_cm4.o(.emb_text) refers to rt_membox.o(i.rt_alloc_box) for rt_alloc_box
    hal_cm4.o(.emb_text) refers to rt_membox.o(i.rt_free_box) for rt_free_box
    hal_cm4.o(.emb_text) refers to rt_system.o(i.rt_stk_check) for rt_stk_check
    hal_cm4.o(.emb_text) refers to rt_task.o(.data) for os_tsk
    hal_cm4.o(.emb_text) refers to svc_table.o(SVC_TABLE) for SVC_Count
    hal_cm4.o(.emb_text) refers to rt_system.o(i.rt_pop_req) for rt_pop_req
    hal_cm4.o(.emb_text) refers to rt_system.o(i.rt_systick) for rt_systick
    hal_cm4.o(.emb_text) refers to rt_system.o(i.os_tick_irqack) for os_tick_irqack
    libspace.o(.text) refers to libspace.o(.bss) for __libspace_start
    exit.o(.text) refers to rtexit.o(.ARM.Collect$$rtexit$$00000000) for __rt_exit
    __main.o(!!!main) refers to __rtentry.o(.ARM.Collect$$rtentry$$00000000) for __rt_entry
    __rtentry.o(.ARM.Collect$$rtentry$$00000000) refers (Special) to __rtentry2.o(.ARM.Collect$$rtentry$$0000000A) for __rt_entry_li
    __rtentry.o(.ARM.Collect$$rtentry$$00000000) refers (Special) to __rtentry2.o(.ARM.Collect$$rtentry$$0000000D) for __rt_entry_main
    __rtentry.o(.ARM.Collect$$rtentry$$00000000) refers (Special) to __rtentry2.o(.ARM.Collect$$rtentry$$0000000B) for __rt_entry_postli_1
    __rtentry.o(.ARM.Collect$$rtentry$$00000000) refers (Special) to __rtentry2.o(.ARM.Collect$$rtentry$$00000009) for __rt_entry_postsh_1
    __rtentry.o(.ARM.Collect$$rtentry$$00000000) refers (Special) to __rtentry2.o(.ARM.Collect$$rtentry$$00000002) for __rt_entry_presh_1
    __rtentry.o(.ARM.Collect$$rtentry$$00000000) refers (Special) to __rtentry4.o(.ARM.Collect$$rtentry$$00000004) for __rt_entry_sh
    rtexit.o(.ARM.Collect$$rtexit$$00000000) refers (Special) to rtexit2.o(.ARM.Collect$$rtexit$$00000004) for __rt_exit_exit
    rtexit.o(.ARM.Collect$$rtexit$$00000000) refers (Special) to rtexit2.o(.ARM.Collect$$rtexit$$00000003) for __rt_exit_ls
    rtexit.o(.ARM.Collect$$rtexit$$00000000) refers (Special) to rtexit2.o(.ARM.Collect$$rtexit$$00000002) for __rt_exit_prels_1
    rtexit.o(.ARM.exidx) refers (Special) to rtexit2.o(.ARM.Collect$$rtexit$$00000004) for __rt_exit_exit
    rtexit.o(.ARM.exidx) refers (Special) to rtexit2.o(.ARM.Collect$$rtexit$$00000003) for __rt_exit_ls
    rtexit.o(.ARM.exidx) refers (Special) to rtexit2.o(.ARM.Collect$$rtexit$$00000002) for __rt_exit_prels_1
    rtexit.o(.ARM.exidx) refers to rtexit.o(.ARM.Collect$$rtexit$$00000000) for .ARM.Collect$$rtexit$$00000000
    aeabi_ldiv0_sigfpe.o(.text) refers to rt_div0.o(.text) for __rt_div0
    __rtentry2.o(.ARM.Collect$$rtentry$$00000008) refers to boardinit2.o(.text) for _platform_post_stackheap_init
    __rtentry2.o(.ARM.Collect$$rtentry$$0000000A) refers to libinit.o(.ARM.Collect$$libinit$$00000000) for __rt_lib_init
    __rtentry2.o(.ARM.Collect$$rtentry$$0000000B) refers to rtx_conf_cm.o(.emb_text) for _platform_post_lib_init
    __rtentry2.o(.ARM.Collect$$rtentry$$0000000D) refers to blinky.o(.text) for main
    __rtentry2.o(.ARM.Collect$$rtentry$$0000000D) refers to exit.o(.text) for exit
    __rtentry2.o(.ARM.exidx) refers to __rtentry2.o(.ARM.Collect$$rtentry$$00000001) for .ARM.Collect$$rtentry$$00000001
    __rtentry2.o(.ARM.exidx) refers to __rtentry2.o(.ARM.Collect$$rtentry$$00000008) for .ARM.Collect$$rtentry$$00000008
    __rtentry2.o(.ARM.exidx) refers to __rtentry2.o(.ARM.Collect$$rtentry$$0000000A) for .ARM.Collect$$rtentry$$0000000A
    __rtentry2.o(.ARM.exidx) refers to __rtentry2.o(.ARM.Collect$$rtentry$$0000000B) for .ARM.Collect$$rtentry$$0000000B
    __rtentry2.o(.ARM.exidx) refers to __rtentry2.o(.ARM.Collect$$rtentry$$0000000D) for .ARM.Collect$$rtentry$$0000000D
    __rtentry4.o(.ARM.Collect$$rtentry$$00000004) refers to sys_stackheap_outer.o(.text) for __user_setup_stackheap
    __rtentry4.o(.ARM.exidx) refers to __rtentry4.o(.ARM.Collect$$rtentry$$00000004) for .ARM.Collect$$rtentry$$00000004
    rtexit2.o(.ARM.Collect$$rtexit$$00000003) refers to libshutdown.o(.ARM.Collect$$libshutdown$$00000000) for __rt_lib_shutdown
    rtexit2.o(.ARM.Collect$$rtexit$$00000004) refers to sys_exit.o(.text) for _sys_exit
    rtexit2.o(.ARM.exidx) refers to rtexit2.o(.ARM.Collect$$rtexit$$00000001) for .ARM.Collect$$rtexit$$00000001
    rtexit2.o(.ARM.exidx) refers to rtexit2.o(.ARM.Collect$$rtexit$$00000003) for .ARM.Collect$$rtexit$$00000003
    rtexit2.o(.ARM.exidx) refers to rtexit2.o(.ARM.Collect$$rtexit$$00000004) for .ARM.Collect$$rtexit$$00000004
    rt_div0.o(.text) refers to defsig_fpe_outer.o(.text) for __rt_SIGFPE
    sys_exit.o(.text) refers (Special) to use_no_semi.o(.text) for __I$use$semihosting
    sys_exit.o(.text) refers (Special) to indicate_semi.o(.text) for __semihosting_library_function
    sys_stackheap_outer.o(.text) refers to libspace.o(.text) for __user_perproc_libspace
    sys_stackheap_outer.o(.text) refers to startup_tm4c129.o(.text) for __user_initial_stackheap
    defsig_fpe_outer.o(.text) refers to defsig_fpe_inner.o(.text) for __rt_SIGFPE_inner
    defsig_fpe_outer.o(.text) refers to defsig_exit.o(.text) for __sig_exit
    defsig_fpe_formal.o(.text) refers to rt_raise.o(.text) for __rt_raise
    libinit.o(.ARM.Collect$$libinit$$00000000) refers (Special) to libinit2.o(.ARM.Collect$$libinit$$0000002E) for __rt_lib_init_alloca_1
    libinit.o(.ARM.Collect$$libinit$$00000000) refers (Special) to libinit2.o(.ARM.Collect$$libinit$$0000002C) for __rt_lib_init_argv_1
    libinit.o(.ARM.Collect$$libinit$$00000000) refers (Special) to libinit2.o(.ARM.Collect$$libinit$$0000001B) for __rt_lib_init_atexit_1
    libinit.o(.ARM.Collect$$libinit$$00000000) refers (Special) to libinit2.o(.ARM.Collect$$libinit$$00000021) for __rt_lib_init_clock_1
    libinit.o(.ARM.Collect$$libinit$$00000000) refers (Special) to libinit2.o(.ARM.Collect$$libinit$$00000032) for __rt_lib_init_cpp_1
    libinit.o(.ARM.Collect$$libinit$$00000000) refers (Special) to libinit2.o(.ARM.Collect$$libinit$$00000030) for __rt_lib_init_exceptions_1
    libinit.o(.ARM.Collect$$libinit$$00000000) refers (Special) to libinit2.o(.ARM.Collect$$libinit$$00000001) for __rt_lib_init_fp_1
    libinit.o(.ARM.Collect$$libinit$$00000000) refers (Special) to libinit2.o(.ARM.Collect$$libinit$$0000001F) for __rt_lib_init_fp_trap_1
    libinit.o(.ARM.Collect$$libinit$$00000000) refers (Special) to libinit2.o(.ARM.Collect$$libinit$$00000023) for __rt_lib_init_getenv_1
    libinit.o(.ARM.Collect$$libinit$$00000000) refers (Special) to libinit2.o(.ARM.Collect$$libinit$$0000000A) for __rt_lib_init_heap_1
    libinit.o(.ARM.Collect$$libinit$$00000000) refers (Special) to libinit2.o(.ARM.Collect$$libinit$$00000011) for __rt_lib_init_lc_collate_1
    libinit.o(.ARM.Collect$$libinit$$00000000) refers (Special) to libinit2.o(.ARM.Collect$$libinit$$00000013) for __rt_lib_init_lc_ctype_1
    libinit.o(.ARM.Collect$$libinit$$00000000) refers (Special) to libinit2.o(.ARM.Collect$$libinit$$00000015) for __rt_lib_init_lc_monetary_1
    libinit.o(.ARM.Collect$$libinit$$00000000) refers (Special) to libinit2.o(.ARM.Collect$$libinit$$00000017) for __rt_lib_init_lc_numeric_1
    libinit.o(.ARM.Collect$$libinit$$00000000) refers (Special) to libinit2.o(.ARM.Collect$$libinit$$00000019) for __rt_lib_init_lc_time_1
    libinit.o(.ARM.Collect$$libinit$$00000000) refers (Special) to libinit2.o(.ARM.Collect$$libinit$$00000004) for __rt_lib_init_preinit_1
    libinit.o(.ARM.Collect$$libinit$$00000000) refers (Special) to libinit2.o(.ARM.Collect$$libinit$$0000000E) for __rt_lib_init_rand_1
    libinit.o(.ARM.Collect$$libinit$$00000000) refers (Special) to libinit2.o(.ARM.Collect$$libinit$$00000033) for __rt_lib_init_return
    libinit.o(.ARM.Collect$$libinit$$00000000) refers (Special) to libinit2.o(.ARM.Collect$$libinit$$0000001D) for __rt_lib_init_signal_1
    libinit.o(.ARM.Collect$$libinit$$00000000) refers (Special) to libinit2.o(.ARM.Collect$$libinit$$00000025) for __rt_lib_init_stdio_1
    libinit.o(.ARM.Collect$$libinit$$00000000) refers (Special) to libinit2.o(.ARM.Collect$$libinit$$0000000C) for __rt_lib_init_user_alloc_1
    libshutdown.o(.ARM.Collect$$libshutdown$$00000000) refers (Special) to libshutdown2.o(.ARM.Collect$$libshutdown$$00000002) for __rt_lib_shutdown_cpp_1
    libshutdown.o(.ARM.Collect$$libshutdown$$00000000) refers (Special) to libshutdown2.o(.ARM.Collect$$libshutdown$$00000007) for __rt_lib_shutdown_fp_trap_1
    libshutdown.o(.ARM.Collect$$libshutdown$$00000000) refers (Special) to libshutdown2.o(.ARM.Collect$$libshutdown$$0000000F) for __rt_lib_shutdown_heap_1
    libshutdown.o(.ARM.Collect$$libshutdown$$00000000) refers (Special) to libshutdown2.o(.ARM.Collect$$libshutdown$$00000010) for __rt_lib_shutdown_return
    libshutdown.o(.ARM.Collect$$libshutdown$$00000000) refers (Special) to libshutdown2.o(.ARM.Collect$$libshutdown$$0000000A) for __rt_lib_shutdown_signal_1
    libshutdown.o(.ARM.Collect$$libshutdown$$00000000) refers (Special) to libshutdown2.o(.ARM.Collect$$libshutdown$$00000004) for __rt_lib_shutdown_stdio_1
    libshutdown.o(.ARM.Collect$$libshutdown$$00000000) refers (Special) to libshutdown2.o(.ARM.Collect$$libshutdown$$0000000C) for __rt_lib_shutdown_user_alloc_1
    rt_raise.o(.text) refers to __raise.o(.text) for __raise
    rt_raise.o(.text) refers to sys_exit.o(.text) for _sys_exit
    defsig_exit.o(.text) refers to sys_exit.o(.text) for _sys_exit
    defsig_fpe_inner.o(.text) refers to defsig_general.o(.text) for __default_signal_display
    libinit2.o(.ARM.Collect$$libinit$$00000001) refers to fpinit.o(x$fpl$fpinit) for _fp_init
    libinit2.o(.ARM.Collect$$libinit$$00000010) refers to libinit2.o(.ARM.Collect$$libinit$$0000000F) for .ARM.Collect$$libinit$$0000000F
    libinit2.o(.ARM.Collect$$libinit$$00000012) refers to libinit2.o(.ARM.Collect$$libinit$$0000000F) for .ARM.Collect$$libinit$$0000000F
    libinit2.o(.ARM.Collect$$libinit$$00000014) refers to libinit2.o(.ARM.Collect$$libinit$$0000000F) for .ARM.Collect$$libinit$$0000000F
    libinit2.o(.ARM.Collect$$libinit$$00000016) refers to libinit2.o(.ARM.Collect$$libinit$$0000000F) for .ARM.Collect$$libinit$$0000000F
    libinit2.o(.ARM.Collect$$libinit$$00000018) refers to libinit2.o(.ARM.Collect$$libinit$$0000000F) for .ARM.Collect$$libinit$$0000000F
    libinit2.o(.ARM.Collect$$libinit$$00000026) refers to argv_veneer.o(.emb_text) for __ARM_argv_veneer
    libinit2.o(.ARM.Collect$$libinit$$00000027) refers to argv_veneer.o(.emb_text) for __ARM_argv_veneer
    __raise.o(.text) refers to defsig.o(CL$$defsig) for __default_signal_handler
    defsig_general.o(.text) refers to sys_wrch.o(.text) for _ttywrch
    argv_veneer.o(.emb_text) refers to no_argv.o(.text) for __ARM_get_argv
    sys_wrch.o(.text) refers (Special) to use_no_semi.o(.text) for __I$use$semihosting
    sys_wrch.o(.text) refers (Special) to indicate_semi.o(.text) for __semihosting_library_function
    defsig.o(CL$$defsig) refers to defsig_fpe_inner.o(.text) for __rt_SIGFPE_inner
    defsig.o(CL$$defsig) refers to defsig_rtmem_inner.o(.text) for __rt_SIGRTMEM_inner
    _get_argv_nomalloc.o(.text) refers (Special) to hrguard.o(.text) for __heap_region$guard
    _get_argv_nomalloc.o(.text) refers to defsig_rtmem_outer.o(.text) for __rt_SIGRTMEM
    _get_argv_nomalloc.o(.text) refers to sys_command.o(.text) for _sys_command_string
    sys_command.o(.text) refers (Special) to use_no_semi.o(.text) for __I$use$semihosting
    sys_command.o(.text) refers (Special) to indicate_semi.o(.text) for __semihosting_library_function
    defsig_abrt_inner.o(.text) refers to defsig_general.o(.text) for __default_signal_display
    defsig_rtred_inner.o(.text) refers to defsig_general.o(.text) for __default_signal_display
    defsig_rtmem_inner.o(.text) refers to defsig_general.o(.text) for __default_signal_display
    defsig_rtmem_outer.o(.text) refers to defsig_rtmem_inner.o(.text) for __rt_SIGRTMEM_inner
    defsig_rtmem_outer.o(.text) refers to defsig_exit.o(.text) for __sig_exit
    defsig_rtmem_formal.o(.text) refers to rt_raise.o(.text) for __rt_raise
    defsig_stak_inner.o(.text) refers to defsig_general.o(.text) for __default_signal_display
    defsig_pvfn_inner.o(.text) refers to defsig_general.o(.text) for __default_signal_display
    defsig_cppl_inner.o(.text) refers to defsig_general.o(.text) for __default_signal_display
    defsig_segv_inner.o(.text) refers to defsig_general.o(.text) for __default_signal_display
    defsig_other.o(.text) refers to defsig_general.o(.text) for __default_signal_display


==============================================================================

Removing Unused input sections from the image.

    Removing led.o(.rev16_text), (4 bytes).
    Removing led.o(.revsh_text), (4 bytes).
    Removing led.o(.rrx_text), (6 bytes).
    Removing blinky.o(.rev16_text), (4 bytes).
    Removing blinky.o(.revsh_text), (4 bytes).
    Removing blinky.o(.rrx_text), (6 bytes).
    Removing system_tm4c129.o(.rev16_text), (4 bytes).
    Removing system_tm4c129.o(.revsh_text), (4 bytes).
    Removing system_tm4c129.o(.rrx_text), (6 bytes).
    Removing sysctl.o(.emb_text), (6 bytes).
    Removing sysctl.o(i.SysCtlAltClkConfig), (12 bytes).
    Removing sysctl.o(i.SysCtlClockFreqSet), (748 bytes).
    Removing sysctl.o(i.SysCtlClockGet), (340 bytes).
    Removing sysctl.o(i.SysCtlClockOutConfig), (20 bytes).
    Removing sysctl.o(i.SysCtlClockSet), (288 bytes).
    Removing sysctl.o(i.SysCtlDeepSleep), (32 bytes).
    Removing sysctl.o(i.SysCtlDeepSleepClockConfigSet), (112 bytes).
    Removing sysctl.o(i.SysCtlDeepSleepClockSet), (12 bytes).
    Removing sysctl.o(i.SysCtlFlashSectorSizeGet), (56 bytes).
    Removing sysctl.o(i.SysCtlFlashSizeGet), (56 bytes).
    Removing sysctl.o(i.SysCtlGPIOAHBDisable), (28 bytes).
    Removing sysctl.o(i.SysCtlGPIOAHBEnable), (24 bytes).
    Removing sysctl.o(i.SysCtlIntClear), (12 bytes).
    Removing sysctl.o(i.SysCtlIntDisable), (16 bytes).
    Removing sysctl.o(i.SysCtlIntEnable), (16 bytes).
    Removing sysctl.o(i.SysCtlIntRegister), (20 bytes).
    Removing sysctl.o(i.SysCtlIntStatus), (16 bytes).
    Removing sysctl.o(i.SysCtlIntUnregister), (18 bytes).
    Removing sysctl.o(i.SysCtlLDODeepSleepGet), (12 bytes).
    Removing sysctl.o(i.SysCtlLDODeepSleepSet), (12 bytes).
    Removing sysctl.o(i.SysCtlLDOSleepGet), (12 bytes).
    Removing sysctl.o(i.SysCtlLDOSleepSet), (12 bytes).
    Removing sysctl.o(i.SysCtlMOSCConfigSet), (12 bytes).
    Removing sysctl.o(i.SysCtlNMIClear), (16 bytes).
    Removing sysctl.o(i.SysCtlNMIStatus), (12 bytes).
    Removing sysctl.o(i.SysCtlPIOSCCalibrate), (76 bytes).
    Removing sysctl.o(i.SysCtlPWMClockGet), (24 bytes).
    Removing sysctl.o(i.SysCtlPWMClockSet), (20 bytes).
    Removing sysctl.o(i.SysCtlPeripheralClockGating), (68 bytes).
    Removing sysctl.o(i.SysCtlPeripheralDeepSleepDisable), (40 bytes).
    Removing sysctl.o(i.SysCtlPeripheralDeepSleepEnable), (40 bytes).
    Removing sysctl.o(i.SysCtlPeripheralDisable), (40 bytes).
    Removing sysctl.o(i.SysCtlPeripheralEnable), (40 bytes).
    Removing sysctl.o(i.SysCtlPeripheralPowerOff), (40 bytes).
    Removing sysctl.o(i.SysCtlPeripheralPowerOn), (40 bytes).
    Removing sysctl.o(i.SysCtlPeripheralPresent), (44 bytes).
    Removing sysctl.o(i.SysCtlPeripheralReady), (44 bytes).
    Removing sysctl.o(i.SysCtlPeripheralReset), (60 bytes).
    Removing sysctl.o(i.SysCtlPeripheralSleepDisable), (40 bytes).
    Removing sysctl.o(i.SysCtlPeripheralSleepEnable), (40 bytes).
    Removing sysctl.o(i.SysCtlReset), (16 bytes).
    Removing sysctl.o(i.SysCtlResetBehaviorGet), (12 bytes).
    Removing sysctl.o(i.SysCtlResetBehaviorSet), (12 bytes).
    Removing sysctl.o(i.SysCtlResetCauseClear), (16 bytes).
    Removing sysctl.o(i.SysCtlResetCauseGet), (12 bytes).
    Removing sysctl.o(i.SysCtlSRAMSizeGet), (16 bytes).
    Removing sysctl.o(i.SysCtlSleep), (4 bytes).
    Removing sysctl.o(i.SysCtlSleepPowerSet), (12 bytes).
    Removing sysctl.o(i.SysCtlUSBPLLDisable), (16 bytes).
    Removing sysctl.o(i.SysCtlUSBPLLEnable), (16 bytes).
    Removing sysctl.o(i.SysCtlVCOGet), (120 bytes).
    Removing sysctl.o(i.SysCtlVoltageEventClear), (16 bytes).
    Removing sysctl.o(i.SysCtlVoltageEventConfig), (12 bytes).
    Removing sysctl.o(i.SysCtlVoltageEventStatus), (12 bytes).
    Removing sysctl.o(.constdata), (596 bytes).
    Removing context.o(i.GrContextClipRegionSet), (112 bytes).
    Removing context.o(i.GrLibInit), (12 bytes).
    Removing rectangle.o(i.GrRectIntersectGet), (140 bytes).
    Removing rectangle.o(i.GrRectOverlapCheck), (56 bytes).
    Removing string.o(i.GrCodepageMapTableSet), (10 bytes).
    Removing string.o(i.GrFontBlockCodepointsGet), (84 bytes).
    Removing string.o(i.GrFontCodepageGet), (32 bytes).
    Removing string.o(i.GrFontHeightGet), (44 bytes).
    Removing string.o(i.GrFontInfoGet), (48 bytes).
    Removing string.o(i.GrFontMaxWidthGet), (44 bytes).
    Removing string.o(i.GrFontNumBlocksGet), (32 bytes).
    Removing string.o(i.GrStringCodepageSet), (6 bytes).
    Removing string.o(i.GrStringGet), (596 bytes).
    Removing string.o(i.GrStringLanguageSet), (48 bytes).
    Removing string.o(i.GrStringNextCharGet), (52 bytes).
    Removing string.o(i.GrStringTableSet), (36 bytes).
    Removing string.o(.data), (20 bytes).
    Removing rt_cmsis.o(.rev16_text), (4 bytes).
    Removing rt_cmsis.o(.revsh_text), (4 bytes).
    Removing rt_cmsis.o(.rrx_text), (6 bytes).
    Removing rt_cmsis.o(i.isrSemaphoreRelease), (40 bytes).
    Removing rt_cmsis.o(i.osKernelRunning), (36 bytes).
    Removing rt_cmsis.o(i.osKernelSysTick), (24 bytes).
    Removing rt_cmsis.o(i.osMailAlloc), (28 bytes).
    Removing rt_cmsis.o(i.osMailCAlloc), (48 bytes).
    Removing rt_cmsis.o(i.osMailCreate), (44 bytes).
    Removing rt_cmsis.o(i.osMailFree), (28 bytes).
    Removing rt_cmsis.o(i.osMailGet), (22 bytes).
    Removing rt_cmsis.o(i.osMailPut), (20 bytes).
    Removing rt_cmsis.o(i.osMessageCreate), (44 bytes).
    Removing rt_cmsis.o(i.osMessagePut), (24 bytes).
    Removing rt_cmsis.o(i.osMutexCreate), (44 bytes).
    Removing rt_cmsis.o(i.osMutexDelete), (24 bytes).
    Removing rt_cmsis.o(i.osMutexRelease), (24 bytes).
    Removing rt_cmsis.o(i.osMutexWait), (24 bytes).
    Removing rt_cmsis.o(i.osPoolAlloc), (32 bytes).
    Removing rt_cmsis.o(i.osPoolCAlloc), (52 bytes).
    Removing rt_cmsis.o(i.osPoolCreate), (44 bytes).
    Removing rt_cmsis.o(i.osPoolFree), (32 bytes).
    Removing rt_cmsis.o(i.osSemaphoreCreate), (44 bytes).
    Removing rt_cmsis.o(i.osSemaphoreDelete), (24 bytes).
    Removing rt_cmsis.o(i.osSemaphoreRelease), (24 bytes).
    Removing rt_cmsis.o(i.osSemaphoreWait), (24 bytes).
    Removing rt_cmsis.o(i.osSignalClear), (24 bytes).
    Removing rt_cmsis.o(i.osThreadGetId), (24 bytes).
    Removing rt_cmsis.o(i.osThreadGetPriority), (24 bytes).
    Removing rt_cmsis.o(i.osThreadSetPriority), (24 bytes).
    Removing rt_cmsis.o(i.osThreadTerminate), (24 bytes).
    Removing rt_cmsis.o(i.osThreadYield), (24 bytes).
    Removing rt_cmsis.o(i.osTimerCreate), (44 bytes).
    Removing rt_cmsis.o(i.osTimerDelete), (24 bytes).
    Removing rt_cmsis.o(i.osTimerStart), (24 bytes).
    Removing rt_cmsis.o(i.osTimerStop), (24 bytes).
    Removing rt_cmsis.o(i.osWait), (4 bytes).
    Removing rt_cmsis.o(i.os_resume), (12 bytes).
    Removing rt_cmsis.o(i.os_suspend), (12 bytes).
    Removing rt_cmsis.o(i.rt_clr_box), (24 bytes).
    Removing rt_cmsis.o(i.rt_timer_remove), (60 bytes).
    Removing rt_cmsis.o(i.svcKernelRunning), (12 bytes).
    Removing rt_cmsis.o(i.svcKernelSysTick), (56 bytes).
    Removing rt_cmsis.o(i.svcMailCreate), (66 bytes).
    Removing rt_cmsis.o(i.svcMessagePut), (54 bytes).
    Removing rt_cmsis.o(i.svcMutexCreate), (28 bytes).
    Removing rt_cmsis.o(i.svcMutexDelete), (26 bytes).
    Removing rt_cmsis.o(i.svcMutexRelease), (34 bytes).
    Removing rt_cmsis.o(i.svcMutexWait), (58 bytes).
    Removing rt_cmsis.o(i.svcPoolCreate), (40 bytes).
    Removing rt_cmsis.o(i.svcSemaphoreCreate), (36 bytes).
    Removing rt_cmsis.o(i.svcSemaphoreDelete), (26 bytes).
    Removing rt_cmsis.o(i.svcSemaphoreRelease), (40 bytes).
    Removing rt_cmsis.o(i.svcSemaphoreWait), (50 bytes).
    Removing rt_cmsis.o(i.svcSignalClear), (36 bytes).
    Removing rt_cmsis.o(i.svcThreadGetPriority), (18 bytes).
    Removing rt_cmsis.o(i.svcThreadSetPriority), (46 bytes).
    Removing rt_cmsis.o(i.svcThreadYield), (10 bytes).
    Removing rt_cmsis.o(i.svcTimerCreate), (56 bytes).
    Removing rt_cmsis.o(i.svcTimerDelete), (40 bytes).
    Removing rt_cmsis.o(i.svcTimerStart), (100 bytes).
    Removing rt_cmsis.o(i.svcTimerStop), (36 bytes).
    Removing rt_cmsis.o(i.sysMailAlloc), (88 bytes).
    Removing rt_cmsis.o(i.sysMailFree), (96 bytes).
    Removing rt_cmsis.o(i.sysPoolAlloc), (10 bytes).
    Removing rt_cmsis.o(i.sysPoolFree), (20 bytes).
    Removing rt_cmsis.o(i.sysUserTimerUpdate), (48 bytes).
    Removing rt_cmsis.o(i.sysUserTimerWakeupTime), (20 bytes).
    Removing rt_task.o(i.rt_tsk_pass), (48 bytes).
    Removing rt_mutex.o(i.rt_mut_delete), (176 bytes).
    Removing cpu.o(.emb_text), (38 bytes).
    Removing interrupt.o(i.IntDisable), (100 bytes).
    Removing interrupt.o(i.IntEnable), (100 bytes).
    Removing interrupt.o(i.IntIsEnabled), (96 bytes).
    Removing interrupt.o(i.IntMasterDisable), (14 bytes).
    Removing interrupt.o(i.IntMasterEnable), (14 bytes).
    Removing interrupt.o(i.IntPendClear), (68 bytes).
    Removing interrupt.o(i.IntPendSet), (84 bytes).
    Removing interrupt.o(i.IntPriorityGet), (28 bytes).
    Removing interrupt.o(i.IntPriorityGroupingGet), (36 bytes).
    Removing interrupt.o(i.IntPriorityGroupingSet), (28 bytes).
    Removing interrupt.o(i.IntPriorityMaskGet), (4 bytes).
    Removing interrupt.o(i.IntPriorityMaskSet), (4 bytes).
    Removing interrupt.o(i.IntPrioritySet), (40 bytes).
    Removing interrupt.o(i.IntRegister), (52 bytes).
    Removing interrupt.o(i.IntTrigger), (12 bytes).
    Removing interrupt.o(i.IntUnregister), (20 bytes).
    Removing interrupt.o(i._IntDefaultHandler), (2 bytes).
    Removing interrupt.o(.constdata), (268 bytes).
    Removing interrupt.o(vtable), (620 bytes).
    Removing charmap.o(i.GrMapISO8859_10_Unicode), (32 bytes).
    Removing charmap.o(i.GrMapISO8859_11_Unicode), (16 bytes).
    Removing charmap.o(i.GrMapISO8859_13_Unicode), (32 bytes).
    Removing charmap.o(i.GrMapISO8859_14_Unicode), (96 bytes).
    Removing charmap.o(i.GrMapISO8859_15_Unicode), (88 bytes).
    Removing charmap.o(i.GrMapISO8859_16_Unicode), (32 bytes).
    Removing charmap.o(i.GrMapISO8859_2_Unicode), (32 bytes).
    Removing charmap.o(i.GrMapISO8859_3_Unicode), (32 bytes).
    Removing charmap.o(i.GrMapISO8859_4_Unicode), (32 bytes).
    Removing charmap.o(i.GrMapISO8859_5_Unicode), (16 bytes).
    Removing charmap.o(i.GrMapISO8859_6_Unicode), (22 bytes).
    Removing charmap.o(i.GrMapISO8859_7_Unicode), (44 bytes).
    Removing charmap.o(i.GrMapISO8859_8_Unicode), (38 bytes).
    Removing charmap.o(i.GrMapISO8859_9_Unicode), (68 bytes).
    Removing charmap.o(i.GrMapUTF16BE_Unicode), (6 bytes).
    Removing charmap.o(i.GrMapUTF16LE_Unicode), (6 bytes).
    Removing charmap.o(i.GrMapUTF16_Unicode), (120 bytes).
    Removing charmap.o(i.GrMapUTF8_Unicode), (146 bytes).
    Removing charmap.o(i.GrMapUnicode_Unicode), (22 bytes).
    Removing charmap.o(i.GrMapWIN1250_Unicode), (32 bytes).
    Removing charmap.o(i.GrMapWIN1251_Unicode), (48 bytes).
    Removing charmap.o(i.GrMapWIN1252_Unicode), (40 bytes).
    Removing charmap.o(i.GrMapWIN1253_Unicode), (48 bytes).
    Removing charmap.o(i.GrMapWIN1254_Unicode), (96 bytes).
    Removing charmap.o(.constdata), (1900 bytes).
    Removing line.o(i.GrLineDraw), (638 bytes).
    Removing rt_system.o(.emb_text), (0 bytes).
    Removing rt_system.o(i.os_tick_ovf), (16 bytes).
    Removing rt_system.o(i.os_tick_val), (20 bytes).
    Removing rt_system.o(i.rt_resume), (136 bytes).
    Removing rt_system.o(i.rt_suspend), (36 bytes).
    Removing rt_system.o(i.rt_tsk_lock), (80 bytes).
    Removing rt_system.o(i.rt_tsk_unlock), (80 bytes).
    Removing rt_event.o(i.rt_evt_clr), (28 bytes).
    Removing rt_event.o(i.rt_evt_get), (12 bytes).
    Removing rt_list.o(i.rt_get_same_rdy_prio), (36 bytes).
    Removing rt_mailbox.o(i.rt_mbx_send), (152 bytes).
    Removing rt_semaphore.o(i.isr_sem_send), (16 bytes).
    Removing rt_semaphore.o(i.rt_sem_delete), (92 bytes).
    Removing rt_semaphore.o(i.rt_sem_init), (12 bytes).
    Removing rt_semaphore.o(i.rt_sem_send), (42 bytes).
    Removing rt_semaphore.o(i.rt_sem_wait), (64 bytes).
    Removing rt_time.o(i.rt_itv_set), (24 bytes).
    Removing rt_time.o(i.rt_itv_wait), (40 bytes).
    Removing rt_time.o(i.rt_time_get), (12 bytes).
    Removing rt_membox.o(i._calloc_box), (30 bytes).

218 unused section(s) (total 13626 bytes) removed from the image.

==============================================================================

Image Symbol Table

    Local Symbols

    Symbol Name                              Value     Ov Type        Size  Object(Section)

    ../clib/angel/boardlib.s                 0x00000000   Number         0  boardinit1.o ABSOLUTE
    ../clib/angel/boardlib.s                 0x00000000   Number         0  boardshut.o ABSOLUTE
    ../clib/angel/boardlib.s                 0x00000000   Number         0  boardinit2.o ABSOLUTE
    ../clib/angel/handlers.s                 0x00000000   Number         0  __scatter_zi.o ABSOLUTE
    ../clib/angel/handlers.s                 0x00000000   Number         0  __scatter_copy.o ABSOLUTE
    ../clib/angel/kernel.s                   0x00000000   Number         0  rtexit2.o ABSOLUTE
    ../clib/angel/kernel.s                   0x00000000   Number         0  __rtentry4.o ABSOLUTE
    ../clib/angel/kernel.s                   0x00000000   Number         0  __rtentry2.o ABSOLUTE
    ../clib/angel/kernel.s                   0x00000000   Number         0  __rtentry.o ABSOLUTE
    ../clib/angel/kernel.s                   0x00000000   Number         0  rtexit.o ABSOLUTE
    ../clib/angel/rt.s                       0x00000000   Number         0  aeabi_ldiv0.o ABSOLUTE
    ../clib/angel/rt.s                       0x00000000   Number         0  aeabi_ldiv0_sigfpe.o ABSOLUTE
    ../clib/angel/rt.s                       0x00000000   Number         0  rt_raise.o ABSOLUTE
    ../clib/angel/rt.s                       0x00000000   Number         0  rt_div0.o ABSOLUTE
    ../clib/angel/scatter.s                  0x00000000   Number         0  __scatter.o ABSOLUTE
    ../clib/angel/startup.s                  0x00000000   Number         0  __main.o ABSOLUTE
    ../clib/angel/sys.s                      0x00000000   Number         0  sys_stackheap_outer.o ABSOLUTE
    ../clib/angel/sys.s                      0x00000000   Number         0  libspace.o ABSOLUTE
    ../clib/angel/sys.s                      0x00000000   Number         0  indicate_semi.o ABSOLUTE
    ../clib/angel/sys.s                      0x00000000   Number         0  use_no_semi.o ABSOLUTE
    ../clib/angel/sysapp.c                   0x00000000   Number         0  sys_wrch.o ABSOLUTE
    ../clib/angel/sysapp.c                   0x00000000   Number         0  sys_exit.o ABSOLUTE
    ../clib/angel/sysapp.c                   0x00000000   Number         0  sys_command.o ABSOLUTE
    ../clib/armsys.c                         0x00000000   Number         0  _get_argv_nomalloc.o ABSOLUTE
    ../clib/armsys.c                         0x00000000   Number         0  argv_veneer.o ABSOLUTE
    ../clib/armsys.c                         0x00000000   Number         0  argv_veneer.o ABSOLUTE
    ../clib/armsys.c                         0x00000000   Number         0  no_argv.o ABSOLUTE
    ../clib/heapalloc.c                      0x00000000   Number         0  hrguard.o ABSOLUTE
    ../clib/heapaux.c                        0x00000000   Number         0  heapauxi.o ABSOLUTE
    ../clib/libinit.s                        0x00000000   Number         0  libinit2.o ABSOLUTE
    ../clib/libinit.s                        0x00000000   Number         0  libshutdown.o ABSOLUTE
    ../clib/libinit.s                        0x00000000   Number         0  libshutdown2.o ABSOLUTE
    ../clib/libinit.s                        0x00000000   Number         0  libinit.o ABSOLUTE
    ../clib/longlong.s                       0x00000000   Number         0  lludivv7m.o ABSOLUTE
    ../clib/signal.c                         0x00000000   Number         0  defsig_abrt_inner.o ABSOLUTE
    ../clib/signal.c                         0x00000000   Number         0  defsig_rtmem_outer.o ABSOLUTE
    ../clib/signal.c                         0x00000000   Number         0  defsig_fpe_inner.o ABSOLUTE
    ../clib/signal.c                         0x00000000   Number         0  defsig_fpe_outer.o ABSOLUTE
    ../clib/signal.c                         0x00000000   Number         0  __raise.o ABSOLUTE
    ../clib/signal.c                         0x00000000   Number         0  defsig_general.o ABSOLUTE
    ../clib/signal.c                         0x00000000   Number         0  defsig_fpe_formal.o ABSOLUTE
    ../clib/signal.c                         0x00000000   Number         0  defsig_rtred_inner.o ABSOLUTE
    ../clib/signal.c                         0x00000000   Number         0  defsig_rtmem_inner.o ABSOLUTE
    ../clib/signal.c                         0x00000000   Number         0  defsig_rtmem_formal.o ABSOLUTE
    ../clib/signal.c                         0x00000000   Number         0  defsig_pvfn_inner.o ABSOLUTE
    ../clib/signal.c                         0x00000000   Number         0  defsig_cppl_inner.o ABSOLUTE
    ../clib/signal.c                         0x00000000   Number         0  defsig_segv_inner.o ABSOLUTE
    ../clib/signal.c                         0x00000000   Number         0  defsig_other.o ABSOLUTE
    ../clib/signal.c                         0x00000000   Number         0  defsig_exit.o ABSOLUTE
    ../clib/signal.c                         0x00000000   Number         0  defsig_stak_inner.o ABSOLUTE
    ../clib/signal.s                         0x00000000   Number         0  defsig.o ABSOLUTE
    ../clib/stdlib.c                         0x00000000   Number         0  exit.o ABSOLUTE
    ../fplib/fpinit.s                        0x00000000   Number         0  fpinit.o ABSOLUTE
    ..\HAL_CM.c                              0x00000000   Number         0  hal_cm.o ABSOLUTE
    ..\\rt_CMSIS.c                           0x00000000   Number         0  rt_cmsis.o ABSOLUTE
    ..\\rt_System.c                          0x00000000   Number         0  rt_system.o ABSOLUTE
    ..\rt_CMSIS.c                            0x00000000   Number         0  rt_cmsis.o ABSOLUTE
    ..\rt_Event.c                            0x00000000   Number         0  rt_event.o ABSOLUTE
    ..\rt_List.c                             0x00000000   Number         0  rt_list.o ABSOLUTE
    ..\rt_Mailbox.c                          0x00000000   Number         0  rt_mailbox.o ABSOLUTE
    ..\rt_MemBox.c                           0x00000000   Number         0  rt_membox.o ABSOLUTE
    ..\rt_Memory.c                           0x00000000   Number         0  rt_memory.o ABSOLUTE
    ..\rt_Mutex.c                            0x00000000   Number         0  rt_mutex.o ABSOLUTE
    ..\rt_Robin.c                            0x00000000   Number         0  rt_robin.o ABSOLUTE
    ..\rt_Semaphore.c                        0x00000000   Number         0  rt_semaphore.o ABSOLUTE
    ..\rt_System.c                           0x00000000   Number         0  rt_system.o ABSOLUTE
    ..\rt_Task.c                             0x00000000   Number         0  rt_task.o ABSOLUTE
    ..\rt_Time.c                             0x00000000   Number         0  rt_time.o ABSOLUTE
    Blinky.c                                 0x00000000   Number         0  blinky.o ABSOLUTE
    Blinky.c                                 0x00000000   Number         0  blinky.o ABSOLUTE
    HAL_CM4.c                                0x00000000   Number         0  hal_cm4.o ABSOLUTE
    HAL_CM4.c                                0x00000000   Number         0  hal_cm4.o ABSOLUTE
    LED.c                                    0x00000000   Number         0  led.o ABSOLUTE
    LED.c                                    0x00000000   Number         0  led.o ABSOLUTE
    RTE\CMSIS\RTX_Conf_CM.c                  0x00000000   Number         0  rtx_conf_cm.o ABSOLUTE
    RTE\Device\TM4C1294NCPDT\startup_TM4C129.s 0x00000000   Number         0  startup_tm4c129.o ABSOLUTE
    RTE\Device\TM4C1294NCPDT\system_TM4C129.c 0x00000000   Number         0  system_tm4c129.o ABSOLUTE
    RTE\\CMSIS\\RTX_Conf_CM.c                0x00000000   Number         0  rtx_conf_cm.o ABSOLUTE
    RTE\\Device\\TM4C1294NCPDT\\system_TM4C129.c 0x00000000   Number         0  system_tm4c129.o ABSOLUTE
    SVC_Table.s                              0x00000000   Number         0  svc_table.o ABSOLUTE
    cfaf128x128x16.c                         0x00000000   Number         0  cfaf128x128x16.o ABSOLUTE
    charmap.c                                0x00000000   Number         0  charmap.o ABSOLUTE
    context.c                                0x00000000   Number         0  context.o ABSOLUTE
    cpu.c                                    0x00000000   Number         0  cpu.o ABSOLUTE
    cpu.c                                    0x00000000   Number         0  cpu.o ABSOLUTE
    dc.s                                     0x00000000   Number         0  dc.o ABSOLUTE
    fonts\fontcm12.c                         0x00000000   Number         0  fontcm12.o ABSOLUTE
    interrupt.c                              0x00000000   Number         0  interrupt.o ABSOLUTE
    line.c                                   0x00000000   Number         0  line.o ABSOLUTE
    rectangle.c                              0x00000000   Number         0  rectangle.o ABSOLUTE
    string.c                                 0x00000000   Number         0  string.o ABSOLUTE
    sysctl.c                                 0x00000000   Number         0  sysctl.o ABSOLUTE
    sysctl.c                                 0x00000000   Number         0  sysctl.o ABSOLUTE
    RESET                                    0x20000000   Section      512  startup_tm4c129.o(RESET)
    !!!main                                  0x20000200   Section        8  __main.o(!!!main)
    !!!scatter                               0x20000208   Section       52  __scatter.o(!!!scatter)
    !!handler_copy                           0x2000023c   Section       26  __scatter_copy.o(!!handler_copy)
    !!handler_zi                             0x20000258   Section       28  __scatter_zi.o(!!handler_zi)
    .ARM.Collect$$libinit$$00000000          0x20000274   Section        2  libinit.o(.ARM.Collect$$libinit$$00000000)
    .ARM.Collect$$libinit$$00000001          0x20000276   Section        4  libinit2.o(.ARM.Collect$$libinit$$00000001)
    .ARM.Collect$$libinit$$00000004          0x2000027a   Section        0  libinit2.o(.ARM.Collect$$libinit$$00000004)
    .ARM.Collect$$libinit$$0000000A          0x2000027a   Section        0  libinit2.o(.ARM.Collect$$libinit$$0000000A)
    .ARM.Collect$$libinit$$0000000C          0x2000027a   Section        0  libinit2.o(.ARM.Collect$$libinit$$0000000C)
    .ARM.Collect$$libinit$$0000000E          0x2000027a   Section        0  libinit2.o(.ARM.Collect$$libinit$$0000000E)
    .ARM.Collect$$libinit$$00000011          0x2000027a   Section        0  libinit2.o(.ARM.Collect$$libinit$$00000011)
    .ARM.Collect$$libinit$$00000013          0x2000027a   Section        0  libinit2.o(.ARM.Collect$$libinit$$00000013)
    .ARM.Collect$$libinit$$00000015          0x2000027a   Section        0  libinit2.o(.ARM.Collect$$libinit$$00000015)
    .ARM.Collect$$libinit$$00000017          0x2000027a   Section        0  libinit2.o(.ARM.Collect$$libinit$$00000017)
    .ARM.Collect$$libinit$$00000019          0x2000027a   Section        0  libinit2.o(.ARM.Collect$$libinit$$00000019)
    .ARM.Collect$$libinit$$0000001B          0x2000027a   Section        0  libinit2.o(.ARM.Collect$$libinit$$0000001B)
    .ARM.Collect$$libinit$$0000001D          0x2000027a   Section        0  libinit2.o(.ARM.Collect$$libinit$$0000001D)
    .ARM.Collect$$libinit$$0000001F          0x2000027a   Section        0  libinit2.o(.ARM.Collect$$libinit$$0000001F)
    .ARM.Collect$$libinit$$00000021          0x2000027a   Section        0  libinit2.o(.ARM.Collect$$libinit$$00000021)
    .ARM.Collect$$libinit$$00000023          0x2000027a   Section        0  libinit2.o(.ARM.Collect$$libinit$$00000023)
    .ARM.Collect$$libinit$$00000025          0x2000027a   Section        0  libinit2.o(.ARM.Collect$$libinit$$00000025)
    .ARM.Collect$$libinit$$0000002C          0x2000027a   Section        0  libinit2.o(.ARM.Collect$$libinit$$0000002C)
    .ARM.Collect$$libinit$$0000002E          0x2000027a   Section        0  libinit2.o(.ARM.Collect$$libinit$$0000002E)
    .ARM.Collect$$libinit$$00000030          0x2000027a   Section        0  libinit2.o(.ARM.Collect$$libinit$$00000030)
    .ARM.Collect$$libinit$$00000032          0x2000027a   Section        0  libinit2.o(.ARM.Collect$$libinit$$00000032)
    .ARM.Collect$$libinit$$00000033          0x2000027a   Section        2  libinit2.o(.ARM.Collect$$libinit$$00000033)
    .ARM.Collect$$libshutdown$$00000000      0x2000027c   Section        2  libshutdown.o(.ARM.Collect$$libshutdown$$00000000)
    .ARM.Collect$$libshutdown$$00000002      0x2000027e   Section        0  libshutdown2.o(.ARM.Collect$$libshutdown$$00000002)
    .ARM.Collect$$libshutdown$$00000004      0x2000027e   Section        0  libshutdown2.o(.ARM.Collect$$libshutdown$$00000004)
    .ARM.Collect$$libshutdown$$00000007      0x2000027e   Section        0  libshutdown2.o(.ARM.Collect$$libshutdown$$00000007)
    .ARM.Collect$$libshutdown$$0000000A      0x2000027e   Section        0  libshutdown2.o(.ARM.Collect$$libshutdown$$0000000A)
    .ARM.Collect$$libshutdown$$0000000C      0x2000027e   Section        0  libshutdown2.o(.ARM.Collect$$libshutdown$$0000000C)
    .ARM.Collect$$libshutdown$$0000000F      0x2000027e   Section        0  libshutdown2.o(.ARM.Collect$$libshutdown$$0000000F)
    .ARM.Collect$$libshutdown$$00000010      0x2000027e   Section        2  libshutdown2.o(.ARM.Collect$$libshutdown$$00000010)
    .ARM.Collect$$rtentry$$00000000          0x20000280   Section        0  __rtentry.o(.ARM.Collect$$rtentry$$00000000)
    .ARM.Collect$$rtentry$$00000002          0x20000280   Section        0  __rtentry2.o(.ARM.Collect$$rtentry$$00000002)
    .ARM.Collect$$rtentry$$00000004          0x20000280   Section        6  __rtentry4.o(.ARM.Collect$$rtentry$$00000004)
    .ARM.Collect$$rtentry$$00000009          0x20000286   Section        0  __rtentry2.o(.ARM.Collect$$rtentry$$00000009)
    .ARM.Collect$$rtentry$$0000000A          0x20000286   Section        4  __rtentry2.o(.ARM.Collect$$rtentry$$0000000A)
    .ARM.Collect$$rtentry$$0000000B          0x2000028a   Section        8  __rtentry2.o(.ARM.Collect$$rtentry$$0000000B)
    .ARM.Collect$$rtentry$$0000000D          0x20000292   Section        8  __rtentry2.o(.ARM.Collect$$rtentry$$0000000D)
    .ARM.Collect$$rtexit$$00000000           0x2000029a   Section        2  rtexit.o(.ARM.Collect$$rtexit$$00000000)
    .ARM.Collect$$rtexit$$00000002           0x2000029c   Section        0  rtexit2.o(.ARM.Collect$$rtexit$$00000002)
    .ARM.Collect$$rtexit$$00000003           0x2000029c   Section        4  rtexit2.o(.ARM.Collect$$rtexit$$00000003)
    .ARM.Collect$$rtexit$$00000004           0x200002a0   Section        6  rtexit2.o(.ARM.Collect$$rtexit$$00000004)
    .emb_text                                0x200002a8   Section       28  rtx_conf_cm.o(.emb_text)
    $v0                                      0x200002a8   Number         0  rtx_conf_cm.o(.emb_text)
    .emb_text                                0x200002c4   Section      408  hal_cm4.o(.emb_text)
    $v0                                      0x200002c4   Number         0  hal_cm4.o(.emb_text)
    .text                                    0x2000045c   Section        0  led.o(.text)
    .text                                    0x200005e0   Section        0  blinky.o(.text)
    .text                                    0x200008e8   Section        0  cfaf128x128x16.o(.text)
    swap_ui16                                0x200008e9   Thumb Code    10  cfaf128x128x16.o(.text)
    swap_i32                                 0x200008f3   Thumb Code    10  cfaf128x128x16.o(.text)
    cfaf128x128x16SsiTransfer                0x200008fd   Thumb Code    56  cfaf128x128x16.o(.text)
    cfaf128x128x16WriteCommand               0x20000935   Thumb Code    60  cfaf128x128x16.o(.text)
    cfaf128x128x16WriteData                  0x20000971   Thumb Code    74  cfaf128x128x16.o(.text)
    cfaf128x128x16WriteRegister              0x200009bb   Thumb Code    20  cfaf128x128x16.o(.text)
    cfaf128x128x16SetWindow                  0x200009cf   Thumb Code   206  cfaf128x128x16.o(.text)
    cfaf128x128x16PixelDraw                  0x20000b8d   Thumb Code    28  cfaf128x128x16.o(.text)
    cfaf128x128x16PixelDrawMultiple          0x20000ba9   Thumb Code   498  cfaf128x128x16.o(.text)
    cfaf128x128x16LineDrawH                  0x20000d9b   Thumb Code    48  cfaf128x128x16.o(.text)
    cfaf128x128x16LineDrawV                  0x20000dcb   Thumb Code    48  cfaf128x128x16.o(.text)
    cfaf128x128x16RectFill                   0x20000dfb   Thumb Code   100  cfaf128x128x16.o(.text)
    cfaf128x128x16ColorTranslate             0x20000e5f   Thumb Code    24  cfaf128x128x16.o(.text)
    cfaf128x128x16Flush                      0x20000e77   Thumb Code     2  cfaf128x128x16.o(.text)
    ssiSetDataMode                           0x20000ef1   Thumb Code    22  cfaf128x128x16.o(.text)
    ssiSetClockDivider                       0x20000f07   Thumb Code     6  cfaf128x128x16.o(.text)
    InitSSICom                               0x20000f0d   Thumb Code   178  cfaf128x128x16.o(.text)
    .text                                    0x20001184   Section        0  rtx_conf_cm.o(.text)
    __tagsym$$used                           0x200011e5   Number         0  rtx_conf_cm.o(.text)
    __tagsym$$used                           0x200011fb   Number         0  rtx_conf_cm.o(.text)
    .text                                    0x20001228   Section      300  startup_tm4c129.o(.text)
    $v0                                      0x20001228   Number         0  startup_tm4c129.o(.text)
    .text                                    0x20001354   Section        0  system_tm4c129.o(.text)
    .text                                    0x2000137c   Section        8  libspace.o(.text)
    .text                                    0x20001384   Section        0  exit.o(.text)
    .text                                    0x20001396   Section        0  heapauxi.o(.text)
    .text                                    0x2000139c   Section        0  sys_exit.o(.text)
    .text                                    0x200013a8   Section       74  sys_stackheap_outer.o(.text)
    .text                                    0x200013f2   Section        2  use_no_semi.o(.text)
    .text                                    0x200013f4   Section        0  indicate_semi.o(.text)
    SVC_TABLE                                0x200013f4   Section        4  svc_table.o(SVC_TABLE)
    i.GrContextFontSet                       0x200013f8   Section        0  string.o(i.GrContextFontSet)
    i.GrContextInit                          0x20001400   Section        0  context.o(i.GrContextInit)
    i.GrDefaultStringRenderer                0x20001464   Section        0  string.o(i.GrDefaultStringRenderer)
    i.GrFontBaselineGet                      0x2000157c   Section        0  string.o(i.GrFontBaselineGet)
    i.GrFontGlyphDataGet                     0x200015a8   Section        0  string.o(i.GrFontGlyphDataGet)
    i.GrFontGlyphRender                      0x2000164e   Section        0  string.o(i.GrFontGlyphRender)
    i.GrLineDrawH                            0x200018d6   Section        0  line.o(i.GrLineDrawH)
    i.GrLineDrawV                            0x20001922   Section        0  line.o(i.GrLineDrawV)
    i.GrMapISO8859_1_Unicode                 0x2000196e   Section        0  charmap.o(i.GrMapISO8859_1_Unicode)
    i.GrRectDraw                             0x20001976   Section        0  rectangle.o(i.GrRectDraw)
    i.GrRectFill                             0x200019e2   Section        0  rectangle.o(i.GrRectFill)
    i.GrStringDraw                           0x20001a96   Section        0  string.o(i.GrStringDraw)
    i.GrStringWidthGet                       0x20001ab6   Section        0  string.o(i.GrStringWidthGet)
    i.SysCtlDeepSleepPowerSet                0x20001b78   Section        0  sysctl.o(i.SysCtlDeepSleepPowerSet)
    i.UpdateContextCharMapping               0x20001b84   Section        0  string.o(i.UpdateContextCharMapping)
    UpdateContextCharMapping                 0x20001b85   Thumb Code   108  string.o(i.UpdateContextCharMapping)
    i._init_box                              0x20001bf0   Section        0  rt_membox.o(i._init_box)
    i.dbg_init                               0x20001c38   Section        0  hal_cm.o(i.dbg_init)
    i.dbg_task_notify                        0x20001c68   Section        0  hal_cm.o(i.dbg_task_notify)
    i.dbg_task_switch                        0x20001c88   Section        0  hal_cm.o(i.dbg_task_switch)
    i.isrMessageGet                          0x20001c98   Section        0  rt_cmsis.o(i.isrMessageGet)
    i.isrMessagePut                          0x20001cc2   Section        0  rt_cmsis.o(i.isrMessagePut)
    i.isrSignalSet                           0x20001cee   Section        0  rt_cmsis.o(i.isrSignalSet)
    i.isr_evt_set                            0x20001d14   Section        0  rt_event.o(i.isr_evt_set)
    i.isr_mbx_receive                        0x20001d3c   Section        0  rt_mailbox.o(i.isr_mbx_receive)
    i.isr_mbx_send                           0x20001d92   Section        0  rt_mailbox.o(i.isr_mbx_send)
    i.osDelay                                0x20001da0   Section        0  rt_cmsis.o(i.osDelay)
    i.osKernelInitialize                     0x20001db8   Section        0  rt_cmsis.o(i.osKernelInitialize)
    i.osKernelStart                          0x20001ddc   Section        0  rt_cmsis.o(i.osKernelStart)
    i.osMessageGet                           0x20001e48   Section        0  rt_cmsis.o(i.osMessageGet)
    i.osSignalSet                            0x20001e60   Section        0  rt_cmsis.o(i.osSignalSet)
    i.osSignalWait                           0x20001e78   Section        0  rt_cmsis.o(i.osSignalWait)
    i.osThreadCreate                         0x20001e90   Section        0  rt_cmsis.o(i.osThreadCreate)
    i.osThreadExit                           0x20001ebc   Section        0  rt_cmsis.o(i.osThreadExit)
    i.osTimerCall                            0x20001ed4   Section        0  rt_cmsis.o(i.osTimerCall)
    i.osTimerThread                          0x20001ee0   Section        0  rt_cmsis.o(i.osTimerThread)
    i.os_tick_init                           0x20001f0c   Section        0  rt_system.o(i.os_tick_init)
    i.os_tick_irqack                         0x20001f34   Section        0  rt_system.o(i.os_tick_irqack)
    i.rt_alloc_box                           0x20001f36   Section        0  rt_membox.o(i.rt_alloc_box)
    i.rt_alloc_mem                           0x20001f50   Section        0  rt_memory.o(i.rt_alloc_mem)
    i.rt_block                               0x20001f90   Section        0  rt_task.o(i.rt_block)
    i.rt_chk_robin                           0x20001fc8   Section        0  rt_robin.o(i.rt_chk_robin)
    i.rt_dec_dly                             0x20002010   Section        0  rt_list.o(i.rt_dec_dly)
    i.rt_dispatch                            0x20002080   Section        0  rt_task.o(i.rt_dispatch)
    i.rt_dly_wait                            0x200020c4   Section        0  rt_time.o(i.rt_dly_wait)
    i.rt_evt_psh                             0x200020cc   Section        0  rt_event.o(i.rt_evt_psh)
    i.rt_evt_set                             0x2000211c   Section        0  rt_event.o(i.rt_evt_set)
    i.rt_evt_wait                            0x20002178   Section        0  rt_event.o(i.rt_evt_wait)
    i.rt_free_box                            0x200021b4   Section        0  rt_membox.o(i.rt_free_box)
    i.rt_free_mem                            0x200021e0   Section        0  rt_memory.o(i.rt_free_mem)
    i.rt_get_first                           0x20002208   Section        0  rt_list.o(i.rt_get_first)
    i.rt_id2obj                              0x20002230   Section        0  rt_cmsis.o(i.rt_id2obj)
    rt_id2obj                                0x20002231   Thumb Code     8  rt_cmsis.o(i.rt_id2obj)
    i.rt_init_context                        0x20002238   Section        0  rt_task.o(i.rt_init_context)
    rt_init_context                          0x20002239   Thumb Code    66  rt_task.o(i.rt_init_context)
    i.rt_init_mem                            0x20002280   Section        0  rt_memory.o(i.rt_init_mem)
    i.rt_init_robin                          0x2000229c   Section        0  rt_robin.o(i.rt_init_robin)
    i.rt_init_stack                          0x200022b4   Section        0  hal_cm.o(i.rt_init_stack)
    i.rt_mbx_check                           0x20002334   Section        0  rt_mailbox.o(i.rt_mbx_check)
    i.rt_mbx_init                            0x2000233c   Section        0  rt_mailbox.o(i.rt_mbx_init)
    i.rt_mbx_psh                             0x20002358   Section        0  rt_mailbox.o(i.rt_mbx_psh)
    i.rt_mbx_wait                            0x20002448   Section        0  rt_mailbox.o(i.rt_mbx_wait)
    i.rt_ms2tick                             0x200024fc   Section        0  rt_cmsis.o(i.rt_ms2tick)
    rt_ms2tick                               0x200024fd   Thumb Code    58  rt_cmsis.o(i.rt_ms2tick)
    i.rt_mut_init                            0x20002540   Section        0  rt_mutex.o(i.rt_mut_init)
    i.rt_mut_release                         0x20002550   Section        0  rt_mutex.o(i.rt_mut_release)
    i.rt_mut_wait                            0x20002628   Section        0  rt_mutex.o(i.rt_mut_wait)
    i.rt_pop_req                             0x200026a0   Section        0  rt_system.o(i.rt_pop_req)
    i.rt_psh_req                             0x2000271c   Section        0  rt_system.o(i.rt_psh_req)
    i.rt_psq_enq                             0x2000273c   Section        0  rt_list.o(i.rt_psq_enq)
    i.rt_put_dly                             0x20002798   Section        0  rt_list.o(i.rt_put_dly)
    i.rt_put_prio                            0x200027e0   Section        0  rt_list.o(i.rt_put_prio)
    i.rt_put_rdy_first                       0x20002818   Section        0  rt_list.o(i.rt_put_rdy_first)
    i.rt_resort_prio                         0x2000282c   Section        0  rt_list.o(i.rt_resort_prio)
    i.rt_ret_regs                            0x20002860   Section        0  hal_cm.o(i.rt_ret_regs)
    rt_ret_regs                              0x20002861   Thumb Code    16  hal_cm.o(i.rt_ret_regs)
    i.rt_ret_val                             0x20002870   Section        0  hal_cm.o(i.rt_ret_val)
    i.rt_ret_val2                            0x2000287c   Section        0  hal_cm.o(i.rt_ret_val2)
    i.rt_rmv_dly                             0x2000288c   Section        0  rt_list.o(i.rt_rmv_dly)
    i.rt_rmv_list                            0x200028b4   Section        0  rt_list.o(i.rt_rmv_list)
    i.rt_sem_psh                             0x200028e4   Section        0  rt_semaphore.o(i.rt_sem_psh)
    i.rt_stk_check                           0x20002918   Section        0  rt_system.o(i.rt_stk_check)
    i.rt_switch_req                          0x2000293c   Section        0  rt_task.o(i.rt_switch_req)
    i.rt_sys_init                            0x20002964   Section        0  rt_task.o(i.rt_sys_init)
    i.rt_sys_start                           0x20002a30   Section        0  rt_task.o(i.rt_sys_start)
    i.rt_systick                             0x20002aa8   Section        0  rt_system.o(i.rt_systick)
    i.rt_tid2ptcb                            0x20002ae8   Section        0  rt_cmsis.o(i.rt_tid2ptcb)
    rt_tid2ptcb                              0x20002ae9   Thumb Code    18  rt_cmsis.o(i.rt_tid2ptcb)
    i.rt_timer_insert                        0x20002afc   Section        0  rt_cmsis.o(i.rt_timer_insert)
    rt_timer_insert                          0x20002afd   Thumb Code    48  rt_cmsis.o(i.rt_timer_insert)
    i.rt_tsk_create                          0x20002b30   Section        0  rt_task.o(i.rt_tsk_create)
    i.rt_tsk_delete                          0x20002bb8   Section        0  rt_task.o(i.rt_tsk_delete)
    i.rt_tsk_prio                            0x20002d34   Section        0  rt_task.o(i.rt_tsk_prio)
    i.rt_tsk_self                            0x20002db0   Section        0  rt_task.o(i.rt_tsk_self)
    i.svcDelay                               0x20002dc0   Section        0  rt_cmsis.o(i.svcDelay)
    i.svcKernelInitialize                    0x20002dd4   Section        0  rt_cmsis.o(i.svcKernelInitialize)
    i.svcKernelStart                         0x20002e44   Section        0  rt_cmsis.o(i.svcKernelStart)
    i.svcMessageCreate                       0x20002e8c   Section        0  rt_cmsis.o(i.svcMessageCreate)
    i.svcMessageGet                          0x20002eb0   Section        0  rt_cmsis.o(i.svcMessageGet)
    i.svcSignalSet                           0x20002eea   Section        0  rt_cmsis.o(i.svcSignalSet)
    i.svcSignalWait                          0x20002f10   Section        0  rt_cmsis.o(i.svcSignalWait)
    i.svcThreadCreate                        0x20002f64   Section        0  rt_cmsis.o(i.svcThreadCreate)
    i.svcThreadGetId                         0x20002fd0   Section        0  rt_cmsis.o(i.svcThreadGetId)
    i.svcThreadTerminate                     0x20002fec   Section        0  rt_cmsis.o(i.svcThreadTerminate)
    i.svcTimerCall                           0x20003024   Section        0  rt_cmsis.o(i.svcTimerCall)
    i.sysTimerTick                           0x2000303c   Section        0  rt_cmsis.o(i.sysTimerTick)
    x$fpl$fpinit                             0x20003098   Section       10  fpinit.o(x$fpl$fpinit)
    $v0                                      0x20003098   Number         0  fpinit.o(x$fpl$fpinit)
    .constdata                               0x200030a4   Section       16  led.o(.constdata)
    .constdata                               0x200030b4   Section       80  blinky.o(.constdata)
    .constdata                               0x20003104   Section       64  cfaf128x128x16.o(.constdata)
    .constdata                               0x20003144   Section      104  rtx_conf_cm.o(.constdata)
    __tagsym$$used                           0x20003160   Number         0  rtx_conf_cm.o(.constdata)
    __tagsym$$used                           0x20003164   Number         0  rtx_conf_cm.o(.constdata)
    __tagsym$$used                           0x20003168   Number         0  rtx_conf_cm.o(.constdata)
    __tagsym$$used                           0x2000316c   Number         0  rtx_conf_cm.o(.constdata)
    .constdata                               0x200031ac   Section       16  context.o(.constdata)
    .constdata                               0x200031bc   Section     1375  fontcm12.o(.constdata)
    g_pui8Cm12Data                           0x200031bc   Data        1375  fontcm12.o(.constdata)
    .constdata                               0x2000371c   Section      200  fontcm12.o(.constdata)
    .data                                    0x20030000   Section       20  blinky.o(.data)
    .data                                    0x20030014   Section        5  cfaf128x128x16.o(.data)
    .data                                    0x2003001c   Section       20  rtx_conf_cm.o(.data)
    nr_mutex                                 0x2003002c   Data           4  rtx_conf_cm.o(.data)
    .data                                    0x20030030   Section        4  system_tm4c129.o(.data)
    .data                                    0x20030034   Section        4  context.o(.data)
    g_psGrLibDefaults                        0x20030034   Data           4  context.o(.data)
    .data                                    0x20030038   Section        8  rt_cmsis.o(.data)
    .data                                    0x20030040   Section        8  rt_task.o(.data)
    .data                                    0x20030048   Section        8  rt_system.o(.data)
    os_lock                                  0x20030048   Data           1  rt_system.o(.data)
    os_psh_flag                              0x20030049   Data           1  rt_system.o(.data)
    pend_flags                               0x2003004a   Data           1  rt_system.o(.data)
    .data                                    0x20030050   Section        4  rt_time.o(.data)
    .data                                    0x20030054   Section        8  rt_robin.o(.data)
    .data                                    0x2003005c   Section        1  hal_cm.o(.data)
    .bss                                     0x20030060   Section     8720  rtx_conf_cm.o(.bss)
    std_libspace                             0x20031e90   Data         864  rtx_conf_cm.o(.bss)
    std_libmutex                             0x200321f0   Data         128  rtx_conf_cm.o(.bss)
    .bss                                     0x20032270   Section       52  rt_task.o(.bss)
    .bss                                     0x200322a4   Section       48  rt_list.o(.bss)
    .bss                                     0x200322d4   Section       96  libspace.o(.bss)
    HEAP                                     0x20032338   Section        0  startup_tm4c129.o(HEAP)
    STACK                                    0x20032338   Section      512  startup_tm4c129.o(STACK)
    Heap_Mem                                 0x20032338   Data           0  startup_tm4c129.o(HEAP)
    Stack_Mem                                0x20032338   Data         512  startup_tm4c129.o(STACK)
    __initial_sp                             0x20032538   Data           0  startup_tm4c129.o(STACK)

    Global Symbols

    Symbol Name                              Value     Ov Type        Size  Object(Section)

    BuildAttributes$$THM_ISAv4$E$P$D$K$B$S$7EM$VFPi3$EXTD16$VFPS$VFMA$PE$A:L22UL41UL21$X:L11$S22US41US21$IEEE1$IW$USESV6$~STKCKD$USESV7$~SHL$OTIME$ROPI$EBA8$UX$STANDARDLIB$REQ8$PRES8$EABIv2 0x00000000   Number         0  anon$$obj.o ABSOLUTE
    __ARM_use_no_argv                        0x00000000   Number         0  blinky.o ABSOLUTE
    __ARM_exceptions_init                     - Undefined Weak Reference
    __alloca_initialize                       - Undefined Weak Reference
    __arm_preinit_                            - Undefined Weak Reference
    __cpp_initialize__aeabi_                  - Undefined Weak Reference
    __cxa_finalize                            - Undefined Weak Reference
    __rt_locale                               - Undefined Weak Reference
    __sigvec_lookup                           - Undefined Weak Reference
    _atexit_init                              - Undefined Weak Reference
    _call_atexit_fns                          - Undefined Weak Reference
    _clock_init                               - Undefined Weak Reference
    _fp_trap_init                             - Undefined Weak Reference
    _fp_trap_shutdown                         - Undefined Weak Reference
    _get_lc_collate                           - Undefined Weak Reference
    _get_lc_ctype                             - Undefined Weak Reference
    _get_lc_monetary                          - Undefined Weak Reference
    _get_lc_numeric                           - Undefined Weak Reference
    _get_lc_time                              - Undefined Weak Reference
    _getenv_init                              - Undefined Weak Reference
    _handle_redirection                       - Undefined Weak Reference
    _init_alloc                               - Undefined Weak Reference
    _init_user_alloc                          - Undefined Weak Reference
    _initio                                   - Undefined Weak Reference
    _rand_init                                - Undefined Weak Reference
    _signal_finish                            - Undefined Weak Reference
    _signal_init                              - Undefined Weak Reference
    _terminate_alloc                          - Undefined Weak Reference
    _terminate_user_alloc                     - Undefined Weak Reference
    _terminateio                              - Undefined Weak Reference
    __Vectors_Size                           0x00000200   Number         0  startup_tm4c129.o ABSOLUTE
    __RL_RTX_VER                             0x00000482   Number         0  rt_system.o ABSOLUTE
    __Vectors                                0x20000000   Data           4  startup_tm4c129.o(RESET)
    __Vectors_End                            0x20000200   Data           0  startup_tm4c129.o(RESET)
    __main                                   0x20000201   Thumb Code     8  __main.o(!!!main)
    __scatterload                            0x20000209   Thumb Code     0  __scatter.o(!!!scatter)
    __scatterload_rt2                        0x20000209   Thumb Code    44  __scatter.o(!!!scatter)
    __scatterload_rt2_thumb_only             0x20000209   Thumb Code     0  __scatter.o(!!!scatter)
    __scatterload_null                       0x20000217   Thumb Code     0  __scatter.o(!!!scatter)
    __scatterload_copy                       0x2000023d   Thumb Code    26  __scatter_copy.o(!!handler_copy)
    __scatterload_zeroinit                   0x20000259   Thumb Code    28  __scatter_zi.o(!!handler_zi)
    __rt_lib_init                            0x20000275   Thumb Code     0  libinit.o(.ARM.Collect$$libinit$$00000000)
    __rt_lib_init_fp_1                       0x20000277   Thumb Code     0  libinit2.o(.ARM.Collect$$libinit$$00000001)
    __rt_lib_init_alloca_1                   0x2000027b   Thumb Code     0  libinit2.o(.ARM.Collect$$libinit$$0000002E)
    __rt_lib_init_argv_1                     0x2000027b   Thumb Code     0  libinit2.o(.ARM.Collect$$libinit$$0000002C)
    __rt_lib_init_atexit_1                   0x2000027b   Thumb Code     0  libinit2.o(.ARM.Collect$$libinit$$0000001B)
    __rt_lib_init_clock_1                    0x2000027b   Thumb Code     0  libinit2.o(.ARM.Collect$$libinit$$00000021)
    __rt_lib_init_cpp_1                      0x2000027b   Thumb Code     0  libinit2.o(.ARM.Collect$$libinit$$00000032)
    __rt_lib_init_exceptions_1               0x2000027b   Thumb Code     0  libinit2.o(.ARM.Collect$$libinit$$00000030)
    __rt_lib_init_fp_trap_1                  0x2000027b   Thumb Code     0  libinit2.o(.ARM.Collect$$libinit$$0000001F)
    __rt_lib_init_getenv_1                   0x2000027b   Thumb Code     0  libinit2.o(.ARM.Collect$$libinit$$00000023)
    __rt_lib_init_heap_1                     0x2000027b   Thumb Code     0  libinit2.o(.ARM.Collect$$libinit$$0000000A)
    __rt_lib_init_lc_collate_1               0x2000027b   Thumb Code     0  libinit2.o(.ARM.Collect$$libinit$$00000011)
    __rt_lib_init_lc_ctype_1                 0x2000027b   Thumb Code     0  libinit2.o(.ARM.Collect$$libinit$$00000013)
    __rt_lib_init_lc_monetary_1              0x2000027b   Thumb Code     0  libinit2.o(.ARM.Collect$$libinit$$00000015)
    __rt_lib_init_lc_numeric_1               0x2000027b   Thumb Code     0  libinit2.o(.ARM.Collect$$libinit$$00000017)
    __rt_lib_init_lc_time_1                  0x2000027b   Thumb Code     0  libinit2.o(.ARM.Collect$$libinit$$00000019)
    __rt_lib_init_preinit_1                  0x2000027b   Thumb Code     0  libinit2.o(.ARM.Collect$$libinit$$00000004)
    __rt_lib_init_rand_1                     0x2000027b   Thumb Code     0  libinit2.o(.ARM.Collect$$libinit$$0000000E)
    __rt_lib_init_return                     0x2000027b   Thumb Code     0  libinit2.o(.ARM.Collect$$libinit$$00000033)
    __rt_lib_init_signal_1                   0x2000027b   Thumb Code     0  libinit2.o(.ARM.Collect$$libinit$$0000001D)
    __rt_lib_init_stdio_1                    0x2000027b   Thumb Code     0  libinit2.o(.ARM.Collect$$libinit$$00000025)
    __rt_lib_init_user_alloc_1               0x2000027b   Thumb Code     0  libinit2.o(.ARM.Collect$$libinit$$0000000C)
    __rt_lib_shutdown                        0x2000027d   Thumb Code     0  libshutdown.o(.ARM.Collect$$libshutdown$$00000000)
    __rt_lib_shutdown_cpp_1                  0x2000027f   Thumb Code     0  libshutdown2.o(.ARM.Collect$$libshutdown$$00000002)
    __rt_lib_shutdown_fp_trap_1              0x2000027f   Thumb Code     0  libshutdown2.o(.ARM.Collect$$libshutdown$$00000007)
    __rt_lib_shutdown_heap_1                 0x2000027f   Thumb Code     0  libshutdown2.o(.ARM.Collect$$libshutdown$$0000000F)
    __rt_lib_shutdown_return                 0x2000027f   Thumb Code     0  libshutdown2.o(.ARM.Collect$$libshutdown$$00000010)
    __rt_lib_shutdown_signal_1               0x2000027f   Thumb Code     0  libshutdown2.o(.ARM.Collect$$libshutdown$$0000000A)
    __rt_lib_shutdown_stdio_1                0x2000027f   Thumb Code     0  libshutdown2.o(.ARM.Collect$$libshutdown$$00000004)
    __rt_lib_shutdown_user_alloc_1           0x2000027f   Thumb Code     0  libshutdown2.o(.ARM.Collect$$libshutdown$$0000000C)
    __rt_entry                               0x20000281   Thumb Code     0  __rtentry.o(.ARM.Collect$$rtentry$$00000000)
    __rt_entry_presh_1                       0x20000281   Thumb Code     0  __rtentry2.o(.ARM.Collect$$rtentry$$00000002)
    __rt_entry_sh                            0x20000281   Thumb Code     0  __rtentry4.o(.ARM.Collect$$rtentry$$00000004)
    __rt_entry_li                            0x20000287   Thumb Code     0  __rtentry2.o(.ARM.Collect$$rtentry$$0000000A)
    __rt_entry_postsh_1                      0x20000287   Thumb Code     0  __rtentry2.o(.ARM.Collect$$rtentry$$00000009)
    __rt_entry_postli_1                      0x2000028b   Thumb Code     0  __rtentry2.o(.ARM.Collect$$rtentry$$0000000B)
    __rt_entry_main                          0x20000293   Thumb Code     0  __rtentry2.o(.ARM.Collect$$rtentry$$0000000D)
    __rt_exit                                0x2000029b   Thumb Code     0  rtexit.o(.ARM.Collect$$rtexit$$00000000)
    __rt_exit_ls                             0x2000029d   Thumb Code     0  rtexit2.o(.ARM.Collect$$rtexit$$00000003)
    __rt_exit_prels_1                        0x2000029d   Thumb Code     0  rtexit2.o(.ARM.Collect$$rtexit$$00000002)
    __rt_exit_exit                           0x200002a1   Thumb Code     0  rtexit2.o(.ARM.Collect$$rtexit$$00000004)
    _platform_post_lib_init                  0x200002a9   Thumb Code    24  rtx_conf_cm.o(.emb_text)
    rt_set_PSP                               0x200002c5   Thumb Code     6  hal_cm4.o(.emb_text)
    rt_get_PSP                               0x200002cb   Thumb Code     6  hal_cm4.o(.emb_text)
    os_set_env                               0x200002d1   Thumb Code    24  hal_cm4.o(.emb_text)
    _alloc_box                               0x200002ed   Thumb Code    28  hal_cm4.o(.emb_text)
    _free_box                                0x2000030d   Thumb Code    28  hal_cm4.o(.emb_text)
    SVC_Handler                              0x2000032d   Thumb Code   168  hal_cm4.o(.emb_text)
    PendSV_Handler                           0x200003e5   Thumb Code    96  hal_cm4.o(.emb_text)
    SysTick_Handler                          0x20000449   Thumb Code     8  hal_cm4.o(.emb_text)
    OS_Tick_Handler                          0x20000451   Thumb Code    12  hal_cm4.o(.emb_text)
    LED_Initialize                           0x2000045d   Thumb Code    94  led.o(.text)
    LED_On                                   0x200004bb   Thumb Code   112  led.o(.text)
    LED_Off                                  0x2000052b   Thumb Code   112  led.o(.text)
    LED_Out                                  0x2000059b   Thumb Code    38  led.o(.text)
    Switch_On                                0x200005e1   Thumb Code    16  blinky.o(.text)
    Switch_Off                               0x200005f1   Thumb Code    16  blinky.o(.text)
    signal_func                              0x20000601   Thumb Code    62  blinky.o(.text)
    phaseA                                   0x2000063f   Thumb Code    40  blinky.o(.text)
    phaseB                                   0x20000667   Thumb Code    40  blinky.o(.text)
    phaseC                                   0x2000068f   Thumb Code    40  blinky.o(.text)
    phaseD                                   0x200006b7   Thumb Code    40  blinky.o(.text)
    clock                                    0x200006df   Thumb Code    40  blinky.o(.text)
    main                                     0x20000707   Thumb Code   408  blinky.o(.text)
    cfaf128x128x16Rect                       0x20000a9d   Thumb Code   134  cfaf128x128x16.o(.text)
    cfaf128x128x16LineVer                    0x20000b23   Thumb Code    38  cfaf128x128x16.o(.text)
    cfaf128x128x16LineHor                    0x20000b49   Thumb Code    38  cfaf128x128x16.o(.text)
    cfaf128x128x16Dot                        0x20000b6f   Thumb Code    30  cfaf128x128x16.o(.text)
    cfaf128x128x16SetOrientation             0x20000e79   Thumb Code    74  cfaf128x128x16.o(.text)
    cfaf128x128x16ClearColor                 0x20000ec3   Thumb Code    36  cfaf128x128x16.o(.text)
    cfaf128x128x16Clear                      0x20000ee7   Thumb Code    10  cfaf128x128x16.o(.text)
    cfaf128x128x16Init                       0x20000fbf   Thumb Code   384  cfaf128x128x16.o(.text)
    os_idle_demon                            0x20001185   Thumb Code     4  rtx_conf_cm.o(.text)
    os_error                                 0x20001189   Thumb Code    26  rtx_conf_cm.o(.text)
    __user_perthread_libspace                0x200011a3   Thumb Code    32  rtx_conf_cm.o(.text)
    _mutex_initialize                        0x200011c3   Thumb Code    34  rtx_conf_cm.o(.text)
    _mutex_acquire                           0x200011e5   Thumb Code    22  rtx_conf_cm.o(.text)
    _mutex_release                           0x200011fb   Thumb Code    18  rtx_conf_cm.o(.text)
    Reset_Handler                            0x20001229   Thumb Code     8  startup_tm4c129.o(.text)
    NMI_Handler                              0x20001231   Thumb Code     2  startup_tm4c129.o(.text)
    HardFault_Handler                        0x20001233   Thumb Code     2  startup_tm4c129.o(.text)
    MemManage_Handler                        0x20001235   Thumb Code     2  startup_tm4c129.o(.text)
    BusFault_Handler                         0x20001237   Thumb Code     2  startup_tm4c129.o(.text)
    UsageFault_Handler                       0x20001239   Thumb Code     2  startup_tm4c129.o(.text)
    DebugMon_Handler                         0x2000123d   Thumb Code     2  startup_tm4c129.o(.text)
    GPIOA_Handler                            0x20001243   Thumb Code     2  startup_tm4c129.o(.text)
    GPIOB_Handler                            0x20001245   Thumb Code     2  startup_tm4c129.o(.text)
    GPIOC_Handler                            0x20001247   Thumb Code     2  startup_tm4c129.o(.text)
    GPIOD_Handler                            0x20001249   Thumb Code     2  startup_tm4c129.o(.text)
    GPIOE_Handler                            0x2000124b   Thumb Code     2  startup_tm4c129.o(.text)
    UART0_Handler                            0x2000124d   Thumb Code     2  startup_tm4c129.o(.text)
    UART1_Handler                            0x2000124f   Thumb Code     2  startup_tm4c129.o(.text)
    SSI0_Handler                             0x20001251   Thumb Code     2  startup_tm4c129.o(.text)
    I2C0_Handler                             0x20001253   Thumb Code     2  startup_tm4c129.o(.text)
    PMW0_FAULT_Handler                       0x20001255   Thumb Code     2  startup_tm4c129.o(.text)
    PWM0_0_Handler                           0x20001257   Thumb Code     2  startup_tm4c129.o(.text)
    PWM0_1_Handler                           0x20001259   Thumb Code     2  startup_tm4c129.o(.text)
    PWM0_2_Handler                           0x2000125b   Thumb Code     2  startup_tm4c129.o(.text)
    QEI0_Handler                             0x2000125d   Thumb Code     2  startup_tm4c129.o(.text)
    ADC0SS0_Handler                          0x2000125f   Thumb Code     2  startup_tm4c129.o(.text)
    ADC0SS1_Handler                          0x20001261   Thumb Code     2  startup_tm4c129.o(.text)
    ADC0SS2_Handler                          0x20001263   Thumb Code     2  startup_tm4c129.o(.text)
    ADC0SS3_Handler                          0x20001265   Thumb Code     2  startup_tm4c129.o(.text)
    WDT0_Handler                             0x20001267   Thumb Code     2  startup_tm4c129.o(.text)
    TIMER0A_Handler                          0x20001269   Thumb Code     2  startup_tm4c129.o(.text)
    TIMER0B_Handler                          0x2000126b   Thumb Code     2  startup_tm4c129.o(.text)
    TIMER1A_Handler                          0x2000126d   Thumb Code     2  startup_tm4c129.o(.text)
    TIMER1B_Handler                          0x2000126f   Thumb Code     2  startup_tm4c129.o(.text)
    TIMER2A_Handler                          0x20001271   Thumb Code     2  startup_tm4c129.o(.text)
    TIMER2B_Handler                          0x20001273   Thumb Code     2  startup_tm4c129.o(.text)
    COMP0_Handler                            0x20001275   Thumb Code     2  startup_tm4c129.o(.text)
    COMP1_Handler                            0x20001277   Thumb Code     2  startup_tm4c129.o(.text)
    COMP2_Handler                            0x20001279   Thumb Code     2  startup_tm4c129.o(.text)
    SYSCTL_Handler                           0x2000127b   Thumb Code     2  startup_tm4c129.o(.text)
    FLASH_Handler                            0x2000127d   Thumb Code     2  startup_tm4c129.o(.text)
    GPIOF_Handler                            0x2000127f   Thumb Code     2  startup_tm4c129.o(.text)
    GPIOG_Handler                            0x20001281   Thumb Code     2  startup_tm4c129.o(.text)
    GPIOH_Handler                            0x20001283   Thumb Code     2  startup_tm4c129.o(.text)
    UART2_Handler                            0x20001285   Thumb Code     2  startup_tm4c129.o(.text)
    SSI1_Handler                             0x20001287   Thumb Code     2  startup_tm4c129.o(.text)
    TIMER3A_Handler                          0x20001289   Thumb Code     2  startup_tm4c129.o(.text)
    TIMER3B_Handler                          0x2000128b   Thumb Code     2  startup_tm4c129.o(.text)
    I2C1_Handler                             0x2000128d   Thumb Code     2  startup_tm4c129.o(.text)
    CAN0_Handler                             0x2000128f   Thumb Code     2  startup_tm4c129.o(.text)
    CAN1_Handler                             0x20001291   Thumb Code     2  startup_tm4c129.o(.text)
    ETH_Handler                              0x20001293   Thumb Code     2  startup_tm4c129.o(.text)
    HIB_Handler                              0x20001295   Thumb Code     2  startup_tm4c129.o(.text)
    USB0_Handler                             0x20001297   Thumb Code     2  startup_tm4c129.o(.text)
    PWM0_3_Handler                           0x20001299   Thumb Code     2  startup_tm4c129.o(.text)
    UDMA_Handler                             0x2000129b   Thumb Code     2  startup_tm4c129.o(.text)
    UDMAERR_Handler                          0x2000129d   Thumb Code     2  startup_tm4c129.o(.text)
    ADC1SS0_Handler                          0x2000129f   Thumb Code     2  startup_tm4c129.o(.text)
    ADC1SS1_Handler                          0x200012a1   Thumb Code     2  startup_tm4c129.o(.text)
    ADC1SS2_Handler                          0x200012a3   Thumb Code     2  startup_tm4c129.o(.text)
    ADC1SS3_Handler                          0x200012a5   Thumb Code     2  startup_tm4c129.o(.text)
    EBI0_Handler                             0x200012a7   Thumb Code     2  startup_tm4c129.o(.text)
    GPIOJ_Handler                            0x200012a9   Thumb Code     2  startup_tm4c129.o(.text)
    GPIOK_Handler                            0x200012ab   Thumb Code     2  startup_tm4c129.o(.text)
    GPIOL_Handler                            0x200012ad   Thumb Code     2  startup_tm4c129.o(.text)
    SSI2_Handler                             0x200012af   Thumb Code     2  startup_tm4c129.o(.text)
    SSI3_Handler                             0x200012b1   Thumb Code     2  startup_tm4c129.o(.text)
    UART3_Handler                            0x200012b3   Thumb Code     2  startup_tm4c129.o(.text)
    UART4_Handler                            0x200012b5   Thumb Code     2  startup_tm4c129.o(.text)
    UART5_Handler                            0x200012b7   Thumb Code     2  startup_tm4c129.o(.text)
    UART6_Handler                            0x200012b9   Thumb Code     2  startup_tm4c129.o(.text)
    UART7_Handler                            0x200012bb   Thumb Code     2  startup_tm4c129.o(.text)
    I2C2_Handler                             0x200012bd   Thumb Code     2  startup_tm4c129.o(.text)
    I2C3_Handler                             0x200012bf   Thumb Code     2  startup_tm4c129.o(.text)
    TIMER4A_Handler                          0x200012c1   Thumb Code     2  startup_tm4c129.o(.text)
    TIMER4B_Handler                          0x200012c3   Thumb Code     2  startup_tm4c129.o(.text)
    TIMER5A_Handler                          0x200012c5   Thumb Code     2  startup_tm4c129.o(.text)
    TIMER5B_Handler                          0x200012c7   Thumb Code     2  startup_tm4c129.o(.text)
    WTIMER0A_Handler                         0x200012c9   Thumb Code     2  startup_tm4c129.o(.text)
    WTIMER0B_Handler                         0x200012cb   Thumb Code     2  startup_tm4c129.o(.text)
    WTIMER1A_Handler                         0x200012cd   Thumb Code     2  startup_tm4c129.o(.text)
    WTIMER1B_Handler                         0x200012cf   Thumb Code     2  startup_tm4c129.o(.text)
    WTIMER2A_Handler                         0x200012d1   Thumb Code     2  startup_tm4c129.o(.text)
    WTIMER2B_Handler                         0x200012d3   Thumb Code     2  startup_tm4c129.o(.text)
    WTIMER3A_Handler                         0x200012d5   Thumb Code     2  startup_tm4c129.o(.text)
    WTIMER3B_Handler                         0x200012d7   Thumb Code     2  startup_tm4c129.o(.text)
    WTIMER4A_Handler                         0x200012d9   Thumb Code     2  startup_tm4c129.o(.text)
    WTIMER4B_Handler                         0x200012db   Thumb Code     2  startup_tm4c129.o(.text)
    WTIMER5A_Handler                         0x200012dd   Thumb Code     2  startup_tm4c129.o(.text)
    WTIMER5B_Handler                         0x200012df   Thumb Code     2  startup_tm4c129.o(.text)
    FPU_Handler                              0x200012e1   Thumb Code     2  startup_tm4c129.o(.text)
    I2C4_Handler                             0x200012e3   Thumb Code     2  startup_tm4c129.o(.text)
    I2C5_Handler                             0x200012e5   Thumb Code     2  startup_tm4c129.o(.text)
    GPIOM_Handler                            0x200012e7   Thumb Code     2  startup_tm4c129.o(.text)
    GPION_Handler                            0x200012e9   Thumb Code     2  startup_tm4c129.o(.text)
    TAMPER_Handler                           0x200012eb   Thumb Code     2  startup_tm4c129.o(.text)
    GPIOP0_Handler                           0x200012ed   Thumb Code     2  startup_tm4c129.o(.text)
    GPIOP1_Handler                           0x200012ef   Thumb Code     2  startup_tm4c129.o(.text)
    GPIOP2_Handler                           0x200012f1   Thumb Code     2  startup_tm4c129.o(.text)
    GPIOP3_Handler                           0x200012f3   Thumb Code     2  startup_tm4c129.o(.text)
    GPIOP4_Handler                           0x200012f5   Thumb Code     2  startup_tm4c129.o(.text)
    GPIOP5_Handler                           0x200012f7   Thumb Code     2  startup_tm4c129.o(.text)
    GPIOP6_Handler                           0x200012f9   Thumb Code     2  startup_tm4c129.o(.text)
    GPIOP7_Handler                           0x200012fb   Thumb Code     2  startup_tm4c129.o(.text)
    GPIOQ0_Handler                           0x200012fd   Thumb Code     2  startup_tm4c129.o(.text)
    GPIOQ1_Handler                           0x200012ff   Thumb Code     2  startup_tm4c129.o(.text)
    GPIOQ2_Handler                           0x20001301   Thumb Code     2  startup_tm4c129.o(.text)
    GPIOQ3_Handler                           0x20001303   Thumb Code     2  startup_tm4c129.o(.text)
    GPIOQ4_Handler                           0x20001305   Thumb Code     2  startup_tm4c129.o(.text)
    GPIOQ5_Handler                           0x20001307   Thumb Code     2  startup_tm4c129.o(.text)
    GPIOQ6_Handler                           0x20001309   Thumb Code     2  startup_tm4c129.o(.text)
    GPIOQ7_Handler                           0x2000130b   Thumb Code     2  startup_tm4c129.o(.text)
    GPIOR_Handler                            0x2000130d   Thumb Code     2  startup_tm4c129.o(.text)
    GPIOS_Handler                            0x2000130f   Thumb Code     2  startup_tm4c129.o(.text)
    SHAMD5_Handler                           0x20001311   Thumb Code     2  startup_tm4c129.o(.text)
    AES_Handler                              0x20001313   Thumb Code     2  startup_tm4c129.o(.text)
    DES3DES_Handler                          0x20001315   Thumb Code     2  startup_tm4c129.o(.text)
    LCDCONTROLLER_Handler                    0x20001317   Thumb Code     2  startup_tm4c129.o(.text)
    TIMER6A_Handler                          0x20001319   Thumb Code     2  startup_tm4c129.o(.text)
    TIMER6B_Handler                          0x2000131b   Thumb Code     2  startup_tm4c129.o(.text)
    TIMER7A_Handler                          0x2000131d   Thumb Code     2  startup_tm4c129.o(.text)
    TIMER7B_Handler                          0x2000131f   Thumb Code     2  startup_tm4c129.o(.text)
    I2C6_Handler                             0x20001321   Thumb Code     2  startup_tm4c129.o(.text)
    I2C7_Handler                             0x20001323   Thumb Code     2  startup_tm4c129.o(.text)
    HIMSCANKEYBOARD_Handler                  0x20001325   Thumb Code     2  startup_tm4c129.o(.text)
    ONEWIRE_Handler                          0x20001327   Thumb Code     2  startup_tm4c129.o(.text)
    HIMPS2_Handler                           0x20001329   Thumb Code     2  startup_tm4c129.o(.text)
    HIMLEDSEQUENCER_Handler                  0x2000132b   Thumb Code     2  startup_tm4c129.o(.text)
    HIMCONSUMERIR_Handler                    0x2000132d   Thumb Code     2  startup_tm4c129.o(.text)
    I2C8_Handler                             0x2000132f   Thumb Code     2  startup_tm4c129.o(.text)
    I2C9_Handler                             0x20001331   Thumb Code     2  startup_tm4c129.o(.text)
    GPIOT_Handler                            0x20001333   Thumb Code     2  startup_tm4c129.o(.text)
    __user_initial_stackheap                 0x20001335   Thumb Code     0  startup_tm4c129.o(.text)
    SystemCoreClockUpdate                    0x20001355   Thumb Code     8  system_tm4c129.o(.text)
    SystemInit                               0x2000135d   Thumb Code    20  system_tm4c129.o(.text)
    __user_libspace                          0x2000137d   Thumb Code     8  libspace.o(.text)
    __user_perproc_libspace                  0x2000137d   Thumb Code     0  libspace.o(.text)
    exit                                     0x20001385   Thumb Code    18  exit.o(.text)
    __use_two_region_memory                  0x20001397   Thumb Code     2  heapauxi.o(.text)
    __rt_heap_escrow$2region                 0x20001399   Thumb Code     2  heapauxi.o(.text)
    __rt_heap_expand$2region                 0x2000139b   Thumb Code     2  heapauxi.o(.text)
    _sys_exit                                0x2000139d   Thumb Code     8  sys_exit.o(.text)
    __user_setup_stackheap                   0x200013a9   Thumb Code    74  sys_stackheap_outer.o(.text)
    __I$use$semihosting                      0x200013f3   Thumb Code     0  use_no_semi.o(.text)
    __use_no_semihosting_swi                 0x200013f3   Thumb Code     2  use_no_semi.o(.text)
    SVC_Count                                0x200013f4   Data           4  svc_table.o(SVC_TABLE)
    __semihosting_library_function           0x200013f5   Thumb Code     0  indicate_semi.o(.text)
    GrContextFontSet                         0x200013f9   Thumb Code     6  string.o(i.GrContextFontSet)
    SVC_Table                                0x200013f8   Data           0  svc_table.o(SVC_TABLE)
    GrContextInit                            0x20001401   Thumb Code    88  context.o(i.GrContextInit)
    GrDefaultStringRenderer                  0x20001465   Thumb Code   280  string.o(i.GrDefaultStringRenderer)
    GrFontBaselineGet                        0x2000157d   Thumb Code    44  string.o(i.GrFontBaselineGet)
    GrFontGlyphDataGet                       0x200015a9   Thumb Code   166  string.o(i.GrFontGlyphDataGet)
    GrFontGlyphRender                        0x2000164f   Thumb Code   648  string.o(i.GrFontGlyphRender)
    GrLineDrawH                              0x200018d7   Thumb Code    76  line.o(i.GrLineDrawH)
    GrLineDrawV                              0x20001923   Thumb Code    76  line.o(i.GrLineDrawV)
    GrMapISO8859_1_Unicode                   0x2000196f   Thumb Code     8  charmap.o(i.GrMapISO8859_1_Unicode)
    GrRectDraw                               0x20001977   Thumb Code   108  rectangle.o(i.GrRectDraw)
    GrRectFill                               0x200019e3   Thumb Code   180  rectangle.o(i.GrRectFill)
    GrStringDraw                             0x20001a97   Thumb Code    32  string.o(i.GrStringDraw)
    GrStringWidthGet                         0x20001ab7   Thumb Code   192  string.o(i.GrStringWidthGet)
    SysCtlDeepSleepPowerSet                  0x20001b79   Thumb Code     8  sysctl.o(i.SysCtlDeepSleepPowerSet)
    _init_box                                0x20001bf1   Thumb Code    70  rt_membox.o(i._init_box)
    dbg_init                                 0x20001c39   Thumb Code    34  hal_cm.o(i.dbg_init)
    dbg_task_notify                          0x20001c69   Thumb Code    32  hal_cm.o(i.dbg_task_notify)
    dbg_task_switch                          0x20001c89   Thumb Code    16  hal_cm.o(i.dbg_task_switch)
    isrMessageGet                            0x20001c99   Thumb Code    42  rt_cmsis.o(i.isrMessageGet)
    isrMessagePut                            0x20001cc3   Thumb Code    44  rt_cmsis.o(i.isrMessagePut)
    isrSignalSet                             0x20001cef   Thumb Code    36  rt_cmsis.o(i.isrSignalSet)
    isr_evt_set                              0x20001d15   Thumb Code    34  rt_event.o(i.isr_evt_set)
    isr_mbx_receive                          0x20001d3d   Thumb Code    86  rt_mailbox.o(i.isr_mbx_receive)
    isr_mbx_send                             0x20001d93   Thumb Code    14  rt_mailbox.o(i.isr_mbx_send)
    osDelay                                  0x20001da1   Thumb Code    18  rt_cmsis.o(i.osDelay)
    osKernelInitialize                       0x20001db9   Thumb Code    30  rt_cmsis.o(i.osKernelInitialize)
    osKernelStart                            0x20001ddd   Thumb Code    98  rt_cmsis.o(i.osKernelStart)
    osMessageGet                             0x20001e49   Thumb Code    18  rt_cmsis.o(i.osMessageGet)
    osSignalSet                              0x20001e61   Thumb Code    18  rt_cmsis.o(i.osSignalSet)
    osSignalWait                             0x20001e79   Thumb Code    18  rt_cmsis.o(i.osSignalWait)
    osThreadCreate                           0x20001e91   Thumb Code    36  rt_cmsis.o(i.osThreadCreate)
    osThreadExit                             0x20001ebd   Thumb Code    14  rt_cmsis.o(i.osThreadExit)
    osTimerCall                              0x20001ed5   Thumb Code     8  rt_cmsis.o(i.osTimerCall)
    osTimerThread                            0x20001ee1   Thumb Code    38  rt_cmsis.o(i.osTimerThread)
    os_tick_init                             0x20001f0d   Thumb Code    32  rt_system.o(i.os_tick_init)
    os_tick_irqack                           0x20001f35   Thumb Code     2  rt_system.o(i.os_tick_irqack)
    rt_alloc_box                             0x20001f37   Thumb Code    26  rt_membox.o(i.rt_alloc_box)
    rt_alloc_mem                             0x20001f51   Thumb Code    62  rt_memory.o(i.rt_alloc_mem)
    rt_block                                 0x20001f91   Thumb Code    48  rt_task.o(i.rt_block)
    rt_chk_robin                             0x20001fc9   Thumb Code    60  rt_robin.o(i.rt_chk_robin)
    rt_dec_dly                               0x20002011   Thumb Code   102  rt_list.o(i.rt_dec_dly)
    rt_dispatch                              0x20002081   Thumb Code    60  rt_task.o(i.rt_dispatch)
    rt_dly_wait                              0x200020c5   Thumb Code     6  rt_time.o(i.rt_dly_wait)
    rt_evt_psh                               0x200020cd   Thumb Code    76  rt_event.o(i.rt_evt_psh)
    rt_evt_set                               0x2000211d   Thumb Code    88  rt_event.o(i.rt_evt_set)
    rt_evt_wait                              0x20002179   Thumb Code    56  rt_event.o(i.rt_evt_wait)
    rt_free_box                              0x200021b5   Thumb Code    44  rt_membox.o(i.rt_free_box)
    rt_free_mem                              0x200021e1   Thumb Code    40  rt_memory.o(i.rt_free_mem)
    rt_get_first                             0x20002209   Thumb Code    40  rt_list.o(i.rt_get_first)
    rt_init_mem                              0x20002281   Thumb Code    26  rt_memory.o(i.rt_init_mem)
    rt_init_robin                            0x2000229d   Thumb Code    14  rt_robin.o(i.rt_init_robin)
    rt_init_stack                            0x200022b5   Thumb Code   118  hal_cm.o(i.rt_init_stack)
    rt_mbx_check                             0x20002335   Thumb Code     8  rt_mailbox.o(i.rt_mbx_check)
    rt_mbx_init                              0x2000233d   Thumb Code    26  rt_mailbox.o(i.rt_mbx_init)
    rt_mbx_psh                               0x20002359   Thumb Code   236  rt_mailbox.o(i.rt_mbx_psh)
    rt_mbx_wait                              0x20002449   Thumb Code   174  rt_mailbox.o(i.rt_mbx_wait)
    rt_mut_init                              0x20002541   Thumb Code    16  rt_mutex.o(i.rt_mut_init)
    rt_mut_release                           0x20002551   Thumb Code   208  rt_mutex.o(i.rt_mut_release)
    rt_mut_wait                              0x20002629   Thumb Code   114  rt_mutex.o(i.rt_mut_wait)
    rt_pop_req                               0x200026a1   Thumb Code   112  rt_system.o(i.rt_pop_req)
    rt_psh_req                               0x2000271d   Thumb Code    22  rt_system.o(i.rt_psh_req)
    rt_psq_enq                               0x2000273d   Thumb Code    88  rt_list.o(i.rt_psq_enq)
    rt_put_dly                               0x20002799   Thumb Code    68  rt_list.o(i.rt_put_dly)
    rt_put_prio                              0x200027e1   Thumb Code    54  rt_list.o(i.rt_put_prio)
    rt_put_rdy_first                         0x20002819   Thumb Code    14  rt_list.o(i.rt_put_rdy_first)
    rt_resort_prio                           0x2000282d   Thumb Code    46  rt_list.o(i.rt_resort_prio)
    rt_ret_val                               0x20002871   Thumb Code    12  hal_cm.o(i.rt_ret_val)
    rt_ret_val2                              0x2000287d   Thumb Code    16  hal_cm.o(i.rt_ret_val2)
    rt_rmv_dly                               0x2000288d   Thumb Code    40  rt_list.o(i.rt_rmv_dly)
    rt_rmv_list                              0x200028b5   Thumb Code    44  rt_list.o(i.rt_rmv_list)
    rt_sem_psh                               0x200028e5   Thumb Code    48  rt_semaphore.o(i.rt_sem_psh)
    rt_stk_check                             0x20002919   Thumb Code    28  rt_system.o(i.rt_stk_check)
    rt_switch_req                            0x2000293d   Thumb Code    30  rt_task.o(i.rt_switch_req)
    rt_sys_init                              0x20002965   Thumb Code   138  rt_task.o(i.rt_sys_init)
    rt_sys_start                             0x20002a31   Thumb Code   110  rt_task.o(i.rt_sys_start)
    rt_systick                               0x20002aa9   Thumb Code    50  rt_system.o(i.rt_systick)
    rt_tsk_create                            0x20002b31   Thumb Code   118  rt_task.o(i.rt_tsk_create)
    rt_tsk_delete                            0x20002bb9   Thumb Code   352  rt_task.o(i.rt_tsk_delete)
    rt_tsk_prio                              0x20002d35   Thumb Code   108  rt_task.o(i.rt_tsk_prio)
    rt_tsk_self                              0x20002db1   Thumb Code    12  rt_task.o(i.rt_tsk_self)
    svcDelay                                 0x20002dc1   Thumb Code    18  rt_cmsis.o(i.svcDelay)
    svcKernelInitialize                      0x20002dd5   Thumb Code    80  rt_cmsis.o(i.svcKernelInitialize)
    svcKernelStart                           0x20002e45   Thumb Code    62  rt_cmsis.o(i.svcKernelStart)
    svcMessageCreate                         0x20002e8d   Thumb Code    36  rt_cmsis.o(i.svcMessageCreate)
    svcMessageGet                            0x20002eb1   Thumb Code    58  rt_cmsis.o(i.svcMessageGet)
    svcSignalSet                             0x20002eeb   Thumb Code    36  rt_cmsis.o(i.svcSignalSet)
    svcSignalWait                            0x20002f11   Thumb Code    80  rt_cmsis.o(i.svcSignalWait)
    svcThreadCreate                          0x20002f65   Thumb Code    96  rt_cmsis.o(i.svcThreadCreate)
    svcThreadGetId                           0x20002fd1   Thumb Code    22  rt_cmsis.o(i.svcThreadGetId)
    svcThreadTerminate                       0x20002fed   Thumb Code    50  rt_cmsis.o(i.svcThreadTerminate)
    svcTimerCall                             0x20003025   Thumb Code    24  rt_cmsis.o(i.svcTimerCall)
    sysTimerTick                             0x2000303d   Thumb Code    84  rt_cmsis.o(i.sysTimerTick)
    _fp_init                                 0x20003099   Thumb Code    10  fpinit.o(x$fpl$fpinit)
    __fplib_config_fpu_vfp                   0x200030a1   Thumb Code     0  fpinit.o(x$fpl$fpinit)
    __fplib_config_pureend_doubles           0x200030a1   Thumb Code     0  fpinit.o(x$fpl$fpinit)
    led_mask                                 0x200030a4   Data          16  led.o(.constdata)
    os_thread_def_phaseA                     0x200030b4   Data          16  blinky.o(.constdata)
    os_thread_def_phaseB                     0x200030c4   Data          16  blinky.o(.constdata)
    os_thread_def_phaseC                     0x200030d4   Data          16  blinky.o(.constdata)
    os_thread_def_phaseD                     0x200030e4   Data          16  blinky.o(.constdata)
    os_thread_def_clock                      0x200030f4   Data          16  blinky.o(.constdata)
    blackColor                               0x20003104   Data           2  cfaf128x128x16.o(.constdata)
    whiteColor                               0x20003106   Data           2  cfaf128x128x16.o(.constdata)
    redColor                                 0x20003108   Data           2  cfaf128x128x16.o(.constdata)
    greenColor                               0x2000310a   Data           2  cfaf128x128x16.o(.constdata)
    blueColor                                0x2000310c   Data           2  cfaf128x128x16.o(.constdata)
    yellowColor                              0x2000310e   Data           2  cfaf128x128x16.o(.constdata)
    cyanColor                                0x20003110   Data           2  cfaf128x128x16.o(.constdata)
    orangeColor                              0x20003112   Data           2  cfaf128x128x16.o(.constdata)
    magentaColor                             0x20003114   Data           2  cfaf128x128x16.o(.constdata)
    violetColor                              0x20003116   Data           2  cfaf128x128x16.o(.constdata)
    grayColor                                0x20003118   Data           2  cfaf128x128x16.o(.constdata)
    darkGrayColor                            0x2000311a   Data           2  cfaf128x128x16.o(.constdata)
    g_sCfaf128x128x16                        0x2000311c   Data          40  cfaf128x128x16.o(.constdata)
    os_maxtaskrun                            0x20003144   Data           2  rtx_conf_cm.o(.constdata)
    os_stackinfo                             0x20003148   Data           4  rtx_conf_cm.o(.constdata)
    os_rrobin                                0x2000314c   Data           4  rtx_conf_cm.o(.constdata)
    os_tickfreq                              0x20003150   Data           4  rtx_conf_cm.o(.constdata)
    os_tickus_i                              0x20003154   Data           2  rtx_conf_cm.o(.constdata)
    os_tickus_f                              0x20003156   Data           2  rtx_conf_cm.o(.constdata)
    os_trv                                   0x20003158   Data           4  rtx_conf_cm.o(.constdata)
    os_flags                                 0x2000315c   Data           1  rtx_conf_cm.o(.constdata)
    CMSIS_RTOS_API_Version                   0x20003160   Data           4  rtx_conf_cm.o(.constdata)
    CMSIS_RTOS_RTX_Version                   0x20003164   Data           4  rtx_conf_cm.o(.constdata)
    os_clockrate                             0x20003168   Data           4  rtx_conf_cm.o(.constdata)
    os_timernum                              0x2000316c   Data           4  rtx_conf_cm.o(.constdata)
    mp_tcb_size                              0x20003170   Data           2  rtx_conf_cm.o(.constdata)
    mp_stk_size                              0x20003174   Data           4  rtx_conf_cm.o(.constdata)
    os_stack_sz                              0x20003178   Data           4  rtx_conf_cm.o(.constdata)
    os_fifo_size                             0x2000317c   Data           1  rtx_conf_cm.o(.constdata)
    os_thread_def_osTimerThread              0x20003180   Data          16  rtx_conf_cm.o(.constdata)
    os_messageQ_def_osTimerMessageQ          0x20003190   Data           8  rtx_conf_cm.o(.constdata)
    mp_tmr_size                              0x20003198   Data           2  rtx_conf_cm.o(.constdata)
    os_thread_def_main                       0x2000319c   Data          16  rtx_conf_cm.o(.constdata)
    g_psDefaultCodePointMapTable             0x200031ac   Data          16  context.o(.constdata)
    g_sFontCm12                              0x2000371c   Data         200  fontcm12.o(.constdata)
    Region$$Table$$Base                      0x200037e4   Number         0  anon$$obj.o(Region$$Table)
    Region$$Table$$Limit                     0x20003804   Number         0  anon$$obj.o(Region$$Table)
    tid_phaseA                               0x20030000   Data           4  blinky.o(.data)
    tid_phaseB                               0x20030004   Data           4  blinky.o(.data)
    tid_phaseC                               0x20030008   Data           4  blinky.o(.data)
    tid_phaseD                               0x2003000c   Data           4  blinky.o(.data)
    tid_clock                                0x20030010   Data           4  blinky.o(.data)
    _ui32SysClock                            0x20030014   Data           4  cfaf128x128x16.o(.data)
    _orientation                             0x20030018   Data           1  cfaf128x128x16.o(.data)
    osThreadId_osTimerThread                 0x2003001c   Data           4  rtx_conf_cm.o(.data)
    osMessageQId_osTimerMessageQ             0x20030020   Data           4  rtx_conf_cm.o(.data)
    os_tmr                                   0x20030024   Data           4  rtx_conf_cm.o(.data)
    m_tmr                                    0x20030028   Data           4  rtx_conf_cm.o(.data)
    SystemCoreClock                          0x20030030   Data           4  system_tm4c129.o(.data)
    os_initialized                           0x20030038   Data           1  rt_cmsis.o(.data)
    os_running                               0x20030039   Data           1  rt_cmsis.o(.data)
    os_timer_head                            0x2003003c   Data           4  rt_cmsis.o(.data)
    os_tsk                                   0x20030040   Data           8  rt_task.o(.data)
    os_tick_irqn                             0x2003004c   Data           4  rt_system.o(.data)
    os_time                                  0x20030050   Data           4  rt_time.o(.data)
    os_robin                                 0x20030054   Data           8  rt_robin.o(.data)
    dbg_msg                                  0x2003005c   Data           1  hal_cm.o(.data)
    mp_tcb                                   0x20030060   Data         480  rtx_conf_cm.o(.bss)
    mp_stk                                   0x20030240   Data        6416  rtx_conf_cm.o(.bss)
    os_stack_mem                             0x20031b50   Data         632  rtx_conf_cm.o(.bss)
    os_fifo                                  0x20031dc8   Data         132  rtx_conf_cm.o(.bss)
    os_active_TCB                            0x20031e4c   Data          36  rtx_conf_cm.o(.bss)
    os_messageQ_q_osTimerMessageQ            0x20031e70   Data          32  rtx_conf_cm.o(.bss)
    os_idle_TCB                              0x20032270   Data          52  rt_task.o(.bss)
    os_rdy                                   0x200322a4   Data          24  rt_list.o(.bss)
    os_dly                                   0x200322bc   Data          24  rt_list.o(.bss)
    __libspace_start                         0x200322d4   Data          96  libspace.o(.bss)
    __temporary_stack_top$libspace           0x20032334   Data           0  libspace.o(.bss)



==============================================================================

Memory Map of the image

  Image Entry point : 0x20000201

  Load Region LR_IROM1 (Base: 0x20000000, Size: 0x00003864, Max: 0x00030000, ABSOLUTE)

    Execution Region ER_IROM1 (Exec base: 0x20000000, Load base: 0x20000000, Size: 0x00003804, Max: 0x00030000, ABSOLUTE)

    Exec Addr    Load Addr    Size         Type   Attr      Idx    E Section Name        Object

    0x20000000   0x20000000   0x00000200   Data   RO          182    RESET               startup_tm4c129.o
    0x20000200   0x20000200   0x00000008   Code   RO         2324  * !!!main             c_w.l(__main.o)
    0x20000208   0x20000208   0x00000034   Code   RO         2485    !!!scatter          c_w.l(__scatter.o)
    0x2000023c   0x2000023c   0x0000001a   Code   RO         2487    !!handler_copy      c_w.l(__scatter_copy.o)
    0x20000256   0x20000256   0x00000002   PAD
    0x20000258   0x20000258   0x0000001c   Code   RO         2489    !!handler_zi        c_w.l(__scatter_zi.o)
    0x20000274   0x20000274   0x00000002   Code   RO         2371    .ARM.Collect$$libinit$$00000000  c_w.l(libinit.o)
    0x20000276   0x20000276   0x00000004   Code   RO         2382    .ARM.Collect$$libinit$$00000001  c_w.l(libinit2.o)
    0x2000027a   0x2000027a   0x00000000   Code   RO         2385    .ARM.Collect$$libinit$$00000004  c_w.l(libinit2.o)
    0x2000027a   0x2000027a   0x00000000   Code   RO         2388    .ARM.Collect$$libinit$$0000000A  c_w.l(libinit2.o)
    0x2000027a   0x2000027a   0x00000000   Code   RO         2390    .ARM.Collect$$libinit$$0000000C  c_w.l(libinit2.o)
    0x2000027a   0x2000027a   0x00000000   Code   RO         2392    .ARM.Collect$$libinit$$0000000E  c_w.l(libinit2.o)
    0x2000027a   0x2000027a   0x00000000   Code   RO         2395    .ARM.Collect$$libinit$$00000011  c_w.l(libinit2.o)
    0x2000027a   0x2000027a   0x00000000   Code   RO         2397    .ARM.Collect$$libinit$$00000013  c_w.l(libinit2.o)
    0x2000027a   0x2000027a   0x00000000   Code   RO         2399    .ARM.Collect$$libinit$$00000015  c_w.l(libinit2.o)
    0x2000027a   0x2000027a   0x00000000   Code   RO         2401    .ARM.Collect$$libinit$$00000017  c_w.l(libinit2.o)
    0x2000027a   0x2000027a   0x00000000   Code   RO         2403    .ARM.Collect$$libinit$$00000019  c_w.l(libinit2.o)
    0x2000027a   0x2000027a   0x00000000   Code   RO         2405    .ARM.Collect$$libinit$$0000001B  c_w.l(libinit2.o)
    0x2000027a   0x2000027a   0x00000000   Code   RO         2407    .ARM.Collect$$libinit$$0000001D  c_w.l(libinit2.o)
    0x2000027a   0x2000027a   0x00000000   Code   RO         2409    .ARM.Collect$$libinit$$0000001F  c_w.l(libinit2.o)
    0x2000027a   0x2000027a   0x00000000   Code   RO         2411    .ARM.Collect$$libinit$$00000021  c_w.l(libinit2.o)
    0x2000027a   0x2000027a   0x00000000   Code   RO         2413    .ARM.Collect$$libinit$$00000023  c_w.l(libinit2.o)
    0x2000027a   0x2000027a   0x00000000   Code   RO         2415    .ARM.Collect$$libinit$$00000025  c_w.l(libinit2.o)
    0x2000027a   0x2000027a   0x00000000   Code   RO         2419    .ARM.Collect$$libinit$$0000002C  c_w.l(libinit2.o)
    0x2000027a   0x2000027a   0x00000000   Code   RO         2421    .ARM.Collect$$libinit$$0000002E  c_w.l(libinit2.o)
    0x2000027a   0x2000027a   0x00000000   Code   RO         2423    .ARM.Collect$$libinit$$00000030  c_w.l(libinit2.o)
    0x2000027a   0x2000027a   0x00000000   Code   RO         2425    .ARM.Collect$$libinit$$00000032  c_w.l(libinit2.o)
    0x2000027a   0x2000027a   0x00000002   Code   RO         2426    .ARM.Collect$$libinit$$00000033  c_w.l(libinit2.o)
    0x2000027c   0x2000027c   0x00000002   Code   RO         2372    .ARM.Collect$$libshutdown$$00000000  c_w.l(libshutdown.o)
    0x2000027e   0x2000027e   0x00000000   Code   RO         2428    .ARM.Collect$$libshutdown$$00000002  c_w.l(libshutdown2.o)
    0x2000027e   0x2000027e   0x00000000   Code   RO         2430    .ARM.Collect$$libshutdown$$00000004  c_w.l(libshutdown2.o)
    0x2000027e   0x2000027e   0x00000000   Code   RO         2433    .ARM.Collect$$libshutdown$$00000007  c_w.l(libshutdown2.o)
    0x2000027e   0x2000027e   0x00000000   Code   RO         2436    .ARM.Collect$$libshutdown$$0000000A  c_w.l(libshutdown2.o)
    0x2000027e   0x2000027e   0x00000000   Code   RO         2438    .ARM.Collect$$libshutdown$$0000000C  c_w.l(libshutdown2.o)
    0x2000027e   0x2000027e   0x00000000   Code   RO         2441    .ARM.Collect$$libshutdown$$0000000F  c_w.l(libshutdown2.o)
    0x2000027e   0x2000027e   0x00000002   Code   RO         2442    .ARM.Collect$$libshutdown$$00000010  c_w.l(libshutdown2.o)
    0x20000280   0x20000280   0x00000000   Code   RO         2326    .ARM.Collect$$rtentry$$00000000  c_w.l(__rtentry.o)
    0x20000280   0x20000280   0x00000000   Code   RO         2334    .ARM.Collect$$rtentry$$00000002  c_w.l(__rtentry2.o)
    0x20000280   0x20000280   0x00000006   Code   RO         2346    .ARM.Collect$$rtentry$$00000004  c_w.l(__rtentry4.o)
    0x20000286   0x20000286   0x00000000   Code   RO         2336    .ARM.Collect$$rtentry$$00000009  c_w.l(__rtentry2.o)
    0x20000286   0x20000286   0x00000004   Code   RO         2337    .ARM.Collect$$rtentry$$0000000A  c_w.l(__rtentry2.o)
    0x2000028a   0x2000028a   0x00000008   Code   RO         2338    .ARM.Collect$$rtentry$$0000000B  c_w.l(__rtentry2.o)
    0x20000292   0x20000292   0x00000008   Code   RO         2340    .ARM.Collect$$rtentry$$0000000D  c_w.l(__rtentry2.o)
    0x2000029a   0x2000029a   0x00000002   Code   RO         2327    .ARM.Collect$$rtexit$$00000000  c_w.l(rtexit.o)
    0x2000029c   0x2000029c   0x00000000   Code   RO         2349    .ARM.Collect$$rtexit$$00000002  c_w.l(rtexit2.o)
    0x2000029c   0x2000029c   0x00000004   Code   RO         2350    .ARM.Collect$$rtexit$$00000003  c_w.l(rtexit2.o)
    0x200002a0   0x200002a0   0x00000006   Code   RO         2351    .ARM.Collect$$rtexit$$00000004  c_w.l(rtexit2.o)
    0x200002a6   0x200002a6   0x00000002   PAD
    0x200002a8   0x200002a8   0x0000001c   Code   RO          152    .emb_text           rtx_conf_cm.o
    0x200002c4   0x200002c4   0x00000198   Code   RO         2300    .emb_text           RTX_CM4.lib(hal_cm4.o)
    0x2000045c   0x2000045c   0x00000184   Code   RO            4    .text               led.o
    0x200005e0   0x200005e0   0x00000308   Code   RO           63    .text               blinky.o
    0x200008e8   0x200008e8   0x0000089c   Code   RO          118    .text               cfaf128x128x16.o
    0x20001184   0x20001184   0x000000a4   Code   RO          153    .text               rtx_conf_cm.o
    0x20001228   0x20001228   0x0000012c   Code   RO          183    .text               startup_tm4c129.o
    0x20001354   0x20001354   0x00000028   Code   RO          190    .text               system_tm4c129.o
    0x2000137c   0x2000137c   0x00000008   Code   RO         2315    .text               c_w.l(libspace.o)
    0x20001384   0x20001384   0x00000012   Code   RO         2320    .text               c_w.l(exit.o)
    0x20001396   0x20001396   0x00000006   Code   RO         2322    .text               c_w.l(heapauxi.o)
    0x2000139c   0x2000139c   0x0000000c   Code   RO         2357    .text               c_w.l(sys_exit.o)
    0x200013a8   0x200013a8   0x0000004a   Code   RO         2359    .text               c_w.l(sys_stackheap_outer.o)
    0x200013f2   0x200013f2   0x00000002   Code   RO         2373    .text               c_w.l(use_no_semi.o)
    0x200013f4   0x200013f4   0x00000000   Code   RO         2375    .text               c_w.l(indicate_semi.o)
    0x200013f4   0x200013f4   0x00000004   Code   RO         2310    SVC_TABLE           RTX_CM4.lib(svc_table.o)
    0x200013f8   0x200013f8   0x00000006   Code   RO          672    i.GrContextFontSet  grlib.lib(string.o)
    0x200013fe   0x200013fe   0x00000002   PAD
    0x20001400   0x20001400   0x00000064   Code   RO          593    i.GrContextInit     grlib.lib(context.o)
    0x20001464   0x20001464   0x00000118   Code   RO          673    i.GrDefaultStringRenderer  grlib.lib(string.o)
    0x2000157c   0x2000157c   0x0000002c   Code   RO          674    i.GrFontBaselineGet  grlib.lib(string.o)
    0x200015a8   0x200015a8   0x000000a6   Code   RO          677    i.GrFontGlyphDataGet  grlib.lib(string.o)
    0x2000164e   0x2000164e   0x00000288   Code   RO          678    i.GrFontGlyphRender  grlib.lib(string.o)
    0x200018d6   0x200018d6   0x0000004c   Code   RO         1818    i.GrLineDrawH       grlib.lib(line.o)
    0x20001922   0x20001922   0x0000004c   Code   RO         1819    i.GrLineDrawV       grlib.lib(line.o)
    0x2000196e   0x2000196e   0x00000008   Code   RO         1665    i.GrMapISO8859_1_Unicode  grlib.lib(charmap.o)
    0x20001976   0x20001976   0x0000006c   Code   RO          641    i.GrRectDraw        grlib.lib(rectangle.o)
    0x200019e2   0x200019e2   0x000000b4   Code   RO          642    i.GrRectFill        grlib.lib(rectangle.o)
    0x20001a96   0x20001a96   0x00000020   Code   RO          684    i.GrStringDraw      grlib.lib(string.o)
    0x20001ab6   0x20001ab6   0x000000c0   Code   RO          689    i.GrStringWidthGet  grlib.lib(string.o)
    0x20001b76   0x20001b76   0x00000002   PAD
    0x20001b78   0x20001b78   0x0000000c   Code   RO          226    i.SysCtlDeepSleepPowerSet  driverlib.lib(sysctl.o)
    0x20001b84   0x20001b84   0x0000006c   Code   RO          690    i.UpdateContextCharMapping  grlib.lib(string.o)
    0x20001bf0   0x20001bf0   0x00000046   Code   RO         2194    i._init_box         RTX_CM4.lib(rt_membox.o)
    0x20001c36   0x20001c36   0x00000002   PAD
    0x20001c38   0x20001c38   0x00000030   Code   RO         2247    i.dbg_init          RTX_CM4.lib(hal_cm.o)
    0x20001c68   0x20001c68   0x00000020   Code   RO         2248    i.dbg_task_notify   RTX_CM4.lib(hal_cm.o)
    0x20001c88   0x20001c88   0x00000010   Code   RO         2249    i.dbg_task_switch   RTX_CM4.lib(hal_cm.o)
    0x20001c98   0x20001c98   0x0000002a   Code   RO          802    i.isrMessageGet     RTX_CM4.lib(rt_cmsis.o)
    0x20001cc2   0x20001cc2   0x0000002c   Code   RO          803    i.isrMessagePut     RTX_CM4.lib(rt_cmsis.o)
    0x20001cee   0x20001cee   0x00000024   Code   RO          805    i.isrSignalSet      RTX_CM4.lib(rt_cmsis.o)
    0x20001d12   0x20001d12   0x00000002   PAD
    0x20001d14   0x20001d14   0x00000028   Code   RO         1931    i.isr_evt_set       RTX_CM4.lib(rt_event.o)
    0x20001d3c   0x20001d3c   0x00000056   Code   RO         2049    i.isr_mbx_receive   RTX_CM4.lib(rt_mailbox.o)
    0x20001d92   0x20001d92   0x0000000e   Code   RO         2050    i.isr_mbx_send      RTX_CM4.lib(rt_mailbox.o)
    0x20001da0   0x20001da0   0x00000018   Code   RO          806    i.osDelay           RTX_CM4.lib(rt_cmsis.o)
    0x20001db8   0x20001db8   0x00000024   Code   RO          807    i.osKernelInitialize  RTX_CM4.lib(rt_cmsis.o)
    0x20001ddc   0x20001ddc   0x0000006c   Code   RO          809    i.osKernelStart     RTX_CM4.lib(rt_cmsis.o)
    0x20001e48   0x20001e48   0x00000018   Code   RO          818    i.osMessageGet      RTX_CM4.lib(rt_cmsis.o)
    0x20001e60   0x20001e60   0x00000018   Code   RO          833    i.osSignalSet       RTX_CM4.lib(rt_cmsis.o)
    0x20001e78   0x20001e78   0x00000018   Code   RO          834    i.osSignalWait      RTX_CM4.lib(rt_cmsis.o)
    0x20001e90   0x20001e90   0x0000002c   Code   RO          835    i.osThreadCreate    RTX_CM4.lib(rt_cmsis.o)
    0x20001ebc   0x20001ebc   0x00000018   Code   RO          836    i.osThreadExit      RTX_CM4.lib(rt_cmsis.o)
    0x20001ed4   0x20001ed4   0x0000000c   Code   RO          842    i.osTimerCall       RTX_CM4.lib(rt_cmsis.o)
    0x20001ee0   0x20001ee0   0x0000002c   Code   RO          847    i.osTimerThread     RTX_CM4.lib(rt_cmsis.o)
    0x20001f0c   0x20001f0c   0x00000028   Code   RO         1841    i.os_tick_init      RTX_CM4.lib(rt_system.o)
    0x20001f34   0x20001f34   0x00000002   Code   RO         1842    i.os_tick_irqack    RTX_CM4.lib(rt_system.o)
    0x20001f36   0x20001f36   0x0000001a   Code   RO         2195    i.rt_alloc_box      RTX_CM4.lib(rt_membox.o)
    0x20001f50   0x20001f50   0x0000003e   Code   RO         2223    i.rt_alloc_mem      RTX_CM4.lib(rt_memory.o)
    0x20001f8e   0x20001f8e   0x00000002   PAD
    0x20001f90   0x20001f90   0x00000038   Code   RO         1421    i.rt_block          RTX_CM4.lib(rt_task.o)
    0x20001fc8   0x20001fc8   0x00000048   Code   RO         2172    i.rt_chk_robin      RTX_CM4.lib(rt_robin.o)
    0x20002010   0x20002010   0x00000070   Code   RO         1973    i.rt_dec_dly        RTX_CM4.lib(rt_list.o)
    0x20002080   0x20002080   0x00000044   Code   RO         1422    i.rt_dispatch       RTX_CM4.lib(rt_task.o)
    0x200020c4   0x200020c4   0x00000006   Code   RO         2139    i.rt_dly_wait       RTX_CM4.lib(rt_time.o)
    0x200020ca   0x200020ca   0x00000002   PAD
    0x200020cc   0x200020cc   0x00000050   Code   RO         1934    i.rt_evt_psh        RTX_CM4.lib(rt_event.o)
    0x2000211c   0x2000211c   0x0000005c   Code   RO         1935    i.rt_evt_set        RTX_CM4.lib(rt_event.o)
    0x20002178   0x20002178   0x0000003c   Code   RO         1936    i.rt_evt_wait       RTX_CM4.lib(rt_event.o)
    0x200021b4   0x200021b4   0x0000002c   Code   RO         2196    i.rt_free_box       RTX_CM4.lib(rt_membox.o)
    0x200021e0   0x200021e0   0x00000028   Code   RO         2224    i.rt_free_mem       RTX_CM4.lib(rt_memory.o)
    0x20002208   0x20002208   0x00000028   Code   RO         1974    i.rt_get_first      RTX_CM4.lib(rt_list.o)
    0x20002230   0x20002230   0x00000008   Code   RO          852    i.rt_id2obj         RTX_CM4.lib(rt_cmsis.o)
    0x20002238   0x20002238   0x00000048   Code   RO         1423    i.rt_init_context   RTX_CM4.lib(rt_task.o)
    0x20002280   0x20002280   0x0000001a   Code   RO         2225    i.rt_init_mem       RTX_CM4.lib(rt_memory.o)
    0x2000229a   0x2000229a   0x00000002   PAD
    0x2000229c   0x2000229c   0x00000018   Code   RO         2173    i.rt_init_robin     RTX_CM4.lib(rt_robin.o)
    0x200022b4   0x200022b4   0x00000080   Code   RO         2250    i.rt_init_stack     RTX_CM4.lib(hal_cm.o)
    0x20002334   0x20002334   0x00000008   Code   RO         2051    i.rt_mbx_check      RTX_CM4.lib(rt_mailbox.o)
    0x2000233c   0x2000233c   0x0000001a   Code   RO         2052    i.rt_mbx_init       RTX_CM4.lib(rt_mailbox.o)
    0x20002356   0x20002356   0x00000002   PAD
    0x20002358   0x20002358   0x000000f0   Code   RO         2053    i.rt_mbx_psh        RTX_CM4.lib(rt_mailbox.o)
    0x20002448   0x20002448   0x000000b4   Code   RO         2055    i.rt_mbx_wait       RTX_CM4.lib(rt_mailbox.o)
    0x200024fc   0x200024fc   0x00000044   Code   RO          853    i.rt_ms2tick        RTX_CM4.lib(rt_cmsis.o)
    0x20002540   0x20002540   0x00000010   Code   RO         1506    i.rt_mut_init       RTX_CM4.lib(rt_mutex.o)
    0x20002550   0x20002550   0x000000d8   Code   RO         1507    i.rt_mut_release    RTX_CM4.lib(rt_mutex.o)
    0x20002628   0x20002628   0x00000078   Code   RO         1508    i.rt_mut_wait       RTX_CM4.lib(rt_mutex.o)
    0x200026a0   0x200026a0   0x0000007c   Code   RO         1845    i.rt_pop_req        RTX_CM4.lib(rt_system.o)
    0x2000271c   0x2000271c   0x00000020   Code   RO         1846    i.rt_psh_req        RTX_CM4.lib(rt_system.o)
    0x2000273c   0x2000273c   0x0000005c   Code   RO         1976    i.rt_psq_enq        RTX_CM4.lib(rt_list.o)
    0x20002798   0x20002798   0x00000048   Code   RO         1977    i.rt_put_dly        RTX_CM4.lib(rt_list.o)
    0x200027e0   0x200027e0   0x00000036   Code   RO         1978    i.rt_put_prio       RTX_CM4.lib(rt_list.o)
    0x20002816   0x20002816   0x00000002   PAD
    0x20002818   0x20002818   0x00000014   Code   RO         1979    i.rt_put_rdy_first  RTX_CM4.lib(rt_list.o)
    0x2000282c   0x2000282c   0x00000034   Code   RO         1980    i.rt_resort_prio    RTX_CM4.lib(rt_list.o)
    0x20002860   0x20002860   0x00000010   Code   RO         2251    i.rt_ret_regs       RTX_CM4.lib(hal_cm.o)
    0x20002870   0x20002870   0x0000000c   Code   RO         2252    i.rt_ret_val        RTX_CM4.lib(hal_cm.o)
    0x2000287c   0x2000287c   0x00000010   Code   RO         2253    i.rt_ret_val2       RTX_CM4.lib(hal_cm.o)
    0x2000288c   0x2000288c   0x00000028   Code   RO         1981    i.rt_rmv_dly        RTX_CM4.lib(rt_list.o)
    0x200028b4   0x200028b4   0x00000030   Code   RO         1982    i.rt_rmv_list       RTX_CM4.lib(rt_list.o)
    0x200028e4   0x200028e4   0x00000034   Code   RO         2100    i.rt_sem_psh        RTX_CM4.lib(rt_semaphore.o)
    0x20002918   0x20002918   0x00000024   Code   RO         1848    i.rt_stk_check      RTX_CM4.lib(rt_system.o)
    0x2000293c   0x2000293c   0x00000028   Code   RO         1424    i.rt_switch_req     RTX_CM4.lib(rt_task.o)
    0x20002964   0x20002964   0x000000cc   Code   RO         1425    i.rt_sys_init       RTX_CM4.lib(rt_task.o)
    0x20002a30   0x20002a30   0x00000078   Code   RO         1426    i.rt_sys_start      RTX_CM4.lib(rt_task.o)
    0x20002aa8   0x20002aa8   0x00000040   Code   RO         1850    i.rt_systick        RTX_CM4.lib(rt_system.o)
    0x20002ae8   0x20002ae8   0x00000012   Code   RO          854    i.rt_tid2ptcb       RTX_CM4.lib(rt_cmsis.o)
    0x20002afa   0x20002afa   0x00000002   PAD
    0x20002afc   0x20002afc   0x00000034   Code   RO          855    i.rt_timer_insert   RTX_CM4.lib(rt_cmsis.o)
    0x20002b30   0x20002b30   0x00000088   Code   RO         1427    i.rt_tsk_create     RTX_CM4.lib(rt_task.o)
    0x20002bb8   0x20002bb8   0x0000017c   Code   RO         1428    i.rt_tsk_delete     RTX_CM4.lib(rt_task.o)
    0x20002d34   0x20002d34   0x0000007c   Code   RO         1430    i.rt_tsk_prio       RTX_CM4.lib(rt_task.o)
    0x20002db0   0x20002db0   0x00000010   Code   RO         1431    i.rt_tsk_self       RTX_CM4.lib(rt_task.o)
    0x20002dc0   0x20002dc0   0x00000012   Code   RO          857    i.svcDelay          RTX_CM4.lib(rt_cmsis.o)
    0x20002dd2   0x20002dd2   0x00000002   PAD
    0x20002dd4   0x20002dd4   0x00000070   Code   RO          858    i.svcKernelInitialize  RTX_CM4.lib(rt_cmsis.o)
    0x20002e44   0x20002e44   0x00000048   Code   RO          860    i.svcKernelStart    RTX_CM4.lib(rt_cmsis.o)
    0x20002e8c   0x20002e8c   0x00000024   Code   RO          863    i.svcMessageCreate  RTX_CM4.lib(rt_cmsis.o)
    0x20002eb0   0x20002eb0   0x0000003a   Code   RO          864    i.svcMessageGet     RTX_CM4.lib(rt_cmsis.o)
    0x20002eea   0x20002eea   0x00000024   Code   RO          876    i.svcSignalSet      RTX_CM4.lib(rt_cmsis.o)
    0x20002f0e   0x20002f0e   0x00000002   PAD
    0x20002f10   0x20002f10   0x00000054   Code   RO          877    i.svcSignalWait     RTX_CM4.lib(rt_cmsis.o)
    0x20002f64   0x20002f64   0x0000006c   Code   RO          878    i.svcThreadCreate   RTX_CM4.lib(rt_cmsis.o)
    0x20002fd0   0x20002fd0   0x0000001c   Code   RO          879    i.svcThreadGetId    RTX_CM4.lib(rt_cmsis.o)
    0x20002fec   0x20002fec   0x00000038   Code   RO          882    i.svcThreadTerminate  RTX_CM4.lib(rt_cmsis.o)
    0x20003024   0x20003024   0x00000018   Code   RO          884    i.svcTimerCall      RTX_CM4.lib(rt_cmsis.o)
    0x2000303c   0x2000303c   0x0000005c   Code   RO          893    i.sysTimerTick      RTX_CM4.lib(rt_cmsis.o)
    0x20003098   0x20003098   0x0000000a   Code   RO         2449    x$fpl$fpinit        fz_wm.l(fpinit.o)
    0x200030a2   0x200030a2   0x00000002   PAD
    0x200030a4   0x200030a4   0x00000010   Data   RO            5    .constdata          led.o
    0x200030b4   0x200030b4   0x00000050   Data   RO           64    .constdata          blinky.o
    0x20003104   0x20003104   0x00000040   Data   RO          119    .constdata          cfaf128x128x16.o
    0x20003144   0x20003144   0x00000068   Data   RO          155    .constdata          rtx_conf_cm.o
    0x200031ac   0x200031ac   0x00000010   Data   RO          595    .constdata          grlib.lib(context.o)
    0x200031bc   0x200031bc   0x0000055f   Data   RO          627    .constdata          grlib.lib(fontcm12.o)
    0x2000371b   0x2000371b   0x00000001   PAD
    0x2000371c   0x2000371c   0x000000c8   Data   RO          628    .constdata          grlib.lib(fontcm12.o)
    0x200037e4   0x200037e4   0x00000020   Data   RO         2483    Region$$Table       anon$$obj.o


    Execution Region RW_IRAM1 (Exec base: 0x20030000, Load base: 0x20003804, Size: 0x00002538, Max: 0x00010000, ABSOLUTE)

    Exec Addr    Load Addr    Size         Type   Attr      Idx    E Section Name        Object

    0x20030000   0x20003804   0x00000014   Data   RW           65    .data               blinky.o
    0x20030014   0x20003818   0x00000005   Data   RW          120    .data               cfaf128x128x16.o
    0x20030019   0x2000381d   0x00000003   PAD
    0x2003001c   0x20003820   0x00000014   Data   RW          156    .data               rtx_conf_cm.o
    0x20030030   0x20003834   0x00000004   Data   RW          191    .data               system_tm4c129.o
    0x20030034   0x20003838   0x00000004   Data   RW          596    .data               grlib.lib(context.o)
    0x20030038   0x2000383c   0x00000008   Data   RW          896    .data               RTX_CM4.lib(rt_cmsis.o)
    0x20030040   0x20003844   0x00000008   Data   RW         1433    .data               RTX_CM4.lib(rt_task.o)
    0x20030048   0x2000384c   0x00000008   Data   RW         1853    .data               RTX_CM4.lib(rt_system.o)
    0x20030050   0x20003854   0x00000004   Data   RW         2143    .data               RTX_CM4.lib(rt_time.o)
    0x20030054   0x20003858   0x00000008   Data   RW         2174    .data               RTX_CM4.lib(rt_robin.o)
    0x2003005c   0x20003860   0x00000001   Data   RW         2254    .data               RTX_CM4.lib(hal_cm.o)
    0x2003005d   0x20003861   0x00000003   PAD
    0x20030060        -       0x00002210   Zero   RW          154    .bss                rtx_conf_cm.o
    0x20032270        -       0x00000034   Zero   RW         1432    .bss                RTX_CM4.lib(rt_task.o)
    0x200322a4        -       0x00000030   Zero   RW         1983    .bss                RTX_CM4.lib(rt_list.o)
    0x200322d4        -       0x00000060   Zero   RW         2316    .bss                c_w.l(libspace.o)
    0x20032334   0x20003861   0x00000004   PAD
    0x20032338        -       0x00000000   Zero   RW          181    HEAP                startup_tm4c129.o
    0x20032338        -       0x00000200   Zero   RW          180    STACK               startup_tm4c129.o


==============================================================================

Image component sizes


      Code (inc. data)   RO Data    RW Data    ZI Data      Debug   Object Name

       776         74         80         20          0      32928   blinky.o
      2204         86         64          5          0      10802   cfaf128x128x16.o
       388         32         16          0          0       6323   led.o
       192         34        104         20       8720       9041   rtx_conf_cm.o
       300         22        512          0        512       6052   startup_tm4c129.o
        40         12          0          4          0        925   system_tm4c129.o

    ----------------------------------------------------------------------
      3900        260        808         52       9232      66071   Object Totals
         0          0         32          0          0          0   (incl. Generated)
         0          0          0          3          0          0   (incl. Padding)

    ----------------------------------------------------------------------

      Code (inc. data)   RO Data    RW Data    ZI Data      Debug   Library Member Name

       268         24          0          1          0       4524   hal_cm.o
       408         34          0          0          0        824   hal_cm4.o
      1356        160          0          8          0      39206   rt_cmsis.o
       272         18          0          0          0       2842   rt_event.o
       530         34          0          0         48       8685   rt_list.o
       554         10          0          0          0       4237   rt_mailbox.o
       140          0          0          0          0       2069   rt_membox.o
       128          0          0          0          0       2451   rt_memory.o
       352         14          0          0          0       2249   rt_mutex.o
        96         22          0          8          0       1254   rt_robin.o
        52          4          0          0          0        621   rt_semaphore.o
       298         52          0          8          0       6511   rt_system.o
      1216        174          0          8         52      10129   rt_task.o
         6          0          0          4          0        700   rt_time.o
         4          4          0          0          0        208   svc_table.o
         8          0          0          0          0         68   __main.o
         0          0          0          0          0          0   __rtentry.o
        20          0          0          0          0          0   __rtentry2.o
         6          0          0          0          0          0   __rtentry4.o
        52          8          0          0          0          0   __scatter.o
        26          0          0          0          0          0   __scatter_copy.o
        28          0          0          0          0          0   __scatter_zi.o
        18          0          0          0          0         80   exit.o
         6          0          0          0          0        152   heapauxi.o
         0          0          0          0          0          0   indicate_semi.o
         2          0          0          0          0          0   libinit.o
         6          0          0          0          0          0   libinit2.o
         2          0          0          0          0          0   libshutdown.o
         2          0          0          0          0          0   libshutdown2.o
         8          4          0          0         96         68   libspace.o
         2          0          0          0          0          0   rtexit.o
        10          0          0          0          0          0   rtexit2.o
        12          4          0          0          0         68   sys_exit.o
        74          0          0          0          0         80   sys_stackheap_outer.o
         2          0          0          0          0         68   use_no_semi.o
        12          4          0          0          0       3574   sysctl.o
        10          0          0          0          0        116   fpinit.o
         8          0          0          0          0       1474   charmap.o
       100         12         16          4          0      26403   context.o
         0          0       1575          0          0      25614   fontcm12.o
       152          0          0          0          0       2142   line.o
       288          0          0          0          0       2131   rectangle.o
      1476          0          0          0          0      11154   string.o

    ----------------------------------------------------------------------
      8040        582       1592         44        200     159702   Library Totals
        30          0          1          3          4          0   (incl. Padding)

    ----------------------------------------------------------------------

      Code (inc. data)   RO Data    RW Data    ZI Data      Debug   Library Name

      5680        550          0         37        100      86510   RTX_CM4.lib
       284         16          0          0         96        584   c_w.l
        12          4          0          0          0       3574   driverlib.lib
        10          0          0          0          0        116   fz_wm.l
      2024         12       1591          4          0      68918   grlib.lib

    ----------------------------------------------------------------------
      8040        582       1592         44        200     159702   Library Totals

    ----------------------------------------------------------------------

==============================================================================


      Code (inc. data)   RO Data    RW Data    ZI Data      Debug   

     11940        842       2400         96       9432     215617   Grand Totals
     11940        842       2400         96       9432     215617   ELF Image Totals
     11940        842       2400         96          0          0   ROM Totals

==============================================================================

    Total RO  Size (Code + RO Data)                14340 (  14.00kB)
    Total RW  Size (RW Data + ZI Data)              9528 (   9.30kB)
    Total ROM Size (Code + RO Data + RW Data)      14436 (  14.10kB)

==============================================================================

